EXPORTS
 "R_init_expertsurv"
 "_ZN4Rcpp10RstreambufILb0EE4syncEv"
 "_ZN4Rcpp10RstreambufILb0EE6xsputnEPKcx"
 "_ZN4Rcpp10RstreambufILb0EE8overflowEi"
 "_ZN4Rcpp10RstreambufILb0EED0Ev"
 "_ZN4Rcpp10RstreambufILb0EED1Ev"
 "_ZN4Rcpp10RstreambufILb1EE4syncEv"
 "_ZN4Rcpp10RstreambufILb1EE6xsputnEPKcx"
 "_ZN4Rcpp10RstreambufILb1EE8overflowEi"
 "_ZN4Rcpp10RstreambufILb1EED0Ev"
 "_ZN4Rcpp10RstreambufILb1EED1Ev"
 "_ZN4Rcpp8RostreamILb0EED0Ev"
 "_ZN4Rcpp8RostreamILb0EED1Ev"
 "_ZN4Rcpp8RostreamILb1EED0Ev"
 "_ZN4Rcpp8RostreamILb1EED1Ev"
 "_ZTCN4Rcpp8RostreamILb0EEE0_So"
 "_ZTCN4Rcpp8RostreamILb1EEE0_So"
 "_ZTIN4Rcpp10RstreambufILb0EEE"
 "_ZTIN4Rcpp10RstreambufILb1EEE"
 "_ZTIN4Rcpp8RostreamILb0EEE"
 "_ZTIN4Rcpp8RostreamILb1EEE"
 "_ZTSN4Rcpp10RstreambufILb0EEE"
 "_ZTSN4Rcpp10RstreambufILb1EEE"
 "_ZTSN4Rcpp8RostreamILb0EEE"
 "_ZTSN4Rcpp8RostreamILb1EEE"
 "_ZTTN4Rcpp8RostreamILb0EEE"
 "_ZTTN4Rcpp8RostreamILb1EEE"
 "_ZTVN4Rcpp10RstreambufILb0EEE"
 "_ZTVN4Rcpp10RstreambufILb1EEE"
 "_ZTVN4Rcpp8RostreamILb0EEE"
 "_ZTVN4Rcpp8RostreamILb1EEE"
 "_ZTv0_n24_N4Rcpp8RostreamILb0EED0Ev"
 "_ZTv0_n24_N4Rcpp8RostreamILb0EED1Ev"
 "_ZTv0_n24_N4Rcpp8RostreamILb1EED0Ev"
 "_ZTv0_n24_N4Rcpp8RostreamILb1EED1Ev"
 "_Z13get_last_callv"
 "_Z14make_conditionRKNSt7__cxx1112basic_stringIcSt11char_traitsIcESaIcEEEP7SEXPRECS8_S8_"
 "_Z19string_to_try_errorRKNSt7__cxx1112basic_stringIcSt11char_traitsIcESaIcEEE"
 "_Z20rcpp_set_stack_traceP7SEXPREC"
 "_Z21get_exception_classesRKNSt7__cxx1112basic_stringIcSt11char_traitsIcESaIcEEE"
 "_Z31exception_to_condition_templateIN4Rcpp9exceptionEEP7SEXPRECRKT_b"
 "_Z31exception_to_condition_templateISt9exceptionEP7SEXPRECRKT_b"
 "_Z49_rcpp_module_stan_fit4Exponential_expert_mod_initv"
 "_Z7dataptrP7SEXPREC"
 "_ZGVN5boost16exception_detail37exception_ptr_static_exception_objectINS0_10bad_alloc_EE1eE"
 "_ZGVN5boost16exception_detail37exception_ptr_static_exception_objectINS0_14bad_exception_EE1eE"
 "_ZGVN5boost4math6detail15erf_initializerIdNS0_8policies6policyINS3_10pole_errorILNS3_17error_policy_typeE1EEENS3_14overflow_errorILS6_1EEENS3_13promote_floatILb0EEENS3_14promote_doubleILb0EEENS3_14default_policyESE_SE_SE_SE_SE_SE_SE_SE_EENS_17integral_constantIiLi53EEEE11initializerE"
 "_ZGVN5boost4math6detail15erf_initializerIeNS0_8policies6policyINS3_13promote_floatILb0EEENS3_14promote_doubleILb0EEENS3_14default_policyES9_S9_S9_S9_S9_S9_S9_S9_S9_S9_EENS_17integral_constantIiLi64EEEE11initializerE"
 "_ZGVN5boost4math6detail17expm1_initializerIdNS0_8policies6policyINS3_10pole_errorILNS3_17error_policy_typeE1EEENS3_14overflow_errorILS6_1EEENS3_13promote_floatILb0EEENS3_14promote_doubleILb0EEENS3_14default_policyESE_SE_SE_SE_SE_SE_SE_SE_EENS_17integral_constantIiLi53EEEE11initializerE"
 "_ZGVN5boost4math6detail17expm1_initializerIeNS0_8policies6policyINS3_13promote_floatILb0EEENS3_14promote_doubleILb0EEENS3_14default_policyES9_S9_S9_S9_S9_S9_S9_S9_S9_S9_EENS_17integral_constantIiLi64EEEE11initializerE"
 "_ZGVN5boost4math6detail17log1p_initializerIdNS0_8policies6policyINS3_10pole_errorILNS3_17error_policy_typeE1EEENS3_14overflow_errorILS6_1EEENS3_13promote_floatILb0EEENS3_14promote_doubleILb0EEENS3_14default_policyESE_SE_SE_SE_SE_SE_SE_SE_EENS_17integral_constantIiLi53EEEE11initializerE"
 "_ZGVN5boost4math6detail17log1p_initializerIdNS0_8policies6policyINS3_13promote_floatILb0EEENS3_14promote_doubleILb0EEENS3_14default_policyES9_S9_S9_S9_S9_S9_S9_S9_S9_S9_EENS_17integral_constantIiLi53EEEE11initializerE"
 "_ZGVN5boost4math6detail17log1p_initializerIeNS0_8policies6policyINS3_13promote_floatILb0EEENS3_14promote_doubleILb0EEENS3_14default_policyES9_S9_S9_S9_S9_S9_S9_S9_S9_S9_EENS_17integral_constantIiLi64EEEE11initializerE"
 "_ZGVN5boost4math6detail18igamma_initializerIdNS0_8policies6policyINS3_10pole_errorILNS3_17error_policy_typeE1EEENS3_14overflow_errorILS6_1EEENS3_13promote_floatILb0EEENS3_14promote_doubleILb0EEENS3_14default_policyESE_SE_SE_SE_SE_SE_SE_SE_EEE11initializerE"
 "_ZGVN5boost4math6detail18igamma_initializerIeNS0_8policies6policyINS3_13promote_floatILb0EEENS3_14promote_doubleILb0EEENS3_14default_policyES9_S9_S9_S9_S9_S9_S9_S9_S9_S9_EEE11initializerE"
 "_ZGVN5boost4math6detail18lgamma_initializerIdNS0_8policies6policyINS3_10pole_errorILNS3_17error_policy_typeE1EEENS3_14overflow_errorILS6_1EEENS3_13promote_floatILb0EEENS3_14promote_doubleILb0EEENS3_14default_policyESE_SE_SE_SE_SE_SE_SE_SE_EEE11initializerE"
 "_ZGVN5boost4math6detail18lgamma_initializerIeNS0_8policies6policyINS3_13promote_floatILb0EEENS3_14promote_doubleILb0EEENS3_14default_policyES9_S9_S9_S9_S9_S9_S9_S9_S9_S9_EEE11initializerE"
 "_ZGVN5boost4math6detail19digamma_initializerIdNS0_8policies6policyINS3_10pole_errorILNS3_17error_policy_typeE1EEENS3_14overflow_errorILS6_1EEENS3_13promote_floatILb0EEENS3_14promote_doubleILb0EEENS3_14default_policyESE_SE_SE_SE_SE_SE_SE_SE_EEE11initializerE"
 "_ZGVN5boost4math6detail19digamma_initializerIeNS0_8policies6policyINS3_13promote_floatILb0EEENS3_14promote_doubleILb0EEENS3_14default_policyES9_S9_S9_S9_S9_S9_S9_S9_S9_S9_EEE11initializerE"
 "_ZGVN5boost4math6detail19owens_t_initializerIdNS0_8policies6policyINS3_14default_policyES5_S5_S5_S5_S5_S5_S5_S5_S5_S5_S5_S5_EENS_17integral_constantIiLi64EEEE11initializerE"
 "_ZGVN5boost4math6detail21bessel_i0_initializerIeNS_17integral_constantIiLi64EEEE11initializerE"
 "_ZGVN5boost4math6detail21bessel_i1_initializerIeNS_17integral_constantIiLi64EEEE11initializerE"
 "_ZGVN5boost4math6detail21bessel_j0_initializerIeE11initializerE"
 "_ZGVN5boost4math6detail21bessel_j1_initializerIeE11initializerE"
 "_ZGVN5boost4math6detail21bessel_k0_initializerIeNS_17integral_constantIiLi64EEEE11initializerE"
 "_ZGVN5boost4math6detail21bessel_k1_initializerIeNS_17integral_constantIiLi64EEEE11initializerE"
 "_ZGVN5boost4math6detail21bessel_y0_initializerIeNS0_8policies6policyINS3_13promote_floatILb0EEENS3_14promote_doubleILb0EEENS3_14default_policyES9_S9_S9_S9_S9_S9_S9_S9_S9_S9_EEE11initializerE"
 "_ZGVN5boost4math6detail21bessel_y1_initializerIeNS0_8policies6policyINS3_13promote_floatILb0EEENS3_14promote_doubleILb0EEENS3_14default_policyES9_S9_S9_S9_S9_S9_S9_S9_S9_S9_EEE11initializerE"
 "_ZGVN5boost4math7lanczos19lanczos_initializerINS1_12lanczos17m64EeE11initializerE"
 "_ZGVZ15getCurrentScopevE3fun"
 "_ZGVZ15setCurrentScopePN4Rcpp6ModuleEE3fun"
 "_ZGVZ19char_get_string_eltP7SEXPRECxE3fun"
 "_ZGVZ20rcpp_get_stack_tracevE3fun"
 "_ZGVZ20rcpp_set_stack_traceP7SEXPRECE3fun"
 "_ZGVZ7dataptrP7SEXPRECE3fun"
 "_ZGVZ8demangleRKNSt7__cxx1112basic_stringIcSt11char_traitsIcESaIcEEEE3funB5cxx11"
 "_ZGVZN4Rcpp20Rcpp_precious_removeEP7SEXPRECE3fun"
 "_ZGVZN4Rcpp22Rcpp_precious_preserveEP7SEXPRECE3fun"
 "_ZGVZN4Rcpp6class_IN5rstan8stan_fitIN34model_Exponential_expert_namespace24model_Exponential_expertEN5boost6random23additive_combine_engineINS6_26linear_congruential_engineIjLj40014ELj0ELj2147483563EEENS8_IjLj40692ELj0ELj2147483399EEEEEEEE11getPropertyEP7SEXPRECSF_E8stop_sym"
 "_ZGVZN4Rcpp6class_IN5rstan8stan_fitIN34model_Exponential_expert_namespace24model_Exponential_expertEN5boost6random23additive_combine_engineINS6_26linear_congruential_engineIjLj40014ELj0ELj2147483563EEENS8_IjLj40692ELj0ELj2147483399EEEEEEEE11invoke_voidEP7SEXPRECSF_PSF_iE8stop_sym"
 "_ZGVZN4Rcpp6class_IN5rstan8stan_fitIN34model_Exponential_expert_namespace24model_Exponential_expertEN5boost6random23additive_combine_engineINS6_26linear_congruential_engineIjLj40014ELj0ELj2147483563EEENS8_IjLj40692ELj0ELj2147483399EEEEEEEE11newInstanceEPP7SEXPRECiE8stop_sym"
 "_ZGVZN4Rcpp6class_IN5rstan8stan_fitIN34model_Exponential_expert_namespace24model_Exponential_expertEN5boost6random23additive_combine_engineINS6_26linear_congruential_engineIjLj40014ELj0ELj2147483563EEENS8_IjLj40692ELj0ELj2147483399EEEEEEEE11setPropertyEP7SEXPRECSF_SF_E8stop_sym"
 "_ZGVZN4Rcpp6class_IN5rstan8stan_fitIN34model_Exponential_expert_namespace24model_Exponential_expertEN5boost6random23additive_combine_engineINS6_26linear_congruential_engineIjLj40014ELj0ELj2147483563EEENS8_IjLj40692ELj0ELj2147483399EEEEEEEE14invoke_notvoidEP7SEXPRECSF_PSF_iE8stop_sym"
 "_ZGVZN4Rcpp6class_IN5rstan8stan_fitIN34model_Exponential_expert_namespace24model_Exponential_expertEN5boost6random23additive_combine_engineINS6_26linear_congruential_engineIjLj40014ELj0ELj2147483563EEENS8_IjLj40692ELj0ELj2147483399EEEEEEEE6invokeEP7SEXPRECSF_PSF_iE8stop_sym"
 "_ZGVZN4Rcpp8internal18get_Rcpp_namespaceEvE3fun"
 "_ZGVZN5Eigen8internal20manage_caching_sizesENS_6ActionEPxS2_S2_E12m_cacheSizes"
 "_ZGVZN5Eigen8internal4pexpIDv2_dEET_RKS3_E10p4i_1023_0"
 "_ZGVZN5boost16exception_detail27get_static_exception_objectINS0_10bad_alloc_EEENS_13exception_ptrEvE2ep"
 "_ZGVZN5boost16exception_detail27get_static_exception_objectINS0_14bad_exception_EEENS_13exception_ptrEvE2ep"
 "_ZGVZN5rstan8stan_fitIN34model_Exponential_expert_namespace24model_Exponential_expertEN5boost6random23additive_combine_engineINS4_26linear_congruential_engineIjLj40014ELj0ELj2147483563EEENS6_IjLj40692ELj0ELj2147483399EEEEEE12call_samplerEP7SEXPRECE8stop_sym"
 "_ZGVZN5rstan8stan_fitIN34model_Exponential_expert_namespace24model_Exponential_expertEN5boost6random23additive_combine_engineINS4_26linear_congruential_engineIjLj40014ELj0ELj2147483563EEENS6_IjLj40692ELj0ELj2147483399EEEEEE13grad_log_probEP7SEXPRECSC_E8stop_sym"
 "_ZGVZN5rstan8stan_fitIN34model_Exponential_expert_namespace24model_Exponential_expertEN5boost6random23additive_combine_engineINS4_26linear_congruential_engineIjLj40014ELj0ELj2147483563EEENS6_IjLj40692ELj0ELj2147483399EEEEEE13param_oi_tidxEP7SEXPRECE8stop_sym"
 "_ZGVZN5rstan8stan_fitIN34model_Exponential_expert_namespace24model_Exponential_expertEN5boost6random23additive_combine_engineINS4_26linear_congruential_engineIjLj40014ELj0ELj2147483563EEENS6_IjLj40692ELj0ELj2147483399EEEEEE14constrain_parsEP7SEXPRECE8stop_sym"
 "_ZGVZN5rstan8stan_fitIN34model_Exponential_expert_namespace24model_Exponential_expertEN5boost6random23additive_combine_engineINS4_26linear_congruential_engineIjLj40014ELj0ELj2147483563EEENS6_IjLj40692ELj0ELj2147483399EEEEEE14standalone_gqsEP7SEXPRECSC_E8stop_sym"
 "_ZGVZN5rstan8stan_fitIN34model_Exponential_expert_namespace24model_Exponential_expertEN5boost6random23additive_combine_engineINS4_26linear_congruential_engineIjLj40014ELj0ELj2147483563EEENS6_IjLj40692ELj0ELj2147483399EEEEEE16unconstrain_parsEP7SEXPRECE8stop_sym"
 "_ZGVZN5rstan8stan_fitIN34model_Exponential_expert_namespace24model_Exponential_expertEN5boost6random23additive_combine_engineINS4_26linear_congruential_engineIjLj40014ELj0ELj2147483563EEENS6_IjLj40692ELj0ELj2147483399EEEEEE22num_pars_unconstrainedEvE8stop_sym"
 "_ZGVZN5rstan8stan_fitIN34model_Exponential_expert_namespace24model_Exponential_expertEN5boost6random23additive_combine_engineINS4_26linear_congruential_engineIjLj40014ELj0ELj2147483563EEENS6_IjLj40692ELj0ELj2147483399EEEEEE23constrained_param_namesEP7SEXPRECSC_E8stop_sym"
 "_ZGVZN5rstan8stan_fitIN34model_Exponential_expert_namespace24model_Exponential_expertEN5boost6random23additive_combine_engineINS4_26linear_congruential_engineIjLj40014ELj0ELj2147483563EEENS6_IjLj40692ELj0ELj2147483399EEEEEE25unconstrained_param_namesEP7SEXPRECSC_E8stop_sym"
 "_ZGVZN5rstan8stan_fitIN34model_Exponential_expert_namespace24model_Exponential_expertEN5boost6random23additive_combine_engineINS4_26linear_congruential_engineIjLj40014ELj0ELj2147483563EEENS6_IjLj40692ELj0ELj2147483399EEEEEE8log_probEP7SEXPRECSC_SC_E8stop_sym"
 "_ZGVZNK4stan11variational15normal_fullrank7entropyEvE4mult"
 "_ZGVZNK5rstan8stan_fitIN34model_Exponential_expert_namespace24model_Exponential_expertEN5boost6random23additive_combine_engineINS4_26linear_congruential_engineIjLj40014ELj0ELj2147483563EEENS6_IjLj40692ELj0ELj2147483399EEEEEE10param_dimsEvE8stop_sym"
 "_ZGVZNK5rstan8stan_fitIN34model_Exponential_expert_namespace24model_Exponential_expertEN5boost6random23additive_combine_engineINS4_26linear_congruential_engineIjLj40014ELj0ELj2147483563EEENS6_IjLj40692ELj0ELj2147483399EEEEEE11param_namesEvE8stop_sym"
 "_ZGVZNK5rstan8stan_fitIN34model_Exponential_expert_namespace24model_Exponential_expertEN5boost6random23additive_combine_engineINS4_26linear_congruential_engineIjLj40014ELj0ELj2147483563EEENS6_IjLj40692ELj0ELj2147483399EEEEEE13param_dims_oiEvE8stop_sym"
 "_ZGVZNK5rstan8stan_fitIN34model_Exponential_expert_namespace24model_Exponential_expertEN5boost6random23additive_combine_engineINS4_26linear_congruential_engineIjLj40014ELj0ELj2147483563EEENS6_IjLj40692ELj0ELj2147483399EEEEEE14param_names_oiEvE8stop_sym"
 "_ZGVZNK5rstan8stan_fitIN34model_Exponential_expert_namespace24model_Exponential_expertEN5boost6random23additive_combine_engineINS4_26linear_congruential_engineIjLj40014ELj0ELj2147483563EEENS6_IjLj40692ELj0ELj2147483399EEEEEE15param_fnames_oiEvE8stop_sym"
 "_ZN10tinyformat6detail10formatImplERSoPKcPKNS0_9FormatArgEi"
 "_ZN10tinyformat6detail15formatTruncatedINSt7__cxx1112basic_stringIcSt11char_traitsIcESaIcEEEEEvRSoRKT_i"
 "_ZN10tinyformat6detail15formatTruncatedIiEEvRSoRKT_i"
 "_ZN10tinyformat6detail21streamStateFromFormatERSoRbRiPKcPKNS0_9FormatArgES3_i"
 "_ZN10tinyformat6detail9FormatArg10formatImplINSt7__cxx1112basic_stringIcSt11char_traitsIcESaIcEEEEEvRSoPKcSB_iPKv"
 "_ZN10tinyformat6detail9FormatArg10formatImplIPKcEEvRSoS4_S4_iPKv"
 "_ZN10tinyformat6detail9FormatArg10formatImplIiEEvRSoPKcS5_iPKv"
 "_ZN10tinyformat6detail9FormatArg9toIntImplINSt7__cxx1112basic_stringIcSt11char_traitsIcESaIcEEEEEiPKv"
 "_ZN10tinyformat6detail9FormatArg9toIntImplIPKcEEiPKv"
 "_ZN10tinyformat6detail9FormatArg9toIntImplIiEEiPKv"
 "_ZN10tinyformat6formatIJEEENSt7__cxx1112basic_stringIcSt11char_traitsIcESaIcEEEPKcDpRKT_"
 "_ZN10tinyformat6formatIJNSt7__cxx1112basic_stringIcSt11char_traitsIcESaIcEEEEEES6_PKcDpRKT_"
 "_ZN10tinyformat6formatIJPKcEEENSt7__cxx1112basic_stringIcSt11char_traitsIcESaIcEEES2_DpRKT_"
 "_ZN10tinyformat6formatIJPKcS2_EEENSt7__cxx1112basic_stringIcSt11char_traitsIcESaIcEEES2_DpRKT_"
 "_ZN10tinyformat6formatIJPKciEEENSt7__cxx1112basic_stringIcSt11char_traitsIcESaIcEEES2_DpRKT_"
 "_ZN10tinyformat6formatIJiEEENSt7__cxx1112basic_stringIcSt11char_traitsIcESaIcEEEPKcDpRKT_"
 "_ZN34model_Exponential_expert_namespace13prog_reader__Ev"
 "_ZN34model_Exponential_expert_namespace16log_density_distIdN4stan4math3varEEEN5boost4math5tools12promote_argsIT_T0_ffffE4typeERKSt6vectorISC_IS8_SaIS8_EESaISE_EERKS9_RKiSM_PSo"
 "_ZN34model_Exponential_expert_namespace16log_density_distIddEEN5boost4math5tools12promote_argsIT_T0_ffffE4typeERKSt6vectorIS9_IS5_SaIS5_EESaISB_EERKS6_RKiSJ_PSo"
 "_ZN34model_Exponential_expert_namespace21surv_exponential_lpdfILb0EddN4stan4math3varEdEEN5boost4math5tools12promote_argsIT0_T1_T2_T3_ffE4typeERKN5Eigen6MatrixIS8_Lin1ELi1ELi0ELin1ELi1EEERKNSF_IS9_Lin1ELi1ELi0ELin1ELi1EEERKNSF_ISA_Lin1ELi1ELi0ELin1ELi1EEERKNSF_ISB_Lin1ELi1ELi0ELin1ELi1EEEPSo"
 "_ZN34model_Exponential_expert_namespace21surv_exponential_lpdfILb0EddddEEN5boost4math5tools12promote_argsIT0_T1_T2_T3_ffE4typeERKN5Eigen6MatrixIS5_Lin1ELi1ELi0ELin1ELi1EEERKNSC_IS6_Lin1ELi1ELi0ELin1ELi1EEERKNSC_IS7_Lin1ELi1ELi0ELin1ELi1EEERKNSC_IS8_Lin1ELi1ELi0ELin1ELi1EEEPSo"
 "_ZN34model_Exponential_expert_namespace21surv_exponential_lpdfILb1EddN4stan4math3varEdEEN5boost4math5tools12promote_argsIT0_T1_T2_T3_ffE4typeERKN5Eigen6MatrixIS8_Lin1ELi1ELi0ELin1ELi1EEERKNSF_IS9_Lin1ELi1ELi0ELin1ELi1EEERKNSF_ISA_Lin1ELi1ELi0ELin1ELi1EEERKNSF_ISB_Lin1ELi1ELi0ELin1ELi1EEEPSo"
 "_ZN34model_Exponential_expert_namespace21surv_exponential_lpdfILb1EddddEEN5boost4math5tools12promote_argsIT0_T1_T2_T3_ffE4typeERKN5Eigen6MatrixIS5_Lin1ELi1ELi0ELin1ELi1EEERKNSC_IS6_Lin1ELi1ELi0ELin1ELi1EEERKNSC_IS7_Lin1ELi1ELi0ELin1ELi1EEERKNSC_IS8_Lin1ELi1ELi0ELin1ELi1EEEPSo"
 "_ZN34model_Exponential_expert_namespace24model_Exponential_expert9ctor_bodyERN4stan2io11var_contextEjPSo"
 "_ZN34model_Exponential_expert_namespace24model_Exponential_expertD0Ev"
 "_ZN34model_Exponential_expert_namespace24model_Exponential_expertD1Ev"
 "_ZN34model_Exponential_expert_namespace5log_SIdN4stan4math3varEEEN5Eigen6MatrixIN5boost4math5tools12promote_argsIT_T0_ffffE4typeELin1ELi1ELi0ELin1ELi1EEERKNS5_ISA_Lin1ELi1ELi0ELin1ELi1EEERKNS5_ISB_Lin1ELi1ELi0ELin1ELi1EEEPSo"
 "_ZN34model_Exponential_expert_namespace5log_SIddEEN5Eigen6MatrixIN5boost4math5tools12promote_argsIT_T0_ffffE4typeELin1ELi1ELi0ELin1ELi1EEERKNS2_IS7_Lin1ELi1ELi0ELin1ELi1EEERKNS2_IS8_Lin1ELi1ELi0ELin1ELi1EEEPSo"
 "_ZN34model_Exponential_expert_namespace5log_hIdN4stan4math3varEEEN5Eigen6MatrixIN5boost4math5tools12promote_argsIT_T0_ffffE4typeELin1ELi1ELi0ELin1ELi1EEERKNS5_ISA_Lin1ELi1ELi0ELin1ELi1EEERKNS5_ISB_Lin1ELi1ELi0ELin1ELi1EEEPSo"
 "_ZN34model_Exponential_expert_namespace5log_hIddEEN5Eigen6MatrixIN5boost4math5tools12promote_argsIT_T0_ffffE4typeELin1ELi1ELi0ELin1ELi1EEERKNS2_IS7_Lin1ELi1ELi0ELin1ELi1EEERKNS2_IS8_Lin1ELi1ELi0ELin1ELi1EEEPSo"
 "_ZN34model_Exponential_expert_namespace8log_SindIdN4stan4math3varEEEN5boost4math5tools12promote_argsIT_T0_ffffE4typeERKS8_RKS9_PSo"
 "_ZN34model_Exponential_expert_namespace9Surv_diffIN4stan4math3varES3_EEN5boost4math5tools12promote_argsIT_T0_ffffE4typeERKS8_RKS9_PSo"
 "_ZN3tbb10interface623task_scheduler_observerD0Ev"
 "_ZN3tbb10interface623task_scheduler_observerD1Ev"
 "_ZN3tbb8internal26task_scheduler_observer_v317on_scheduler_exitEb"
 "_ZN3tbb8internal26task_scheduler_observer_v318on_scheduler_entryEb"
 "_ZN3tbb8internal26task_scheduler_observer_v3D0Ev"
 "_ZN3tbb8internal26task_scheduler_observer_v3D1Ev"
 "_ZN4Rcpp10CppMethod0IN5rstan8stan_fitIN34model_Exponential_expert_namespace24model_Exponential_expertEN5boost6random23additive_combine_engineINS6_26linear_congruential_engineIjLj40014ELj0ELj2147483563EEENS8_IjLj40692ELj0ELj2147483399EEEEEEEP7SEXPRECE5nargsEv"
 "_ZN4Rcpp10CppMethod0IN5rstan8stan_fitIN34model_Exponential_expert_namespace24model_Exponential_expertEN5boost6random23additive_combine_engineINS6_26linear_congruential_engineIjLj40014ELj0ELj2147483563EEENS8_IjLj40692ELj0ELj2147483399EEEEEEEP7SEXPRECE7is_voidEv"
 "_ZN4Rcpp10CppMethod0IN5rstan8stan_fitIN34model_Exponential_expert_namespace24model_Exponential_expertEN5boost6random23additive_combine_engineINS6_26linear_congruential_engineIjLj40014ELj0ELj2147483563EEENS8_IjLj40692ELj0ELj2147483399EEEEEEEP7SEXPRECE8is_constEv"
 "_ZN4Rcpp10CppMethod0IN5rstan8stan_fitIN34model_Exponential_expert_namespace24model_Exponential_expertEN5boost6random23additive_combine_engineINS6_26linear_congruential_engineIjLj40014ELj0ELj2147483563EEENS8_IjLj40692ELj0ELj2147483399EEEEEEEP7SEXPRECE9signatureERNSt7__cxx1112basic_stringIcSt11char_traitsIcESaIcEEEPKc"
 "_ZN4Rcpp10CppMethod0IN5rstan8stan_fitIN34model_Exponential_expert_namespace24model_Exponential_expertEN5boost6random23additive_combine_engineINS6_26linear_congruential_engineIjLj40014ELj0ELj2147483563EEENS8_IjLj40692ELj0ELj2147483399EEEEEEEP7SEXPRECED0Ev"
 "_ZN4Rcpp10CppMethod0IN5rstan8stan_fitIN34model_Exponential_expert_namespace24model_Exponential_expertEN5boost6random23additive_combine_engineINS6_26linear_congruential_engineIjLj40014ELj0ELj2147483563EEENS8_IjLj40692ELj0ELj2147483399EEEEEEEP7SEXPRECED1Ev"
 "_ZN4Rcpp10CppMethod0IN5rstan8stan_fitIN34model_Exponential_expert_namespace24model_Exponential_expertEN5boost6random23additive_combine_engineINS6_26linear_congruential_engineIjLj40014ELj0ELj2147483563EEENS8_IjLj40692ELj0ELj2147483399EEEEEEEP7SEXPRECEclEPSC_PSE_"
 "_ZN4Rcpp10CppMethod1IN5rstan8stan_fitIN34model_Exponential_expert_namespace24model_Exponential_expertEN5boost6random23additive_combine_engineINS6_26linear_congruential_engineIjLj40014ELj0ELj2147483563EEENS8_IjLj40692ELj0ELj2147483399EEEEEEEP7SEXPRECSE_E5nargsEv"
 "_ZN4Rcpp10CppMethod1IN5rstan8stan_fitIN34model_Exponential_expert_namespace24model_Exponential_expertEN5boost6random23additive_combine_engineINS6_26linear_congruential_engineIjLj40014ELj0ELj2147483563EEENS8_IjLj40692ELj0ELj2147483399EEEEEEEP7SEXPRECSE_E7is_voidEv"
 "_ZN4Rcpp10CppMethod1IN5rstan8stan_fitIN34model_Exponential_expert_namespace24model_Exponential_expertEN5boost6random23additive_combine_engineINS6_26linear_congruential_engineIjLj40014ELj0ELj2147483563EEENS8_IjLj40692ELj0ELj2147483399EEEEEEEP7SEXPRECSE_E8is_constEv"
 "_ZN4Rcpp10CppMethod1IN5rstan8stan_fitIN34model_Exponential_expert_namespace24model_Exponential_expertEN5boost6random23additive_combine_engineINS6_26linear_congruential_engineIjLj40014ELj0ELj2147483563EEENS8_IjLj40692ELj0ELj2147483399EEEEEEEP7SEXPRECSE_E9signatureERNSt7__cxx1112basic_stringIcSt11char_traitsIcESaIcEEEPKc"
 "_ZN4Rcpp10CppMethod1IN5rstan8stan_fitIN34model_Exponential_expert_namespace24model_Exponential_expertEN5boost6random23additive_combine_engineINS6_26linear_congruential_engineIjLj40014ELj0ELj2147483563EEENS8_IjLj40692ELj0ELj2147483399EEEEEEEP7SEXPRECSE_ED0Ev"
 "_ZN4Rcpp10CppMethod1IN5rstan8stan_fitIN34model_Exponential_expert_namespace24model_Exponential_expertEN5boost6random23additive_combine_engineINS6_26linear_congruential_engineIjLj40014ELj0ELj2147483563EEENS8_IjLj40692ELj0ELj2147483399EEEEEEEP7SEXPRECSE_ED1Ev"
 "_ZN4Rcpp10CppMethod1IN5rstan8stan_fitIN34model_Exponential_expert_namespace24model_Exponential_expertEN5boost6random23additive_combine_engineINS6_26linear_congruential_engineIjLj40014ELj0ELj2147483563EEENS8_IjLj40692ELj0ELj2147483399EEEEEEEP7SEXPRECSE_EclEPSC_PSE_"
 "_ZN4Rcpp10CppMethod2IN5rstan8stan_fitIN34model_Exponential_expert_namespace24model_Exponential_expertEN5boost6random23additive_combine_engineINS6_26linear_congruential_engineIjLj40014ELj0ELj2147483563EEENS8_IjLj40692ELj0ELj2147483399EEEEEEEP7SEXPRECSE_SE_E5nargsEv"
 "_ZN4Rcpp10CppMethod2IN5rstan8stan_fitIN34model_Exponential_expert_namespace24model_Exponential_expertEN5boost6random23additive_combine_engineINS6_26linear_congruential_engineIjLj40014ELj0ELj2147483563EEENS8_IjLj40692ELj0ELj2147483399EEEEEEEP7SEXPRECSE_SE_E7is_voidEv"
 "_ZN4Rcpp10CppMethod2IN5rstan8stan_fitIN34model_Exponential_expert_namespace24model_Exponential_expertEN5boost6random23additive_combine_engineINS6_26linear_congruential_engineIjLj40014ELj0ELj2147483563EEENS8_IjLj40692ELj0ELj2147483399EEEEEEEP7SEXPRECSE_SE_E8is_constEv"
 "_ZN4Rcpp10CppMethod2IN5rstan8stan_fitIN34model_Exponential_expert_namespace24model_Exponential_expertEN5boost6random23additive_combine_engineINS6_26linear_congruential_engineIjLj40014ELj0ELj2147483563EEENS8_IjLj40692ELj0ELj2147483399EEEEEEEP7SEXPRECSE_SE_E9signatureERNSt7__cxx1112basic_stringIcSt11char_traitsIcESaIcEEEPKc"
 "_ZN4Rcpp10CppMethod2IN5rstan8stan_fitIN34model_Exponential_expert_namespace24model_Exponential_expertEN5boost6random23additive_combine_engineINS6_26linear_congruential_engineIjLj40014ELj0ELj2147483563EEENS8_IjLj40692ELj0ELj2147483399EEEEEEEP7SEXPRECSE_SE_ED0Ev"
 "_ZN4Rcpp10CppMethod2IN5rstan8stan_fitIN34model_Exponential_expert_namespace24model_Exponential_expertEN5boost6random23additive_combine_engineINS6_26linear_congruential_engineIjLj40014ELj0ELj2147483563EEENS8_IjLj40692ELj0ELj2147483399EEEEEEEP7SEXPRECSE_SE_ED1Ev"
 "_ZN4Rcpp10CppMethod2IN5rstan8stan_fitIN34model_Exponential_expert_namespace24model_Exponential_expertEN5boost6random23additive_combine_engineINS6_26linear_congruential_engineIjLj40014ELj0ELj2147483563EEENS8_IjLj40692ELj0ELj2147483399EEEEEEEP7SEXPRECSE_SE_EclEPSC_PSE_"
 "_ZN4Rcpp10CppMethod3IN5rstan8stan_fitIN34model_Exponential_expert_namespace24model_Exponential_expertEN5boost6random23additive_combine_engineINS6_26linear_congruential_engineIjLj40014ELj0ELj2147483563EEENS8_IjLj40692ELj0ELj2147483399EEEEEEEP7SEXPRECSE_SE_SE_E5nargsEv"
 "_ZN4Rcpp10CppMethod3IN5rstan8stan_fitIN34model_Exponential_expert_namespace24model_Exponential_expertEN5boost6random23additive_combine_engineINS6_26linear_congruential_engineIjLj40014ELj0ELj2147483563EEENS8_IjLj40692ELj0ELj2147483399EEEEEEEP7SEXPRECSE_SE_SE_E7is_voidEv"
 "_ZN4Rcpp10CppMethod3IN5rstan8stan_fitIN34model_Exponential_expert_namespace24model_Exponential_expertEN5boost6random23additive_combine_engineINS6_26linear_congruential_engineIjLj40014ELj0ELj2147483563EEENS8_IjLj40692ELj0ELj2147483399EEEEEEEP7SEXPRECSE_SE_SE_E8is_constEv"
 "_ZN4Rcpp10CppMethod3IN5rstan8stan_fitIN34model_Exponential_expert_namespace24model_Exponential_expertEN5boost6random23additive_combine_engineINS6_26linear_congruential_engineIjLj40014ELj0ELj2147483563EEENS8_IjLj40692ELj0ELj2147483399EEEEEEEP7SEXPRECSE_SE_SE_E9signatureERNSt7__cxx1112basic_stringIcSt11char_traitsIcESaIcEEEPKc"
 "_ZN4Rcpp10CppMethod3IN5rstan8stan_fitIN34model_Exponential_expert_namespace24model_Exponential_expertEN5boost6random23additive_combine_engineINS6_26linear_congruential_engineIjLj40014ELj0ELj2147483563EEENS8_IjLj40692ELj0ELj2147483399EEEEEEEP7SEXPRECSE_SE_SE_ED0Ev"
 "_ZN4Rcpp10CppMethod3IN5rstan8stan_fitIN34model_Exponential_expert_namespace24model_Exponential_expertEN5boost6random23additive_combine_engineINS6_26linear_congruential_engineIjLj40014ELj0ELj2147483563EEENS8_IjLj40692ELj0ELj2147483399EEEEEEEP7SEXPRECSE_SE_SE_ED1Ev"
 "_ZN4Rcpp10CppMethod3IN5rstan8stan_fitIN34model_Exponential_expert_namespace24model_Exponential_expertEN5boost6random23additive_combine_engineINS6_26linear_congruential_engineIjLj40014ELj0ELj2147483563EEENS8_IjLj40692ELj0ELj2147483399EEEEEEEP7SEXPRECSE_SE_SE_EclEPSC_PSE_"
 "_ZN4Rcpp10RstreambufILb0EE4syncEv"
 "_ZN4Rcpp10RstreambufILb0EE6xsputnEPKcx"
 "_ZN4Rcpp10RstreambufILb0EE8overflowEi"
 "_ZN4Rcpp10RstreambufILb0EED0Ev"
 "_ZN4Rcpp10RstreambufILb0EED1Ev"
 "_ZN4Rcpp10RstreambufILb1EE4syncEv"
 "_ZN4Rcpp10RstreambufILb1EE6xsputnEPKcx"
 "_ZN4Rcpp10RstreambufILb1EE8overflowEi"
 "_ZN4Rcpp10RstreambufILb1EED0Ev"
 "_ZN4Rcpp10RstreambufILb1EED1Ev"
 "_ZN4Rcpp10class_Base10getMethodsERKNS_4XPtrIS0_NS_15PreserveStorageEXadL_ZNS_25standard_delete_finalizerIS0_EEvPT_EELb0EEERNSt7__cxx1112basic_stringIcSt11char_traitsIcESaIcEEE"
 "_ZN4Rcpp10class_Base10has_methodERKNSt7__cxx1112basic_stringIcSt11char_traitsIcESaIcEEE"
 "_ZN4Rcpp10class_Base11getPropertyEP7SEXPRECS2_"
 "_ZN4Rcpp10class_Base11invoke_voidEP7SEXPRECS2_PS2_i"
 "_ZN4Rcpp10class_Base11newInstanceEPP7SEXPRECi"
 "_ZN4Rcpp10class_Base11setPropertyEP7SEXPRECS2_S2_"
 "_ZN4Rcpp10class_Base12has_propertyERKNSt7__cxx1112basic_stringIcSt11char_traitsIcESaIcEEE"
 "_ZN4Rcpp10class_Base12method_namesEv"
 "_ZN4Rcpp10class_Base13methods_arityEv"
 "_ZN4Rcpp10class_Base13run_finalizerEP7SEXPREC"
 "_ZN4Rcpp10class_Base14invoke_notvoidEP7SEXPRECS2_PS2_i"
 "_ZN4Rcpp10class_Base14property_classERKNSt7__cxx1112basic_stringIcSt11char_traitsIcESaIcEEE"
 "_ZN4Rcpp10class_Base14property_namesEv"
 "_ZN4Rcpp10class_Base15getConstructorsERKNS_4XPtrIS0_NS_15PreserveStorageEXadL_ZNS_25standard_delete_finalizerIS0_EEvPT_EELb0EEERNSt7__cxx1112basic_stringIcSt11char_traitsIcESaIcEEE"
 "_ZN4Rcpp10class_Base16methods_voidnessEv"
 "_ZN4Rcpp10class_Base16property_classesEv"
 "_ZN4Rcpp10class_Base17get_typeinfo_nameB5cxx11Ev"
 "_ZN4Rcpp10class_Base20property_is_readonlyERKNSt7__cxx1112basic_stringIcSt11char_traitsIcESaIcEEE"
 "_ZN4Rcpp10class_Base23has_default_constructorEv"
 "_ZN4Rcpp10class_Base6fieldsERKNS_4XPtrIS0_NS_15PreserveStorageEXadL_ZNS_25standard_delete_finalizerIS0_EEvPT_EELb0EEE"
 "_ZN4Rcpp10class_Base6invokeEP7SEXPRECS2_PS2_i"
 "_ZN4Rcpp10class_Base8completeEv"
 "_ZN4Rcpp10class_BaseD0Ev"
 "_ZN4Rcpp10class_BaseD1Ev"
 "_ZN4Rcpp10eval_errorD0Ev"
 "_ZN4Rcpp10eval_errorD1Ev"
 "_ZN4Rcpp11CppPropertyIN5rstan8stan_fitIN34model_Exponential_expert_namespace24model_Exponential_expertEN5boost6random23additive_combine_engineINS6_26linear_congruential_engineIjLj40014ELj0ELj2147483563EEENS8_IjLj40692ELj0ELj2147483399EEEEEEEE11is_readonlyEv"
 "_ZN4Rcpp11CppPropertyIN5rstan8stan_fitIN34model_Exponential_expert_namespace24model_Exponential_expertEN5boost6random23additive_combine_engineINS6_26linear_congruential_engineIjLj40014ELj0ELj2147483563EEENS8_IjLj40692ELj0ELj2147483399EEEEEEEE3getEPSC_"
 "_ZN4Rcpp11CppPropertyIN5rstan8stan_fitIN34model_Exponential_expert_namespace24model_Exponential_expertEN5boost6random23additive_combine_engineINS6_26linear_congruential_engineIjLj40014ELj0ELj2147483563EEENS8_IjLj40692ELj0ELj2147483399EEEEEEEE3setEPSC_P7SEXPREC"
 "_ZN4Rcpp11CppPropertyIN5rstan8stan_fitIN34model_Exponential_expert_namespace24model_Exponential_expertEN5boost6random23additive_combine_engineINS6_26linear_congruential_engineIjLj40014ELj0ELj2147483563EEENS8_IjLj40692ELj0ELj2147483399EEEEEEEE9get_classB5cxx11Ev"
 "_ZN4Rcpp11CppPropertyIN5rstan8stan_fitIN34model_Exponential_expert_namespace24model_Exponential_expertEN5boost6random23additive_combine_engineINS6_26linear_congruential_engineIjLj40014ELj0ELj2147483563EEENS8_IjLj40692ELj0ELj2147483399EEEEEEEED0Ev"
 "_ZN4Rcpp11CppPropertyIN5rstan8stan_fitIN34model_Exponential_expert_namespace24model_Exponential_expertEN5boost6random23additive_combine_engineINS6_26linear_congruential_engineIjLj40014ELj0ELj2147483563EEENS8_IjLj40692ELj0ELj2147483399EEEEEEEED1Ev"
 "_ZN4Rcpp12CppFinalizerIN5rstan8stan_fitIN34model_Exponential_expert_namespace24model_Exponential_expertEN5boost6random23additive_combine_engineINS6_26linear_congruential_engineIjLj40014ELj0ELj2147483563EEENS8_IjLj40692ELj0ELj2147483399EEEEEEEE3runEPSC_"
 "_ZN4Rcpp13Constructor_3IN5rstan8stan_fitIN34model_Exponential_expert_namespace24model_Exponential_expertEN5boost6random23additive_combine_engineINS6_26linear_congruential_engineIjLj40014ELj0ELj2147483563EEENS8_IjLj40692ELj0ELj2147483399EEEEEEEP7SEXPRECSE_SE_E5nargsEv"
 "_ZN4Rcpp13Constructor_3IN5rstan8stan_fitIN34model_Exponential_expert_namespace24model_Exponential_expertEN5boost6random23additive_combine_engineINS6_26linear_congruential_engineIjLj40014ELj0ELj2147483563EEENS8_IjLj40692ELj0ELj2147483399EEEEEEEP7SEXPRECSE_SE_E7get_newEPSE_i"
 "_ZN4Rcpp13Constructor_3IN5rstan8stan_fitIN34model_Exponential_expert_namespace24model_Exponential_expertEN5boost6random23additive_combine_engineINS6_26linear_congruential_engineIjLj40014ELj0ELj2147483563EEENS8_IjLj40692ELj0ELj2147483399EEEEEEEP7SEXPRECSE_SE_E9signatureERNSt7__cxx1112basic_stringIcSt11char_traitsIcESaIcEEERKSL_"
 "_ZN4Rcpp13not_referenceD0Ev"
 "_ZN4Rcpp13not_referenceD1Ev"
 "_ZN4Rcpp14Reference_ImplINS_15PreserveStorageEEC2ERKNSt7__cxx1112basic_stringIcSt11char_traitsIcESaIcEEE"
 "_ZN4Rcpp14not_compatibleC1IJPKcEEES3_DpOT_"
 "_ZN4Rcpp14not_compatibleC1IJPKcS3_EEES3_DpOT_"
 "_ZN4Rcpp14not_compatibleC1IJiEEEPKcDpOT_"
 "_ZN4Rcpp14not_compatibleD0Ev"
 "_ZN4Rcpp14not_compatibleD1Ev"
 "_ZN4Rcpp15PreserveStorageINS_6VectorILi19ES0_EEE5set__EP7SEXPREC"
 "_ZN4Rcpp16FieldProxyPolicyINS_14Reference_ImplINS_15PreserveStorageEEEE10FieldProxy3setEP7SEXPREC"
 "_ZN4Rcpp16FieldProxyPolicyINS_14Reference_ImplINS_15PreserveStorageEEEE10FieldProxyaSINS_4XPtrINS_10class_BaseES2_XadL_ZNS_25standard_delete_finalizerIS8_EEvPT_EELb0EEEEERS5_RKSA_"
 "_ZN4Rcpp16FieldProxyPolicyINS_14Reference_ImplINS_15PreserveStorageEEEE10FieldProxyaSINS_6VectorILi10ES2_EEEERS5_RKT_"
 "_ZN4Rcpp16FieldProxyPolicyINS_14Reference_ImplINS_15PreserveStorageEEEE10FieldProxyaSINS_6VectorILi16ES2_EEEERS5_RKT_"
 "_ZN4Rcpp16FieldProxyPolicyINS_14Reference_ImplINS_15PreserveStorageEEEE10FieldProxyaSINSt7__cxx1112basic_stringIcSt11char_traitsIcESaIcEEEEERS5_RKT_"
 "_ZN4Rcpp16FieldProxyPolicyINS_14Reference_ImplINS_15PreserveStorageEEEE10FieldProxyaSIiEERS5_RKT_"
 "_ZN4Rcpp16NamesProxyPolicyINS_6VectorILi19ENS_15PreserveStorageEEEE10NamesProxy3setEP7SEXPREC"
 "_ZN4Rcpp16NamesProxyPolicyINS_6VectorILi19ENS_15PreserveStorageEEEE10NamesProxyaSINS1_ILi16ES2_EEEERS5_RKT_"
 "_ZN4Rcpp16NamesProxyPolicyINS_6VectorILi19ENS_15PreserveStorageEEEE10NamesProxyaSISt6vectorINSt7__cxx1112basic_stringIcSt11char_traitsIcESaIcEEESaISD_EEEERS5_RKT_"
 "_ZN4Rcpp16const_CppMethod0IN5rstan8stan_fitIN34model_Exponential_expert_namespace24model_Exponential_expertEN5boost6random23additive_combine_engineINS6_26linear_congruential_engineIjLj40014ELj0ELj2147483563EEENS8_IjLj40692ELj0ELj2147483399EEEEEEEP7SEXPRECE5nargsEv"
 "_ZN4Rcpp16const_CppMethod0IN5rstan8stan_fitIN34model_Exponential_expert_namespace24model_Exponential_expertEN5boost6random23additive_combine_engineINS6_26linear_congruential_engineIjLj40014ELj0ELj2147483563EEENS8_IjLj40692ELj0ELj2147483399EEEEEEEP7SEXPRECE7is_voidEv"
 "_ZN4Rcpp16const_CppMethod0IN5rstan8stan_fitIN34model_Exponential_expert_namespace24model_Exponential_expertEN5boost6random23additive_combine_engineINS6_26linear_congruential_engineIjLj40014ELj0ELj2147483563EEENS8_IjLj40692ELj0ELj2147483399EEEEEEEP7SEXPRECE8is_constEv"
 "_ZN4Rcpp16const_CppMethod0IN5rstan8stan_fitIN34model_Exponential_expert_namespace24model_Exponential_expertEN5boost6random23additive_combine_engineINS6_26linear_congruential_engineIjLj40014ELj0ELj2147483563EEENS8_IjLj40692ELj0ELj2147483399EEEEEEEP7SEXPRECE9signatureERNSt7__cxx1112basic_stringIcSt11char_traitsIcESaIcEEEPKc"
 "_ZN4Rcpp16const_CppMethod0IN5rstan8stan_fitIN34model_Exponential_expert_namespace24model_Exponential_expertEN5boost6random23additive_combine_engineINS6_26linear_congruential_engineIjLj40014ELj0ELj2147483563EEENS8_IjLj40692ELj0ELj2147483399EEEEEEEP7SEXPRECED0Ev"
 "_ZN4Rcpp16const_CppMethod0IN5rstan8stan_fitIN34model_Exponential_expert_namespace24model_Exponential_expertEN5boost6random23additive_combine_engineINS6_26linear_congruential_engineIjLj40014ELj0ELj2147483563EEENS8_IjLj40692ELj0ELj2147483399EEEEEEEP7SEXPRECED1Ev"
 "_ZN4Rcpp16const_CppMethod0IN5rstan8stan_fitIN34model_Exponential_expert_namespace24model_Exponential_expertEN5boost6random23additive_combine_engineINS6_26linear_congruential_engineIjLj40014ELj0ELj2147483563EEENS8_IjLj40692ELj0ELj2147483399EEEEEEEP7SEXPRECEclEPSC_PSE_"
 "_ZN4Rcpp17S4_CppConstructorIN5rstan8stan_fitIN34model_Exponential_expert_namespace24model_Exponential_expertEN5boost6random23additive_combine_engineINS6_26linear_congruential_engineIjLj40014ELj0ELj2147483563EEENS8_IjLj40692ELj0ELj2147483399EEEEEEEEC1EPNS_17SignedConstructorISC_EERKNS_4XPtrINS_10class_BaseENS_15PreserveStorageEXadL_ZNS_25standard_delete_finalizerISI_EEvPT_EELb0EEERKNSt7__cxx1112basic_stringIcSt11char_traitsIcESaIcEEERSV_"
 "_ZN4Rcpp17finalizer_wrapperIN5rstan8stan_fitIN34model_Exponential_expert_namespace24model_Exponential_expertEN5boost6random23additive_combine_engineINS6_26linear_congruential_engineIjLj40014ELj0ELj2147483563EEENS8_IjLj40692ELj0ELj2147483399EEEEEEEXadL_ZNS_25standard_delete_finalizerISC_EEvPT_EEEEvP7SEXPREC"
 "_ZN4Rcpp17finalizer_wrapperINS_11CppPropertyIN5rstan8stan_fitIN34model_Exponential_expert_namespace24model_Exponential_expertEN5boost6random23additive_combine_engineINS7_26linear_congruential_engineIjLj40014ELj0ELj2147483563EEENS9_IjLj40692ELj0ELj2147483399EEEEEEEEEXadL_ZNS_25standard_delete_finalizerISE_EEvPT_EEEEvP7SEXPREC"
 "_ZN4Rcpp17finalizer_wrapperINS_17SignedConstructorIN5rstan8stan_fitIN34model_Exponential_expert_namespace24model_Exponential_expertEN5boost6random23additive_combine_engineINS7_26linear_congruential_engineIjLj40014ELj0ELj2147483563EEENS9_IjLj40692ELj0ELj2147483399EEEEEEEEEXadL_ZNS_25standard_delete_finalizerISE_EEvPT_EEEEvP7SEXPREC"
 "_ZN4Rcpp17finalizer_wrapperINS_6ModuleEXadL_ZNS_25standard_delete_finalizerIS1_EEvPT_EEEEvP7SEXPREC"
 "_ZN4Rcpp17finalizer_wrapperISt6vectorIPNS_12SignedMethodIN5rstan8stan_fitIN34model_Exponential_expert_namespace24model_Exponential_expertEN5boost6random23additive_combine_engineINS8_26linear_congruential_engineIjLj40014ELj0ELj2147483563EEENSA_IjLj40692ELj0ELj2147483399EEEEEEEEESaISG_EEXadL_ZNS_25standard_delete_finalizerISI_EEvPT_EEEEvP7SEXPREC"
 "_ZN4Rcpp19index_out_of_boundsD0Ev"
 "_ZN4Rcpp19index_out_of_boundsD1Ev"
 "_ZN4Rcpp20AttributeProxyPolicyINS_6VectorILi19ENS_15PreserveStorageEEEE14AttributeProxy3setEP7SEXPREC"
 "_ZN4Rcpp20AttributeProxyPolicyINS_6VectorILi19ENS_15PreserveStorageEEEE14AttributeProxyaSISt6vectorIdSaIdEEEERS5_RKT_"
 "_ZN4Rcpp20Rcpp_precious_removeEP7SEXPREC"
 "_ZN4Rcpp22Rcpp_precious_preserveEP7SEXPREC"
 "_ZN4Rcpp23S4_CppOverloadedMethodsIN5rstan8stan_fitIN34model_Exponential_expert_namespace24model_Exponential_expertEN5boost6random23additive_combine_engineINS6_26linear_congruential_engineIjLj40014ELj0ELj2147483563EEENS8_IjLj40692ELj0ELj2147483399EEEEEEEEC1EPSt6vectorIPNS_12SignedMethodISC_EESaISH_EERKNS_4XPtrINS_10class_BaseENS_15PreserveStorageEXadL_ZNS_25standard_delete_finalizerISM_EEvPT_EELb0EEEPKcRNSt7__cxx1112basic_stringIcSt11char_traitsIcESaIcEEE"
 "_ZN4Rcpp3yesEPP7SEXPRECi"
 "_ZN4Rcpp4XPtrIN5rstan8stan_fitIN34model_Exponential_expert_namespace24model_Exponential_expertEN5boost6random23additive_combine_engineINS6_26linear_congruential_engineIjLj40014ELj0ELj2147483563EEENS8_IjLj40692ELj0ELj2147483399EEEEEEENS_15PreserveStorageEXadL_ZNS_25standard_delete_finalizerISC_EEvPT_EELb0EEC1EP7SEXPREC"
 "_ZN4Rcpp4stopERKNSt7__cxx1112basic_stringIcSt11char_traitsIcESaIcEEE"
 "_ZN4Rcpp4stopIJEEEvPKcDpOT_"
 "_ZN4Rcpp6VectorILi14ENS_15PreserveStorageEE16create__dispatchINS_6traits12named_objectIdEES6_EES2_NS4_17integral_constantIbLb1EEERKT_RKT0_"
 "_ZN4Rcpp6VectorILi14ENS_15PreserveStorageEEC1EP7SEXPREC"
 "_ZN4Rcpp6VectorILi19ENS_15PreserveStorageEEC1EP7SEXPREC"
 "_ZN4Rcpp6VectorILi19ENS_15PreserveStorageEEC1IN9__gnu_cxx17__normal_iteratorIPKNS0_ILi14ES1_EESt6vectorIS6_SaIS6_EEEEEET_SD_"
 "_ZN4Rcpp6class_IN5rstan8stan_fitIN34model_Exponential_expert_namespace24model_Exponential_expertEN5boost6random23additive_combine_engineINS6_26linear_congruential_engineIjLj40014ELj0ELj2147483563EEENS8_IjLj40692ELj0ELj2147483399EEEEEEEE10getMethodsERKNS_4XPtrINS_10class_BaseENS_15PreserveStorageEXadL_ZNS_25standard_delete_finalizerISF_EEvPT_EELb0EEERNSt7__cxx1112basic_stringIcSt11char_traitsIcESaIcEEE"
 "_ZN4Rcpp6class_IN5rstan8stan_fitIN34model_Exponential_expert_namespace24model_Exponential_expertEN5boost6random23additive_combine_engineINS6_26linear_congruential_engineIjLj40014ELj0ELj2147483563EEENS8_IjLj40692ELj0ELj2147483399EEEEEEEE10has_methodERKNSt7__cxx1112basic_stringIcSt11char_traitsIcESaIcEEE"
 "_ZN4Rcpp6class_IN5rstan8stan_fitIN34model_Exponential_expert_namespace24model_Exponential_expertEN5boost6random23additive_combine_engineINS6_26linear_congruential_engineIjLj40014ELj0ELj2147483563EEENS8_IjLj40692ELj0ELj2147483399EEEEEEEE11getPropertyEP7SEXPRECSF_"
 "_ZN4Rcpp6class_IN5rstan8stan_fitIN34model_Exponential_expert_namespace24model_Exponential_expertEN5boost6random23additive_combine_engineINS6_26linear_congruential_engineIjLj40014ELj0ELj2147483563EEENS8_IjLj40692ELj0ELj2147483399EEEEEEEE11invoke_voidEP7SEXPRECSF_PSF_i"
 "_ZN4Rcpp6class_IN5rstan8stan_fitIN34model_Exponential_expert_namespace24model_Exponential_expertEN5boost6random23additive_combine_engineINS6_26linear_congruential_engineIjLj40014ELj0ELj2147483563EEENS8_IjLj40692ELj0ELj2147483399EEEEEEEE11newInstanceEPP7SEXPRECi"
 "_ZN4Rcpp6class_IN5rstan8stan_fitIN34model_Exponential_expert_namespace24model_Exponential_expertEN5boost6random23additive_combine_engineINS6_26linear_congruential_engineIjLj40014ELj0ELj2147483563EEENS8_IjLj40692ELj0ELj2147483399EEEEEEEE11setPropertyEP7SEXPRECSF_SF_"
 "_ZN4Rcpp6class_IN5rstan8stan_fitIN34model_Exponential_expert_namespace24model_Exponential_expertEN5boost6random23additive_combine_engineINS6_26linear_congruential_engineIjLj40014ELj0ELj2147483563EEENS8_IjLj40692ELj0ELj2147483399EEEEEEEE12get_instanceEv"
 "_ZN4Rcpp6class_IN5rstan8stan_fitIN34model_Exponential_expert_namespace24model_Exponential_expertEN5boost6random23additive_combine_engineINS6_26linear_congruential_engineIjLj40014ELj0ELj2147483563EEENS8_IjLj40692ELj0ELj2147483399EEEEEEEE12has_propertyERKNSt7__cxx1112basic_stringIcSt11char_traitsIcESaIcEEE"
 "_ZN4Rcpp6class_IN5rstan8stan_fitIN34model_Exponential_expert_namespace24model_Exponential_expertEN5boost6random23additive_combine_engineINS6_26linear_congruential_engineIjLj40014ELj0ELj2147483563EEENS8_IjLj40692ELj0ELj2147483399EEEEEEEE12method_namesEv"
 "_ZN4Rcpp6class_IN5rstan8stan_fitIN34model_Exponential_expert_namespace24model_Exponential_expertEN5boost6random23additive_combine_engineINS6_26linear_congruential_engineIjLj40014ELj0ELj2147483563EEENS8_IjLj40692ELj0ELj2147483399EEEEEEEE13methods_arityEv"
 "_ZN4Rcpp6class_IN5rstan8stan_fitIN34model_Exponential_expert_namespace24model_Exponential_expertEN5boost6random23additive_combine_engineINS6_26linear_congruential_engineIjLj40014ELj0ELj2147483563EEENS8_IjLj40692ELj0ELj2147483399EEEEEEEE13run_finalizerEP7SEXPREC"
 "_ZN4Rcpp6class_IN5rstan8stan_fitIN34model_Exponential_expert_namespace24model_Exponential_expertEN5boost6random23additive_combine_engineINS6_26linear_congruential_engineIjLj40014ELj0ELj2147483563EEENS8_IjLj40692ELj0ELj2147483399EEEEEEEE14invoke_notvoidEP7SEXPRECSF_PSF_i"
 "_ZN4Rcpp6class_IN5rstan8stan_fitIN34model_Exponential_expert_namespace24model_Exponential_expertEN5boost6random23additive_combine_engineINS6_26linear_congruential_engineIjLj40014ELj0ELj2147483563EEENS8_IjLj40692ELj0ELj2147483399EEEEEEEE14property_classERKNSt7__cxx1112basic_stringIcSt11char_traitsIcESaIcEEE"
 "_ZN4Rcpp6class_IN5rstan8stan_fitIN34model_Exponential_expert_namespace24model_Exponential_expertEN5boost6random23additive_combine_engineINS6_26linear_congruential_engineIjLj40014ELj0ELj2147483563EEENS8_IjLj40692ELj0ELj2147483399EEEEEEEE14property_namesEv"
 "_ZN4Rcpp6class_IN5rstan8stan_fitIN34model_Exponential_expert_namespace24model_Exponential_expertEN5boost6random23additive_combine_engineINS6_26linear_congruential_engineIjLj40014ELj0ELj2147483563EEENS8_IjLj40692ELj0ELj2147483399EEEEEEEE15getConstructorsERKNS_4XPtrINS_10class_BaseENS_15PreserveStorageEXadL_ZNS_25standard_delete_finalizerISF_EEvPT_EELb0EEERNSt7__cxx1112basic_stringIcSt11char_traitsIcESaIcEEE"
 "_ZN4Rcpp6class_IN5rstan8stan_fitIN34model_Exponential_expert_namespace24model_Exponential_expertEN5boost6random23additive_combine_engineINS6_26linear_congruential_engineIjLj40014ELj0ELj2147483563EEENS8_IjLj40692ELj0ELj2147483399EEEEEEEE16methods_voidnessEv"
 "_ZN4Rcpp6class_IN5rstan8stan_fitIN34model_Exponential_expert_namespace24model_Exponential_expertEN5boost6random23additive_combine_engineINS6_26linear_congruential_engineIjLj40014ELj0ELj2147483563EEENS8_IjLj40692ELj0ELj2147483399EEEEEEEE16property_classesEv"
 "_ZN4Rcpp6class_IN5rstan8stan_fitIN34model_Exponential_expert_namespace24model_Exponential_expertEN5boost6random23additive_combine_engineINS6_26linear_congruential_engineIjLj40014ELj0ELj2147483563EEENS8_IjLj40692ELj0ELj2147483399EEEEEEEE17get_typeinfo_nameB5cxx11Ev"
 "_ZN4Rcpp6class_IN5rstan8stan_fitIN34model_Exponential_expert_namespace24model_Exponential_expertEN5boost6random23additive_combine_engineINS6_26linear_congruential_engineIjLj40014ELj0ELj2147483563EEENS8_IjLj40692ELj0ELj2147483399EEEEEEEE20property_is_readonlyERKNSt7__cxx1112basic_stringIcSt11char_traitsIcESaIcEEE"
 "_ZN4Rcpp6class_IN5rstan8stan_fitIN34model_Exponential_expert_namespace24model_Exponential_expertEN5boost6random23additive_combine_engineINS6_26linear_congruential_engineIjLj40014ELj0ELj2147483563EEENS8_IjLj40692ELj0ELj2147483399EEEEEEEE23has_default_constructorEv"
 "_ZN4Rcpp6class_IN5rstan8stan_fitIN34model_Exponential_expert_namespace24model_Exponential_expertEN5boost6random23additive_combine_engineINS6_26linear_congruential_engineIjLj40014ELj0ELj2147483563EEENS8_IjLj40692ELj0ELj2147483399EEEEEEEE6fieldsERKNS_4XPtrINS_10class_BaseENS_15PreserveStorageEXadL_ZNS_25standard_delete_finalizerISF_EEvPT_EELb0EEE"
 "_ZN4Rcpp6class_IN5rstan8stan_fitIN34model_Exponential_expert_namespace24model_Exponential_expertEN5boost6random23additive_combine_engineINS6_26linear_congruential_engineIjLj40014ELj0ELj2147483563EEENS8_IjLj40692ELj0ELj2147483399EEEEEEEE6invokeEP7SEXPRECSF_PSF_i"
 "_ZN4Rcpp6class_IN5rstan8stan_fitIN34model_Exponential_expert_namespace24model_Exponential_expertEN5boost6random23additive_combine_engineINS6_26linear_congruential_engineIjLj40014ELj0ELj2147483563EEENS8_IjLj40692ELj0ELj2147483399EEEEEEEE8completeEv"
 "_ZN4Rcpp6class_IN5rstan8stan_fitIN34model_Exponential_expert_namespace24model_Exponential_expertEN5boost6random23additive_combine_engineINS6_26linear_congruential_engineIjLj40014ELj0ELj2147483563EEENS8_IjLj40692ELj0ELj2147483399EEEEEEEE9AddMethodEPKcPNS_9CppMethodISC_EEPFbPP7SEXPRECiESF_"
 "_ZN4Rcpp6class_IN5rstan8stan_fitIN34model_Exponential_expert_namespace24model_Exponential_expertEN5boost6random23additive_combine_engineINS6_26linear_congruential_engineIjLj40014ELj0ELj2147483563EEENS8_IjLj40692ELj0ELj2147483399EEEEEEEED0Ev"
 "_ZN4Rcpp6class_IN5rstan8stan_fitIN34model_Exponential_expert_namespace24model_Exponential_expertEN5boost6random23additive_combine_engineINS6_26linear_congruential_engineIjLj40014ELj0ELj2147483563EEENS8_IjLj40692ELj0ELj2147483399EEEEEEEED1Ev"
 "_ZN4Rcpp6r_castILi13EEEP7SEXPRECS2_"
 "_ZN4Rcpp6r_castILi14EEEP7SEXPRECS2_"
 "_ZN4Rcpp6r_castILi19EEEP7SEXPRECS2_"
 "_ZN4Rcpp6traits17ContainerExporterISt6vectordE3getEv"
 "_ZN4Rcpp8RostreamILb0EED0Ev"
 "_ZN4Rcpp8RostreamILb0EED1Ev"
 "_ZN4Rcpp8RostreamILb1EED0Ev"
 "_ZN4Rcpp8RostreamILb1EED1Ev"
 "_ZN4Rcpp8internal10basic_castILi10EEEP7SEXPRECS3_"
 "_ZN4Rcpp8internal10basic_castILi13EEEP7SEXPRECS3_"
 "_ZN4Rcpp8internal10basic_castILi14EEEP7SEXPRECS3_"
 "_ZN4Rcpp8internal10resumeJumpEP7SEXPREC"
 "_ZN4Rcpp8internal12primitive_asIbEET_P7SEXPREC"
 "_ZN4Rcpp8internal12primitive_asIdEET_P7SEXPREC"
 "_ZN4Rcpp8internal12primitive_asIiEET_P7SEXPREC"
 "_ZN4Rcpp8internal12primitive_asIjEET_P7SEXPREC"
 "_ZN4Rcpp8internal13r_init_vectorILi14EEEvP7SEXPREC"
 "_ZN4Rcpp8internal19check_single_stringEP7SEXPREC"
 "_ZN4Rcpp8internal20primitive_wrap__implINSt7__cxx1112basic_stringIcSt11char_traitsIcESaIcEEEEEP7SEXPRECRKT_NS_6traits17r_type_string_tagE"
 "_ZN4Rcpp8internal22export_range__dispatchIN9__gnu_cxx17__normal_iteratorIPNSt7__cxx1112basic_stringIcSt11char_traitsIcESaIcEEESt6vectorIS9_SaIS9_EEEES9_EEvP7SEXPRECT_NS_6traits17r_type_string_tagE"
 "_ZN4Rcpp8internal26primitive_wrap__impl__castIbEEP7SEXPRECRKT_NS_6traits17integral_constantIbLb1EEE"
 "_ZN4Rcpp8internal26primitive_wrap__impl__castIiEEP7SEXPRECRKT_NS_6traits17integral_constantIbLb0EEE"
 "_ZN4Rcpp8internal26primitive_wrap__impl__castIjEEP7SEXPRECRKT_NS_6traits17integral_constantIbLb1EEE"
 "_ZN4Rcpp8internal26range_wrap_dispatch___implIN9__gnu_cxx17__normal_iteratorIPKNSt7__cxx1112basic_stringIcSt11char_traitsIcESaIcEEESt6vectorIS9_SaIS9_EEEES9_EEP7SEXPRECT_SI_NS_6traits17r_type_string_tagE"
 "_ZN4Rcpp8internal26range_wrap_dispatch___implISt23_Rb_tree_const_iteratorISt4pairIKNSt7__cxx1112basic_stringIcSt11char_traitsIcESaIcEEEP7SEXPRECEESD_EESC_T_SF_NS_6traits29r_type_pairstring_generic_tagE"
 "_ZN4Rcpp8internal29range_wrap_dispatch___genericIN9__gnu_cxx17__normal_iteratorIPKSt6vectorIjSaIjEES4_IS6_SaIS6_EEEES6_EEP7SEXPRECT_SE_"
 "_ZN4Rcpp8internal34primitive_range_wrap__impl__nocastIN9__gnu_cxx17__normal_iteratorIPKdSt6vectorIdSaIdEEEEdEEP7SEXPRECT_SC_St26random_access_iterator_tag"
 "_ZN4Rcpp8internal3nthEP7SEXPRECi"
 "_ZN4Rcpp9Rcpp_evalEP7SEXPRECS1_"
 "_ZN4Rcpp9exceptionC1EPKcb"
 "_ZN4Rcpp9exceptionD0Ev"
 "_ZN4Rcpp9exceptionD1Ev"
 "_ZN4Rcpp9yes_arityILi1EEEbPP7SEXPRECi"
 "_ZN4Rcpp9yes_arityILi2EEEbPP7SEXPRECi"
 "_ZN4Rcpp9yes_arityILi3EEEbPP7SEXPRECi"
 "_ZN4stan11variational14print_progressEiiiibRKNSt7__cxx1112basic_stringIcSt11char_traitsIcESaIcEEES8_RNS_9callbacks6loggerE"
 "_ZN4stan11variational15normal_fullrank11set_to_zeroEv"
 "_ZN4stan11variational15normal_fullrankC1ERKS1_"
 "_ZN4stan11variational15normal_fullrankC1Ey"
 "_ZN4stan11variational15normal_fullrankmLEd"
 "_ZN4stan11variational15normal_fullrankpLERKS1_"
 "_ZN4stan11variational16normal_meanfield11set_to_zeroEv"
 "_ZN4stan11variational16normal_meanfieldC1ERKS1_"
 "_ZN4stan11variational16normal_meanfieldC1Ey"
 "_ZN4stan11variational16normal_meanfieldpLERKS1_"
 "_ZN4stan12optimization10WolfLSZoomINS0_12ModelAdaptorIN34model_Exponential_expert_namespace24model_Exponential_expertEEEdN5Eigen6MatrixIdLin1ELi1ELi0ELin1ELi1EEEEEiRT0_RT1_SA_SC_RT_RKSB_RKS9_SI_SI_SI_SG_S9_S9_S9_S9_S9_S9_SI_"
 "_ZN4stan12optimization11CubicInterpIdEET_RKS2_S4_S4_S4_S4_S4_"
 "_ZN4stan12optimization11LBFGSUpdateIdLin1EE6updateERKN5Eigen6MatrixIdLin1ELi1ELi0ELin1ELi1EEES7_b"
 "_ZN4stan12optimization11newton_stepIN34model_Exponential_expert_namespace24model_Exponential_expertEEEdRT_RSt6vectorIdSaIdEERS6_IiSaIiEEPSo"
 "_ZN4stan12optimization12ModelAdaptorIN34model_Exponential_expert_namespace24model_Exponential_expertEED1Ev"
 "_ZN4stan12optimization12ModelAdaptorIN34model_Exponential_expert_namespace24model_Exponential_expertEEclERKN5Eigen6MatrixIdLin1ELi1ELi0ELin1ELi1EEERdRS7_"
 "_ZN4stan12optimization13BFGSMinimizerINS0_12ModelAdaptorIN34model_Exponential_expert_namespace24model_Exponential_expertEEENS0_11LBFGSUpdateIdLin1EEEdLin1EED2Ev"
 "_ZN4stan12optimization13BFGSMinimizerINS0_12ModelAdaptorIN34model_Exponential_expert_namespace24model_Exponential_expertEEENS0_15BFGSUpdate_HInvIdLin1EEEdLin1EED2Ev"
 "_ZN4stan12optimization15BFGSUpdate_HInvIdLin1EE6updateERKN5Eigen6MatrixIdLin1ELi1ELi0ELin1ELi1EEES7_b"
 "_ZN4stan12optimization15WolfeLineSearchINS0_12ModelAdaptorIN34model_Exponential_expert_namespace24model_Exponential_expertEEEdN5Eigen6MatrixIdLin1ELi1ELi0ELin1ELi1EEEEEiRT_RT0_RT1_SC_SE_RKSD_SG_RKSB_SG_SI_SI_SI_SI_SI_"
 "_ZN4stan2io11dump_reader10scan_charsEPKcb"
 "_ZN4stan2io11dump_reader11scan_doubleEv"
 "_ZN4stan2io11dump_reader11scan_numberEv"
 "_ZN4stan2io11dump_reader14scan_seq_valueEv"
 "_ZN4stan2io11dump_reader17scan_struct_valueEv"
 "_ZN4stan2io11dump_reader18scan_name_unquotedEv"
 "_ZN4stan2io11dump_reader7get_intEv"
 "_ZN4stan2io11dump_reader8scan_dimEv"
 "_ZN4stan2io11dump_reader8scan_intEv"
 "_ZN4stan2io11dump_reader9scan_charEc"
 "_ZN4stan2io13preproc_eventD1Ev"
 "_ZN4stan2io17array_var_contextD0Ev"
 "_ZN4stan2io17array_var_contextD1Ev"
 "_ZN4stan2io17empty_var_contextD0Ev"
 "_ZN4stan2io17empty_var_contextD1Ev"
 "_ZN4stan2io18random_var_contextC1IN34model_Exponential_expert_namespace24model_Exponential_expertEN5boost6random23additive_combine_engineINS6_26linear_congruential_engineIjLj40014ELj0ELj2147483563EEENS8_IjLj40692ELj0ELj2147483399EEEEEEERT_RT0_db"
 "_ZN4stan2io18random_var_contextD0Ev"
 "_ZN4stan2io18random_var_contextD1Ev"
 "_ZN4stan2io19chained_var_contextD0Ev"
 "_ZN4stan2io19chained_var_contextD1Ev"
 "_ZN4stan2io4dumpC1ERSi"
 "_ZN4stan2io4dumpD0Ev"
 "_ZN4stan2io4dumpD1Ev"
 "_ZN4stan4lang15rethrow_locatedERKSt9exceptionNSt7__cxx1112basic_stringIcSt11char_traitsIcESaIcEEE"
 "_ZN4stan4lang15rethrow_locatedERKSt9exceptioniRKNS_2io14program_readerE"
 "_ZN4stan4lang17located_exceptionISt10bad_typeidEC1ERKNSt7__cxx1112basic_stringIcSt11char_traitsIcESaIcEEESB_"
 "_ZN4stan4lang17located_exceptionISt10bad_typeidED0Ev"
 "_ZN4stan4lang17located_exceptionISt10bad_typeidED1Ev"
 "_ZN4stan4lang17located_exceptionISt13bad_exceptionEC1ERKNSt7__cxx1112basic_stringIcSt11char_traitsIcESaIcEEESB_"
 "_ZN4stan4lang17located_exceptionISt13bad_exceptionED0Ev"
 "_ZN4stan4lang17located_exceptionISt13bad_exceptionED1Ev"
 "_ZN4stan4lang17located_exceptionISt8bad_castEC1ERKNSt7__cxx1112basic_stringIcSt11char_traitsIcESaIcEEESB_"
 "_ZN4stan4lang17located_exceptionISt8bad_castED0Ev"
 "_ZN4stan4lang17located_exceptionISt8bad_castED1Ev"
 "_ZN4stan4lang17located_exceptionISt9bad_allocEC1ERKNSt7__cxx1112basic_stringIcSt11char_traitsIcESaIcEEESB_"
 "_ZN4stan4lang17located_exceptionISt9bad_allocED0Ev"
 "_ZN4stan4lang17located_exceptionISt9bad_allocED1Ev"
 "_ZN4stan4lang17located_exceptionISt9exceptionEC1ERKNSt7__cxx1112basic_stringIcSt11char_traitsIcESaIcEEESB_"
 "_ZN4stan4lang17located_exceptionISt9exceptionED0Ev"
 "_ZN4stan4lang17located_exceptionISt9exceptionED1Ev"
 "_ZN4stan4math10gamma_lpdfILb0ENS0_3varEddEENS_11return_typeIT0_JT1_T2_EE4typeERKS4_RKS5_RKS6_"
 "_ZN4stan4math10gamma_lpdfILb0EdddEENS_11return_typeIT0_JT1_T2_EE4typeERKS3_RKS4_RKS5_"
 "_ZN4stan4math10sum_v_vari5chainEv"
 "_ZN4stan4math10sum_v_variD0Ev"
 "_ZN4stan4math10sum_v_variD1Ev"
 "_ZN4stan4math11log_sum_expIddEENS_11return_typeIT_JT0_EE4typeERKS4_RKS3_"
 "_ZN4stan4math11normal_lpdfILb0EN5Eigen6MatrixINS0_3varELin1ELi1ELi0ELin1ELi1EEENS3_IdLin1ELi1ELi0ELin1ELi1EEES6_EENS_11return_typeIT0_JT1_T2_EE4typeERKS8_RKS9_RKSA_"
 "_ZN4stan4math11normal_lpdfILb0EN5Eigen6MatrixIdLin1ELi1ELi0ELin1ELi1EEES4_S4_EENS_11return_typeIT0_JT1_T2_EE4typeERKS6_RKS7_RKS8_"
 "_ZN4stan4math11normal_lpdfILb0ENS0_3varEddEENS_11return_typeIT0_JT1_T2_EE4typeERKS4_RKS5_RKS6_"
 "_ZN4stan4math11normal_lpdfILb0EdddEENS_11return_typeIT0_JT1_T2_EE4typeERKS3_RKS4_RKS5_"
 "_ZN4stan4math11normal_lpdfILb1EN5Eigen6MatrixINS0_3varELin1ELi1ELi0ELin1ELi1EEENS3_IdLin1ELi1ELi0ELin1ELi1EEES6_EENS_11return_typeIT0_JT1_T2_EE4typeERKS8_RKS9_RKSA_"
 "_ZN4stan4math11stack_alloc18move_to_next_blockEy"
 "_ZN4stan4math12domain_errorIA1_cEEvPKcS4_RKT_S4_S4_"
 "_ZN4stan4math12domain_errorIA26_cEEvPKcS4_RKT_S4_S4_"
 "_ZN4stan4math12domain_errorINS0_3varEEEvPKcS4_RKT_S4_S4_"
 "_ZN4stan4math12domain_errorIdEEvPKcS3_RKT_S3_S3_"
 "_ZN4stan4math12domain_errorIiEEvPKcS3_RKT_S3_S3_"
 "_ZN4stan4math12domain_errorIyEEvPKcS3_RKT_S3_S3_"
 "_ZN4stan4math12elt_multiplyINS0_3varEdLin1ELi1EEEN5Eigen6MatrixINS_11return_typeIT_JT0_EE4typeEXT1_EXT2_EXorLNS3_14StorageOptionsE0EquaaeqT1_Li1EneT2_Li1ELSA_1EquaaeqT2_Li1EneT1_Li1ELSA_0ELSA_0EEXT1_EXT2_EEERKNS4_IS6_XT1_EXT2_EXorLSA_0EquaaeqT1_Li1EneT2_Li1ELSA_1EquaaeqT2_Li1EneT1_Li1ELSA_0ELSA_0EEXT1_EXT2_EEERKNS4_IS7_XT1_EXT2_EXorLSA_0EquaaeqT1_Li1EneT2_Li1ELSA_1EquaaeqT2_Li1EneT1_Li1ELSA_0ELSA_0EEXT1_EXT2_EEE"
 "_ZN4stan4math12elt_multiplyIdNS0_3varELin1ELi1EEEN5Eigen6MatrixINS_11return_typeIT_JT0_EE4typeEXT1_EXT2_EXorLNS3_14StorageOptionsE0EquaaeqT1_Li1EneT2_Li1ELSA_1EquaaeqT2_Li1EneT1_Li1ELSA_0ELSA_0EEXT1_EXT2_EEERKNS4_IS6_XT1_EXT2_EXorLSA_0EquaaeqT1_Li1EneT2_Li1ELSA_1EquaaeqT2_Li1EneT1_Li1ELSA_0ELSA_0EEXT1_EXT2_EEERKNS4_IS7_XT1_EXT2_EXorLSA_0EquaaeqT1_Li1EneT2_Li1ELSA_1EquaaeqT2_Li1EneT1_Li1ELSA_0ELSA_0EEXT1_EXT2_EEE"
 "_ZN4stan4math12elt_multiplyIddLin1ELi1EEEN5Eigen6MatrixINS_11return_typeIT_JT0_EE4typeEXT1_EXT2_EXorLNS2_14StorageOptionsE0EquaaeqT1_Li1EneT2_Li1ELS9_1EquaaeqT2_Li1EneT1_Li1ELS9_0ELS9_0EEXT1_EXT2_EEERKNS3_IS5_XT1_EXT2_EXorLS9_0EquaaeqT1_Li1EneT2_Li1ELS9_1EquaaeqT2_Li1EneT1_Li1ELS9_0ELS9_0EEXT1_EXT2_EEERKNS3_IS6_XT1_EXT2_EXorLS9_0EquaaeqT1_Li1EneT2_Li1ELS9_1EquaaeqT2_Li1EneT1_Li1ELS9_0ELS9_0EEXT1_EXT2_EEE"
 "_ZN4stan4math12out_of_rangeEPKciiS2_S2_"
 "_ZN4stan4math14check_positiveEPKcS2_S2_i"
 "_ZN4stan4math14lognormal_lpdfILb0ENS0_3varEddEENS_11return_typeIT0_JT1_T2_EE4typeERKS4_RKS5_RKS6_"
 "_ZN4stan4math14lognormal_lpdfILb0EdddEENS_11return_typeIT0_JT1_T2_EE4typeERKS3_RKS4_RKS5_"
 "_ZN4stan4math14student_t_lpdfILb0ENS0_3varEdddEENS_11return_typeIT0_JT1_T2_T3_EE4typeERKS4_RKS5_RKS6_RKS7_"
 "_ZN4stan4math14student_t_lpdfILb0EddddEENS_11return_typeIT0_JT1_T2_T3_EE4typeERKS3_RKS4_RKS5_RKS6_"
 "_ZN4stan4math15chainable_allocD0Ev"
 "_ZN4stan4math16ad_tape_observer17on_scheduler_exitEb"
 "_ZN4stan4math16ad_tape_observer18on_scheduler_entryEb"
 "_ZN4stan4math16ad_tape_observerD0Ev"
 "_ZN4stan4math16ad_tape_observerD1Ev"
 "_ZN4stan4math16check_size_matchIiiEEvPKcS3_T_S3_T0_"
 "_ZN4stan4math16check_size_matchIixEEvPKcS3_T_S3_T0_"
 "_ZN4stan4math16check_size_matchIxiEEvPKcS3_T_S3_T0_"
 "_ZN4stan4math16check_size_matchIxxEEvPKcS3_S3_T_S3_S3_T0_"
 "_ZN4stan4math16domain_error_vecIN5Eigen6MatrixINS0_3varELin1ELi1ELi0ELin1ELi1EEEEEvPKcS7_RKT_yS7_S7_"
 "_ZN4stan4math16domain_error_vecIN5Eigen6MatrixIdLin1ELi1ELi0ELin1ELi1EEEEEvPKcS6_RKT_yS6_S6_"
 "_ZN4stan4math16domain_error_vecIN5Eigen6MatrixIdLin1ELin1ELi0ELin1ELin1EEEEEvPKcS6_RKT_yS6_S6_"
 "_ZN4stan4math16invalid_argumentIiEEvPKcS3_RKT_S3_S3_"
 "_ZN4stan4math16invalid_argumentIxEEvPKcS3_RKT_S3_S3_"
 "_ZN4stan4math16invalid_argumentIyEEvPKcS3_RKT_S3_S3_"
 "_ZN4stan4math17multiply_mat_variIdLin1ELin1ENS0_3varELi1EE5chainEv"
 "_ZN4stan4math17multiply_mat_variIdLin1ELin1ENS0_3varELi1EEC1ERKN5Eigen6MatrixIdLin1ELin1ELi0ELin1ELin1EEERKNS5_IS2_Lin1ELi1ELi0ELin1ELi1EEE"
 "_ZN4stan4math17multiply_mat_variIdLin1ELin1ENS0_3varELi1EED0Ev"
 "_ZN4stan4math17multiply_mat_variIdLin1ELin1ENS0_3varELi1EED1Ev"
 "_ZN4stan4math21check_consistent_sizeIN5Eigen6MatrixIdLin1ELi1ELi0ELin1ELi1EEEEEvPKcS6_RKT_y"
 "_ZN4stan4math21check_positive_finiteIdEEvPKcS3_RKT_"
 "_ZN4stan4math21operands_and_partialsIN5Eigen6MatrixINS0_3varELin1ELi1ELi0ELin1ELi1EEENS3_IdLin1ELi1ELi0ELin1ELi1EEES6_ddS4_E5buildEd"
 "_ZN4stan4math21operands_and_partialsINS0_3varEddddS2_E5buildEd"
 "_ZN4stan4math22AutodiffStackSingletonINS0_4variENS0_15chainable_allocEE20AutodiffStackStorageC1Ev"
 "_ZN4stan4math23welford_covar_estimator10add_sampleERKN5Eigen6MatrixIdLin1ELi1ELi0ELin1ELi1EEE"
 "_ZN4stan4math26precomputed_gradients_vari5chainEv"
 "_ZN4stan4math26precomputed_gradients_variD0Ev"
 "_ZN4stan4math26precomputed_gradients_variD1Ev"
 "_ZN4stan4math27validate_non_negative_indexEPKcS2_i"
 "_ZN4stan4math3maxERKSt6vectorIiSaIiEE"
 "_ZN4stan4math3powERKNS0_3varEd"
 "_ZN4stan4math3sumERKSt6vectorINS0_3varESaIS2_EE"
 "_ZN4stan4math3varC1Ed"
 "_ZN4stan4math4vari5chainEv"
 "_ZN4stan4math4variD0Ev"
 "_ZN4stan4math4variD1Ev"
 "_ZN4stan4math4varinwEy"
 "_ZN4stan4math6assignINS0_3varES2_Lin1ELi1EEEvRN5Eigen6MatrixIT_XT1_EXT2_EXorLNS3_14StorageOptionsE0EquaaeqT1_Li1EneT2_Li1ELS6_1EquaaeqT2_Li1EneT1_Li1ELS6_0ELS6_0EEXT1_EXT2_EEERKNS4_IT0_XT1_EXT2_EXorLS6_0EquaaeqT1_Li1EneT2_Li1ELS6_1EquaaeqT2_Li1EneT1_Li1ELS6_0ELS6_0EEXT1_EXT2_EEE"
 "_ZN4stan4math6assignIddLin1ELi1EEEvRN5Eigen6MatrixIT_XT1_EXT2_EXorLNS2_14StorageOptionsE0EquaaeqT1_Li1EneT2_Li1ELS5_1EquaaeqT2_Li1EneT1_Li1ELS5_0ELS5_0EEXT1_EXT2_EEERKNS3_IT0_XT1_EXT2_EXorLS5_0EquaaeqT1_Li1EneT2_Li1ELS5_1EquaaeqT2_Li1EneT1_Li1ELS5_0ELS5_0EEXT1_EXT2_EEE"
 "_ZN4stan4math8gradientINS_5model16model_functionalIN34model_Exponential_expert_namespace24model_Exponential_expertEEEEEvRKT_RKN5Eigen6MatrixIdLin1ELi1ELi0ELin1ELi1EEERdRSC_"
 "_ZN4stan4math8internal11add_vv_vari5chainEv"
 "_ZN4stan4math8internal11add_vv_variD0Ev"
 "_ZN4stan4math8internal11add_vv_variD1Ev"
 "_ZN4stan4math8internal11pow_vd_vari5chainEv"
 "_ZN4stan4math8internal11pow_vd_variD0Ev"
 "_ZN4stan4math8internal11pow_vd_variD1Ev"
 "_ZN4stan4math8internal11square_vari5chainEv"
 "_ZN4stan4math8internal11square_variD0Ev"
 "_ZN4stan4math8internal11square_variD1Ev"
 "_ZN4stan4math8internal13inv_sqrt_vari5chainEv"
 "_ZN4stan4math8internal13inv_sqrt_variD0Ev"
 "_ZN4stan4math8internal13inv_sqrt_variD1Ev"
 "_ZN4stan4math8internal13less_or_equalIdiLb0EE5checkEPKcS5_RKdRKi"
 "_ZN4stan4math8internal14divide_dv_vari5chainEv"
 "_ZN4stan4math8internal14divide_dv_variD0Ev"
 "_ZN4stan4math8internal14divide_dv_variD1Ev"
 "_ZN4stan4math8internal15inv_square_vari5chainEv"
 "_ZN4stan4math8internal15inv_square_variD0Ev"
 "_ZN4stan4math8internal15inv_square_variD1Ev"
 "_ZN4stan4math8internal16dot_product_variINS0_3varEdE5chainEv"
 "_ZN4stan4math8internal16dot_product_variINS0_3varEdED0Ev"
 "_ZN4stan4math8internal16dot_product_variINS0_3varEdED1Ev"
 "_ZN4stan4math8internal16greater_or_equalIddLb0EE5checkEPKcS5_RKdS7_"
 "_ZN4stan4math8internal16multiply_vd_vari5chainEv"
 "_ZN4stan4math8internal16multiply_vd_variD0Ev"
 "_ZN4stan4math8internal16multiply_vd_variD1Ev"
 "_ZN4stan4math8internal16multiply_vv_vari5chainEv"
 "_ZN4stan4math8internal16multiply_vv_variD0Ev"
 "_ZN4stan4math8internal16multiply_vv_variD1Ev"
 "_ZN4stan4math8internal16subtract_vv_vari5chainEv"
 "_ZN4stan4math8internal16subtract_vv_variD0Ev"
 "_ZN4stan4math8internal16subtract_vv_variD1Ev"
 "_ZN4stan4math8internal6finiteIN5Eigen6MatrixIdLin1ELi1ELi0ELin1ELi1EEELb1EE5checkEPKcS8_RKS5_"
 "_ZN4stan4math8internal7not_nanIN5Eigen6MatrixIdLin1ELi1ELi0ELin1ELi1EEELb1EE5checkEPKcS8_RKS5_"
 "_ZN4stan4math8internal8exp_vari5chainEv"
 "_ZN4stan4math8internal8exp_variD0Ev"
 "_ZN4stan4math8internal8exp_variD1Ev"
 "_ZN4stan4math8internal8inv_vari5chainEv"
 "_ZN4stan4math8internal8inv_variD0Ev"
 "_ZN4stan4math8internal8inv_variD1Ev"
 "_ZN4stan4math8internal8log_vari5chainEv"
 "_ZN4stan4math8internal8log_variD0Ev"
 "_ZN4stan4math8internal8log_variD1Ev"
 "_ZN4stan4math8internal8neg_vari5chainEv"
 "_ZN4stan4math8internal8neg_variD0Ev"
 "_ZN4stan4math8internal8neg_variD1Ev"
 "_ZN4stan4math8internal9sqrt_vari5chainEv"
 "_ZN4stan4math8internal9sqrt_variD0Ev"
 "_ZN4stan4math8internal9sqrt_variD1Ev"
 "_ZN4stan4math8multiplyILin1ELin1ELin1ELi1EddvEEN5Eigen6MatrixINS_11return_typeIT3_JT4_EE4typeEXT_EXT2_EXorLNS2_14StorageOptionsE0EquaaeqT_Li1EneT2_Li1ELS9_1EquaaeqT2_Li1EneT_Li1ELS9_0ELS9_0EEXT_EXT2_EEERKNS3_IS5_XT_EXT0_EXorLS9_0EquaaeqT_Li1EneT0_Li1ELS9_1EquaaeqT0_Li1EneT_Li1ELS9_0ELS9_0EEXT_EXT0_EEERKNS3_IS6_XT1_EXT2_EXorLS9_0EquaaeqT1_Li1EneT2_Li1ELS9_1EquaaeqT2_Li1EneT1_Li1ELS9_0ELS9_0EEXT1_EXT2_EEE"
 "_ZN4stan4math8multiplyIdLin1ELin1ENS0_3varELi1EvEEN5Eigen6MatrixIS2_XT0_EXT3_EXorLNS3_14StorageOptionsE0EquaaeqT0_Li1EneT3_Li1ELS5_1EquaaeqT3_Li1EneT0_Li1ELS5_0ELS5_0EEXT0_EXT3_EEERKNS4_IT_XT0_EXT1_EXorLS5_0EquaaeqT0_Li1EneT1_Li1ELS5_1EquaaeqT1_Li1EneT0_Li1ELS5_0ELS5_0EEXT0_EXT1_EEERKNS4_IT2_XT1_EXT3_EXorLS5_0EquaaeqT1_Li1EneT3_Li1ELS5_1EquaaeqT3_Li1EneT1_Li1ELS5_0ELS5_0EEXT1_EXT3_EEE"
 "_ZN4stan4math9beta_lpdfILb0ENS0_3varEddEENS_11return_typeIT0_JT1_T2_EE4typeERKS4_RKS5_RKS6_"
 "_ZN4stan4math9beta_lpdfILb0EdddEENS_11return_typeIT0_JT1_T2_EE4typeERKS3_RKS4_RKS5_"
 "_ZN4stan4math9get_base1ISt6vectorIdSaIdEEEERKT_RKS2_IS5_SaIS5_EEyPKcy"
 "_ZN4stan4mcmc11diag_e_nutsIN34model_Exponential_expert_namespace24model_Exponential_expertEN5boost6random23additive_combine_engineINS5_26linear_congruential_engineIjLj40014ELj0ELj2147483563EEENS7_IjLj40692ELj0ELj2147483399EEEEEED0Ev"
 "_ZN4stan4mcmc11diag_e_nutsIN34model_Exponential_expert_namespace24model_Exponential_expertEN5boost6random23additive_combine_engineINS5_26linear_congruential_engineIjLj40014ELj0ELj2147483563EEENS7_IjLj40692ELj0ELj2147483399EEEEEED1Ev"
 "_ZN4stan4mcmc11unit_e_nutsIN34model_Exponential_expert_namespace24model_Exponential_expertEN5boost6random23additive_combine_engineINS5_26linear_congruential_engineIjLj40014ELj0ELj2147483563EEENS7_IjLj40692ELj0ELj2147483399EEEEEED0Ev"
 "_ZN4stan4mcmc11unit_e_nutsIN34model_Exponential_expert_namespace24model_Exponential_expertEN5boost6random23additive_combine_engineINS5_26linear_congruential_engineIjLj40014ELj0ELj2147483563EEENS7_IjLj40692ELj0ELj2147483399EEEEEED1Ev"
 "_ZN4stan4mcmc12base_adapter17engage_adaptationEv"
 "_ZN4stan4mcmc12base_adapter20disengage_adaptationEv"
 "_ZN4stan4mcmc12dense_e_nutsIN34model_Exponential_expert_namespace24model_Exponential_expertEN5boost6random23additive_combine_engineINS5_26linear_congruential_engineIjLj40014ELj0ELj2147483563EEENS7_IjLj40692ELj0ELj2147483399EEEEEED0Ev"
 "_ZN4stan4mcmc12dense_e_nutsIN34model_Exponential_expert_namespace24model_Exponential_expertEN5boost6random23additive_combine_engineINS5_26linear_congruential_engineIjLj40014ELj0ELj2147483563EEENS7_IjLj40692ELj0ELj2147483399EEEEEED1Ev"
 "_ZN4stan4mcmc12diag_e_point12write_metricERNS_9callbacks6writerE"
 "_ZN4stan4mcmc13base_leapfrogINS0_13diag_e_metricIN34model_Exponential_expert_namespace24model_Exponential_expertEN5boost6random23additive_combine_engineINS6_26linear_congruential_engineIjLj40014ELj0ELj2147483563EEENS8_IjLj40692ELj0ELj2147483399EEEEEEEE6evolveERNS0_12diag_e_pointERSC_dRNS_9callbacks6loggerE"
 "_ZN4stan4mcmc13base_leapfrogINS0_13unit_e_metricIN34model_Exponential_expert_namespace24model_Exponential_expertEN5boost6random23additive_combine_engineINS6_26linear_congruential_engineIjLj40014ELj0ELj2147483563EEENS8_IjLj40692ELj0ELj2147483399EEEEEEEE6evolveERNS0_12unit_e_pointERSC_dRNS_9callbacks6loggerE"
 "_ZN4stan4mcmc13base_leapfrogINS0_14dense_e_metricIN34model_Exponential_expert_namespace24model_Exponential_expertEN5boost6random23additive_combine_engineINS6_26linear_congruential_engineIjLj40014ELj0ELj2147483563EEENS8_IjLj40692ELj0ELj2147483399EEEEEEEE6evolveERNS0_13dense_e_pointERSC_dRNS_9callbacks6loggerE"
 "_ZN4stan4mcmc13dense_e_point12write_metricERNS_9callbacks6writerE"
 "_ZN4stan4mcmc13dense_e_pointC1Ei"
 "_ZN4stan4mcmc13diag_e_metricIN34model_Exponential_expert_namespace24model_Exponential_expertEN5boost6random23additive_combine_engineINS5_26linear_congruential_engineIjLj40014ELj0ELj2147483563EEENS7_IjLj40692ELj0ELj2147483399EEEEEE1TERNS0_12diag_e_pointE"
 "_ZN4stan4mcmc13diag_e_metricIN34model_Exponential_expert_namespace24model_Exponential_expertEN5boost6random23additive_combine_engineINS5_26linear_congruential_engineIjLj40014ELj0ELj2147483563EEENS7_IjLj40692ELj0ELj2147483399EEEEEE3phiERNS0_12diag_e_pointE"
 "_ZN4stan4mcmc13diag_e_metricIN34model_Exponential_expert_namespace24model_Exponential_expertEN5boost6random23additive_combine_engineINS5_26linear_congruential_engineIjLj40014ELj0ELj2147483563EEENS7_IjLj40692ELj0ELj2147483399EEEEEE3tauERNS0_12diag_e_pointE"
 "_ZN4stan4mcmc13diag_e_metricIN34model_Exponential_expert_namespace24model_Exponential_expertEN5boost6random23additive_combine_engineINS5_26linear_congruential_engineIjLj40014ELj0ELj2147483563EEENS7_IjLj40692ELj0ELj2147483399EEEEEE5dG_dtERNS0_12diag_e_pointERNS_9callbacks6loggerE"
 "_ZN4stan4mcmc13diag_e_metricIN34model_Exponential_expert_namespace24model_Exponential_expertEN5boost6random23additive_combine_engineINS5_26linear_congruential_engineIjLj40014ELj0ELj2147483563EEENS7_IjLj40692ELj0ELj2147483399EEEEEE7dphi_dqERNS0_12diag_e_pointERNS_9callbacks6loggerE"
 "_ZN4stan4mcmc13diag_e_metricIN34model_Exponential_expert_namespace24model_Exponential_expertEN5boost6random23additive_combine_engineINS5_26linear_congruential_engineIjLj40014ELj0ELj2147483563EEENS7_IjLj40692ELj0ELj2147483399EEEEEE7dtau_dpERNS0_12diag_e_pointE"
 "_ZN4stan4mcmc13diag_e_metricIN34model_Exponential_expert_namespace24model_Exponential_expertEN5boost6random23additive_combine_engineINS5_26linear_congruential_engineIjLj40014ELj0ELj2147483563EEENS7_IjLj40692ELj0ELj2147483399EEEEEE7dtau_dqERNS0_12diag_e_pointERNS_9callbacks6loggerE"
 "_ZN4stan4mcmc13diag_e_metricIN34model_Exponential_expert_namespace24model_Exponential_expertEN5boost6random23additive_combine_engineINS5_26linear_congruential_engineIjLj40014ELj0ELj2147483563EEENS7_IjLj40692ELj0ELj2147483399EEEEEE8sample_pERNS0_12diag_e_pointERSA_"
 "_ZN4stan4mcmc13expl_leapfrogINS0_13diag_e_metricIN34model_Exponential_expert_namespace24model_Exponential_expertEN5boost6random23additive_combine_engineINS6_26linear_congruential_engineIjLj40014ELj0ELj2147483563EEENS8_IjLj40692ELj0ELj2147483399EEEEEEEE12end_update_pERNS0_12diag_e_pointERSC_dRNS_9callbacks6loggerE"
 "_ZN4stan4mcmc13expl_leapfrogINS0_13diag_e_metricIN34model_Exponential_expert_namespace24model_Exponential_expertEN5boost6random23additive_combine_engineINS6_26linear_congruential_engineIjLj40014ELj0ELj2147483563EEENS8_IjLj40692ELj0ELj2147483399EEEEEEEE14begin_update_pERNS0_12diag_e_pointERSC_dRNS_9callbacks6loggerE"
 "_ZN4stan4mcmc13expl_leapfrogINS0_13diag_e_metricIN34model_Exponential_expert_namespace24model_Exponential_expertEN5boost6random23additive_combine_engineINS6_26linear_congruential_engineIjLj40014ELj0ELj2147483563EEENS8_IjLj40692ELj0ELj2147483399EEEEEEEE8update_qERNS0_12diag_e_pointERSC_dRNS_9callbacks6loggerE"
 "_ZN4stan4mcmc13expl_leapfrogINS0_13unit_e_metricIN34model_Exponential_expert_namespace24model_Exponential_expertEN5boost6random23additive_combine_engineINS6_26linear_congruential_engineIjLj40014ELj0ELj2147483563EEENS8_IjLj40692ELj0ELj2147483399EEEEEEEE12end_update_pERNS0_12unit_e_pointERSC_dRNS_9callbacks6loggerE"
 "_ZN4stan4mcmc13expl_leapfrogINS0_13unit_e_metricIN34model_Exponential_expert_namespace24model_Exponential_expertEN5boost6random23additive_combine_engineINS6_26linear_congruential_engineIjLj40014ELj0ELj2147483563EEENS8_IjLj40692ELj0ELj2147483399EEEEEEEE14begin_update_pERNS0_12unit_e_pointERSC_dRNS_9callbacks6loggerE"
 "_ZN4stan4mcmc13expl_leapfrogINS0_13unit_e_metricIN34model_Exponential_expert_namespace24model_Exponential_expertEN5boost6random23additive_combine_engineINS6_26linear_congruential_engineIjLj40014ELj0ELj2147483563EEENS8_IjLj40692ELj0ELj2147483399EEEEEEEE8update_qERNS0_12unit_e_pointERSC_dRNS_9callbacks6loggerE"
 "_ZN4stan4mcmc13expl_leapfrogINS0_14dense_e_metricIN34model_Exponential_expert_namespace24model_Exponential_expertEN5boost6random23additive_combine_engineINS6_26linear_congruential_engineIjLj40014ELj0ELj2147483563EEENS8_IjLj40692ELj0ELj2147483399EEEEEEEE12end_update_pERNS0_13dense_e_pointERSC_dRNS_9callbacks6loggerE"
 "_ZN4stan4mcmc13expl_leapfrogINS0_14dense_e_metricIN34model_Exponential_expert_namespace24model_Exponential_expertEN5boost6random23additive_combine_engineINS6_26linear_congruential_engineIjLj40014ELj0ELj2147483563EEENS8_IjLj40692ELj0ELj2147483399EEEEEEEE14begin_update_pERNS0_13dense_e_pointERSC_dRNS_9callbacks6loggerE"
 "_ZN4stan4mcmc13expl_leapfrogINS0_14dense_e_metricIN34model_Exponential_expert_namespace24model_Exponential_expertEN5boost6random23additive_combine_engineINS6_26linear_congruential_engineIjLj40014ELj0ELj2147483563EEENS8_IjLj40692ELj0ELj2147483399EEEEEEEE8update_qERNS0_13dense_e_pointERSC_dRNS_9callbacks6loggerE"
 "_ZN4stan4mcmc13unit_e_metricIN34model_Exponential_expert_namespace24model_Exponential_expertEN5boost6random23additive_combine_engineINS5_26linear_congruential_engineIjLj40014ELj0ELj2147483563EEENS7_IjLj40692ELj0ELj2147483399EEEEEE1TERNS0_12unit_e_pointE"
 "_ZN4stan4mcmc13unit_e_metricIN34model_Exponential_expert_namespace24model_Exponential_expertEN5boost6random23additive_combine_engineINS5_26linear_congruential_engineIjLj40014ELj0ELj2147483563EEENS7_IjLj40692ELj0ELj2147483399EEEEEE3phiERNS0_12unit_e_pointE"
 "_ZN4stan4mcmc13unit_e_metricIN34model_Exponential_expert_namespace24model_Exponential_expertEN5boost6random23additive_combine_engineINS5_26linear_congruential_engineIjLj40014ELj0ELj2147483563EEENS7_IjLj40692ELj0ELj2147483399EEEEEE3tauERNS0_12unit_e_pointE"
 "_ZN4stan4mcmc13unit_e_metricIN34model_Exponential_expert_namespace24model_Exponential_expertEN5boost6random23additive_combine_engineINS5_26linear_congruential_engineIjLj40014ELj0ELj2147483563EEENS7_IjLj40692ELj0ELj2147483399EEEEEE5dG_dtERNS0_12unit_e_pointERNS_9callbacks6loggerE"
 "_ZN4stan4mcmc13unit_e_metricIN34model_Exponential_expert_namespace24model_Exponential_expertEN5boost6random23additive_combine_engineINS5_26linear_congruential_engineIjLj40014ELj0ELj2147483563EEENS7_IjLj40692ELj0ELj2147483399EEEEEE7dphi_dqERNS0_12unit_e_pointERNS_9callbacks6loggerE"
 "_ZN4stan4mcmc13unit_e_metricIN34model_Exponential_expert_namespace24model_Exponential_expertEN5boost6random23additive_combine_engineINS5_26linear_congruential_engineIjLj40014ELj0ELj2147483563EEENS7_IjLj40692ELj0ELj2147483399EEEEEE7dtau_dpERNS0_12unit_e_pointE"
 "_ZN4stan4mcmc13unit_e_metricIN34model_Exponential_expert_namespace24model_Exponential_expertEN5boost6random23additive_combine_engineINS5_26linear_congruential_engineIjLj40014ELj0ELj2147483563EEENS7_IjLj40692ELj0ELj2147483399EEEEEE7dtau_dqERNS0_12unit_e_pointERNS_9callbacks6loggerE"
 "_ZN4stan4mcmc13unit_e_metricIN34model_Exponential_expert_namespace24model_Exponential_expertEN5boost6random23additive_combine_engineINS5_26linear_congruential_engineIjLj40014ELj0ELj2147483563EEENS7_IjLj40692ELj0ELj2147483399EEEEEE8sample_pERNS0_12unit_e_pointERSA_"
 "_ZN4stan4mcmc14dense_e_metricIN34model_Exponential_expert_namespace24model_Exponential_expertEN5boost6random23additive_combine_engineINS5_26linear_congruential_engineIjLj40014ELj0ELj2147483563EEENS7_IjLj40692ELj0ELj2147483399EEEEEE1TERNS0_13dense_e_pointE"
 "_ZN4stan4mcmc14dense_e_metricIN34model_Exponential_expert_namespace24model_Exponential_expertEN5boost6random23additive_combine_engineINS5_26linear_congruential_engineIjLj40014ELj0ELj2147483563EEENS7_IjLj40692ELj0ELj2147483399EEEEEE3phiERNS0_13dense_e_pointE"
 "_ZN4stan4mcmc14dense_e_metricIN34model_Exponential_expert_namespace24model_Exponential_expertEN5boost6random23additive_combine_engineINS5_26linear_congruential_engineIjLj40014ELj0ELj2147483563EEENS7_IjLj40692ELj0ELj2147483399EEEEEE3tauERNS0_13dense_e_pointE"
 "_ZN4stan4mcmc14dense_e_metricIN34model_Exponential_expert_namespace24model_Exponential_expertEN5boost6random23additive_combine_engineINS5_26linear_congruential_engineIjLj40014ELj0ELj2147483563EEENS7_IjLj40692ELj0ELj2147483399EEEEEE5dG_dtERNS0_13dense_e_pointERNS_9callbacks6loggerE"
 "_ZN4stan4mcmc14dense_e_metricIN34model_Exponential_expert_namespace24model_Exponential_expertEN5boost6random23additive_combine_engineINS5_26linear_congruential_engineIjLj40014ELj0ELj2147483563EEENS7_IjLj40692ELj0ELj2147483399EEEEEE7dphi_dqERNS0_13dense_e_pointERNS_9callbacks6loggerE"
 "_ZN4stan4mcmc14dense_e_metricIN34model_Exponential_expert_namespace24model_Exponential_expertEN5boost6random23additive_combine_engineINS5_26linear_congruential_engineIjLj40014ELj0ELj2147483563EEENS7_IjLj40692ELj0ELj2147483399EEEEEE7dtau_dpERNS0_13dense_e_pointE"
 "_ZN4stan4mcmc14dense_e_metricIN34model_Exponential_expert_namespace24model_Exponential_expertEN5boost6random23additive_combine_engineINS5_26linear_congruential_engineIjLj40014ELj0ELj2147483563EEENS7_IjLj40692ELj0ELj2147483399EEEEEE7dtau_dqERNS0_13dense_e_pointERNS_9callbacks6loggerE"
 "_ZN4stan4mcmc14dense_e_metricIN34model_Exponential_expert_namespace24model_Exponential_expertEN5boost6random23additive_combine_engineINS5_26linear_congruential_engineIjLj40014ELj0ELj2147483563EEENS7_IjLj40692ELj0ELj2147483399EEEEEE8sample_pERNS0_13dense_e_pointERSA_"
 "_ZN4stan4mcmc14var_adaptation14learn_varianceERN5Eigen6MatrixIdLin1ELi1ELi0ELin1ELi1EEERKS4_"
 "_ZN4stan4mcmc15base_static_hmcIN34model_Exponential_expert_namespace24model_Exponential_expertENS0_13diag_e_metricENS0_13expl_leapfrogEN5boost6random23additive_combine_engineINS7_26linear_congruential_engineIjLj40014ELj0ELj2147483563EEENS9_IjLj40692ELj0ELj2147483399EEEEEE10transitionERNS0_6sampleERNS_9callbacks6loggerE"
 "_ZN4stan4mcmc15base_static_hmcIN34model_Exponential_expert_namespace24model_Exponential_expertENS0_13diag_e_metricENS0_13expl_leapfrogEN5boost6random23additive_combine_engineINS7_26linear_congruential_engineIjLj40014ELj0ELj2147483563EEENS9_IjLj40692ELj0ELj2147483399EEEEEE18get_sampler_paramsERSt6vectorIdSaIdEE"
 "_ZN4stan4mcmc15base_static_hmcIN34model_Exponential_expert_namespace24model_Exponential_expertENS0_13diag_e_metricENS0_13expl_leapfrogEN5boost6random23additive_combine_engineINS7_26linear_congruential_engineIjLj40014ELj0ELj2147483563EEENS9_IjLj40692ELj0ELj2147483399EEEEEE20set_nominal_stepsizeEd"
 "_ZN4stan4mcmc15base_static_hmcIN34model_Exponential_expert_namespace24model_Exponential_expertENS0_13diag_e_metricENS0_13expl_leapfrogEN5boost6random23additive_combine_engineINS7_26linear_congruential_engineIjLj40014ELj0ELj2147483563EEENS9_IjLj40692ELj0ELj2147483399EEEEEE23get_sampler_param_namesERSt6vectorINSt7__cxx1112basic_stringIcSt11char_traitsIcESaIcEEESaISK_EE"
 "_ZN4stan4mcmc15base_static_hmcIN34model_Exponential_expert_namespace24model_Exponential_expertENS0_13unit_e_metricENS0_13expl_leapfrogEN5boost6random23additive_combine_engineINS7_26linear_congruential_engineIjLj40014ELj0ELj2147483563EEENS9_IjLj40692ELj0ELj2147483399EEEEEE10transitionERNS0_6sampleERNS_9callbacks6loggerE"
 "_ZN4stan4mcmc15base_static_hmcIN34model_Exponential_expert_namespace24model_Exponential_expertENS0_13unit_e_metricENS0_13expl_leapfrogEN5boost6random23additive_combine_engineINS7_26linear_congruential_engineIjLj40014ELj0ELj2147483563EEENS9_IjLj40692ELj0ELj2147483399EEEEEE18get_sampler_paramsERSt6vectorIdSaIdEE"
 "_ZN4stan4mcmc15base_static_hmcIN34model_Exponential_expert_namespace24model_Exponential_expertENS0_13unit_e_metricENS0_13expl_leapfrogEN5boost6random23additive_combine_engineINS7_26linear_congruential_engineIjLj40014ELj0ELj2147483563EEENS9_IjLj40692ELj0ELj2147483399EEEEEE20set_nominal_stepsizeEd"
 "_ZN4stan4mcmc15base_static_hmcIN34model_Exponential_expert_namespace24model_Exponential_expertENS0_13unit_e_metricENS0_13expl_leapfrogEN5boost6random23additive_combine_engineINS7_26linear_congruential_engineIjLj40014ELj0ELj2147483563EEENS9_IjLj40692ELj0ELj2147483399EEEEEE23get_sampler_param_namesERSt6vectorINSt7__cxx1112basic_stringIcSt11char_traitsIcESaIcEEESaISK_EE"
 "_ZN4stan4mcmc15base_static_hmcIN34model_Exponential_expert_namespace24model_Exponential_expertENS0_14dense_e_metricENS0_13expl_leapfrogEN5boost6random23additive_combine_engineINS7_26linear_congruential_engineIjLj40014ELj0ELj2147483563EEENS9_IjLj40692ELj0ELj2147483399EEEEEE10transitionERNS0_6sampleERNS_9callbacks6loggerE"
 "_ZN4stan4mcmc15base_static_hmcIN34model_Exponential_expert_namespace24model_Exponential_expertENS0_14dense_e_metricENS0_13expl_leapfrogEN5boost6random23additive_combine_engineINS7_26linear_congruential_engineIjLj40014ELj0ELj2147483563EEENS9_IjLj40692ELj0ELj2147483399EEEEEE18get_sampler_paramsERSt6vectorIdSaIdEE"
 "_ZN4stan4mcmc15base_static_hmcIN34model_Exponential_expert_namespace24model_Exponential_expertENS0_14dense_e_metricENS0_13expl_leapfrogEN5boost6random23additive_combine_engineINS7_26linear_congruential_engineIjLj40014ELj0ELj2147483563EEENS9_IjLj40692ELj0ELj2147483399EEEEEE20set_nominal_stepsizeEd"
 "_ZN4stan4mcmc15base_static_hmcIN34model_Exponential_expert_namespace24model_Exponential_expertENS0_14dense_e_metricENS0_13expl_leapfrogEN5boost6random23additive_combine_engineINS7_26linear_congruential_engineIjLj40014ELj0ELj2147483563EEENS9_IjLj40692ELj0ELj2147483399EEEEEE23get_sampler_param_namesERSt6vectorINSt7__cxx1112basic_stringIcSt11char_traitsIcESaIcEEESaISK_EE"
 "_ZN4stan4mcmc16base_hamiltonianIN34model_Exponential_expert_namespace24model_Exponential_expertENS0_12diag_e_pointEN5boost6random23additive_combine_engineINS6_26linear_congruential_engineIjLj40014ELj0ELj2147483563EEENS8_IjLj40692ELj0ELj2147483399EEEEEE16write_error_msg_ERKSt9exceptionRNS_9callbacks6loggerE"
 "_ZN4stan4mcmc16base_hamiltonianIN34model_Exponential_expert_namespace24model_Exponential_expertENS0_12diag_e_pointEN5boost6random23additive_combine_engineINS6_26linear_congruential_engineIjLj40014ELj0ELj2147483563EEENS8_IjLj40692ELj0ELj2147483399EEEEEE25update_potential_gradientERS4_RNS_9callbacks6loggerE"
 "_ZN4stan4mcmc16base_hamiltonianIN34model_Exponential_expert_namespace24model_Exponential_expertENS0_12unit_e_pointEN5boost6random23additive_combine_engineINS6_26linear_congruential_engineIjLj40014ELj0ELj2147483563EEENS8_IjLj40692ELj0ELj2147483399EEEEEE16write_error_msg_ERKSt9exceptionRNS_9callbacks6loggerE"
 "_ZN4stan4mcmc16base_hamiltonianIN34model_Exponential_expert_namespace24model_Exponential_expertENS0_12unit_e_pointEN5boost6random23additive_combine_engineINS6_26linear_congruential_engineIjLj40014ELj0ELj2147483563EEENS8_IjLj40692ELj0ELj2147483399EEEEEE25update_potential_gradientERS4_RNS_9callbacks6loggerE"
 "_ZN4stan4mcmc16base_hamiltonianIN34model_Exponential_expert_namespace24model_Exponential_expertENS0_13dense_e_pointEN5boost6random23additive_combine_engineINS6_26linear_congruential_engineIjLj40014ELj0ELj2147483563EEENS8_IjLj40692ELj0ELj2147483399EEEEEE16write_error_msg_ERKSt9exceptionRNS_9callbacks6loggerE"
 "_ZN4stan4mcmc16base_hamiltonianIN34model_Exponential_expert_namespace24model_Exponential_expertENS0_13dense_e_pointEN5boost6random23additive_combine_engineINS6_26linear_congruential_engineIjLj40014ELj0ELj2147483563EEENS8_IjLj40692ELj0ELj2147483399EEEEEE25update_potential_gradientERS4_RNS_9callbacks6loggerE"
 "_ZN4stan4mcmc17adapt_diag_e_nutsIN34model_Exponential_expert_namespace24model_Exponential_expertEN5boost6random23additive_combine_engineINS5_26linear_congruential_engineIjLj40014ELj0ELj2147483563EEENS7_IjLj40692ELj0ELj2147483399EEEEEE10transitionERNS0_6sampleERNS_9callbacks6loggerE"
 "_ZN4stan4mcmc17adapt_diag_e_nutsIN34model_Exponential_expert_namespace24model_Exponential_expertEN5boost6random23additive_combine_engineINS5_26linear_congruential_engineIjLj40014ELj0ELj2147483563EEENS7_IjLj40692ELj0ELj2147483399EEEEEE20disengage_adaptationEv"
 "_ZN4stan4mcmc17adapt_diag_e_nutsIN34model_Exponential_expert_namespace24model_Exponential_expertEN5boost6random23additive_combine_engineINS5_26linear_congruential_engineIjLj40014ELj0ELj2147483563EEENS7_IjLj40692ELj0ELj2147483399EEEEEED0Ev"
 "_ZN4stan4mcmc17adapt_diag_e_nutsIN34model_Exponential_expert_namespace24model_Exponential_expertEN5boost6random23additive_combine_engineINS5_26linear_congruential_engineIjLj40014ELj0ELj2147483563EEENS7_IjLj40692ELj0ELj2147483399EEEEEED1Ev"
 "_ZN4stan4mcmc17adapt_unit_e_nutsIN34model_Exponential_expert_namespace24model_Exponential_expertEN5boost6random23additive_combine_engineINS5_26linear_congruential_engineIjLj40014ELj0ELj2147483563EEENS7_IjLj40692ELj0ELj2147483399EEEEEE10transitionERNS0_6sampleERNS_9callbacks6loggerE"
 "_ZN4stan4mcmc17adapt_unit_e_nutsIN34model_Exponential_expert_namespace24model_Exponential_expertEN5boost6random23additive_combine_engineINS5_26linear_congruential_engineIjLj40014ELj0ELj2147483563EEENS7_IjLj40692ELj0ELj2147483399EEEEEE20disengage_adaptationEv"
 "_ZN4stan4mcmc17adapt_unit_e_nutsIN34model_Exponential_expert_namespace24model_Exponential_expertEN5boost6random23additive_combine_engineINS5_26linear_congruential_engineIjLj40014ELj0ELj2147483563EEENS7_IjLj40692ELj0ELj2147483399EEEEEED0Ev"
 "_ZN4stan4mcmc17adapt_unit_e_nutsIN34model_Exponential_expert_namespace24model_Exponential_expertEN5boost6random23additive_combine_engineINS5_26linear_congruential_engineIjLj40014ELj0ELj2147483563EEENS7_IjLj40692ELj0ELj2147483399EEEEEED1Ev"
 "_ZN4stan4mcmc17diag_e_static_hmcIN34model_Exponential_expert_namespace24model_Exponential_expertEN5boost6random23additive_combine_engineINS5_26linear_congruential_engineIjLj40014ELj0ELj2147483563EEENS7_IjLj40692ELj0ELj2147483399EEEEEED0Ev"
 "_ZN4stan4mcmc17diag_e_static_hmcIN34model_Exponential_expert_namespace24model_Exponential_expertEN5boost6random23additive_combine_engineINS5_26linear_congruential_engineIjLj40014ELj0ELj2147483563EEENS7_IjLj40692ELj0ELj2147483399EEEEEED1Ev"
 "_ZN4stan4mcmc17unit_e_static_hmcIN34model_Exponential_expert_namespace24model_Exponential_expertEN5boost6random23additive_combine_engineINS5_26linear_congruential_engineIjLj40014ELj0ELj2147483563EEENS7_IjLj40692ELj0ELj2147483399EEEEEED0Ev"
 "_ZN4stan4mcmc17unit_e_static_hmcIN34model_Exponential_expert_namespace24model_Exponential_expertEN5boost6random23additive_combine_engineINS5_26linear_congruential_engineIjLj40014ELj0ELj2147483563EEENS7_IjLj40692ELj0ELj2147483399EEEEEED1Ev"
 "_ZN4stan4mcmc18adapt_dense_e_nutsIN34model_Exponential_expert_namespace24model_Exponential_expertEN5boost6random23additive_combine_engineINS5_26linear_congruential_engineIjLj40014ELj0ELj2147483563EEENS7_IjLj40692ELj0ELj2147483399EEEEEE10transitionERNS0_6sampleERNS_9callbacks6loggerE"
 "_ZN4stan4mcmc18adapt_dense_e_nutsIN34model_Exponential_expert_namespace24model_Exponential_expertEN5boost6random23additive_combine_engineINS5_26linear_congruential_engineIjLj40014ELj0ELj2147483563EEENS7_IjLj40692ELj0ELj2147483399EEEEEE20disengage_adaptationEv"
 "_ZN4stan4mcmc18adapt_dense_e_nutsIN34model_Exponential_expert_namespace24model_Exponential_expertEN5boost6random23additive_combine_engineINS5_26linear_congruential_engineIjLj40014ELj0ELj2147483563EEENS7_IjLj40692ELj0ELj2147483399EEEEEED0Ev"
 "_ZN4stan4mcmc18adapt_dense_e_nutsIN34model_Exponential_expert_namespace24model_Exponential_expertEN5boost6random23additive_combine_engineINS5_26linear_congruential_engineIjLj40014ELj0ELj2147483563EEENS7_IjLj40692ELj0ELj2147483399EEEEEED1Ev"
 "_ZN4stan4mcmc18dense_e_static_hmcIN34model_Exponential_expert_namespace24model_Exponential_expertEN5boost6random23additive_combine_engineINS5_26linear_congruential_engineIjLj40014ELj0ELj2147483563EEENS7_IjLj40692ELj0ELj2147483399EEEEEED0Ev"
 "_ZN4stan4mcmc18dense_e_static_hmcIN34model_Exponential_expert_namespace24model_Exponential_expertEN5boost6random23additive_combine_engineINS5_26linear_congruential_engineIjLj40014ELj0ELj2147483563EEENS7_IjLj40692ELj0ELj2147483399EEEEEED1Ev"
 "_ZN4stan4mcmc19fixed_param_sampler10transitionERNS0_6sampleERNS_9callbacks6loggerE"
 "_ZN4stan4mcmc19fixed_param_samplerD0Ev"
 "_ZN4stan4mcmc19fixed_param_samplerD1Ev"
 "_ZN4stan4mcmc19stepsize_adaptation14learn_stepsizeERdd"
 "_ZN4stan4mcmc19stepsize_adaptation7restartEv"
 "_ZN4stan4mcmc19windowed_adaptation17set_window_paramsEjjjjRNS_9callbacks6loggerE"
 "_ZN4stan4mcmc19windowed_adaptation7restartEv"
 "_ZN4stan4mcmc23adapt_diag_e_static_hmcIN34model_Exponential_expert_namespace24model_Exponential_expertEN5boost6random23additive_combine_engineINS5_26linear_congruential_engineIjLj40014ELj0ELj2147483563EEENS7_IjLj40692ELj0ELj2147483399EEEEEE10transitionERNS0_6sampleERNS_9callbacks6loggerE"
 "_ZN4stan4mcmc23adapt_diag_e_static_hmcIN34model_Exponential_expert_namespace24model_Exponential_expertEN5boost6random23additive_combine_engineINS5_26linear_congruential_engineIjLj40014ELj0ELj2147483563EEENS7_IjLj40692ELj0ELj2147483399EEEEEE20disengage_adaptationEv"
 "_ZN4stan4mcmc23adapt_diag_e_static_hmcIN34model_Exponential_expert_namespace24model_Exponential_expertEN5boost6random23additive_combine_engineINS5_26linear_congruential_engineIjLj40014ELj0ELj2147483563EEENS7_IjLj40692ELj0ELj2147483399EEEEEED0Ev"
 "_ZN4stan4mcmc23adapt_diag_e_static_hmcIN34model_Exponential_expert_namespace24model_Exponential_expertEN5boost6random23additive_combine_engineINS5_26linear_congruential_engineIjLj40014ELj0ELj2147483563EEENS7_IjLj40692ELj0ELj2147483399EEEEEED1Ev"
 "_ZN4stan4mcmc23adapt_unit_e_static_hmcIN34model_Exponential_expert_namespace24model_Exponential_expertEN5boost6random23additive_combine_engineINS5_26linear_congruential_engineIjLj40014ELj0ELj2147483563EEENS7_IjLj40692ELj0ELj2147483399EEEEEE10transitionERNS0_6sampleERNS_9callbacks6loggerE"
 "_ZN4stan4mcmc23adapt_unit_e_static_hmcIN34model_Exponential_expert_namespace24model_Exponential_expertEN5boost6random23additive_combine_engineINS5_26linear_congruential_engineIjLj40014ELj0ELj2147483563EEENS7_IjLj40692ELj0ELj2147483399EEEEEE20disengage_adaptationEv"
 "_ZN4stan4mcmc23adapt_unit_e_static_hmcIN34model_Exponential_expert_namespace24model_Exponential_expertEN5boost6random23additive_combine_engineINS5_26linear_congruential_engineIjLj40014ELj0ELj2147483563EEENS7_IjLj40692ELj0ELj2147483399EEEEEED0Ev"
 "_ZN4stan4mcmc23adapt_unit_e_static_hmcIN34model_Exponential_expert_namespace24model_Exponential_expertEN5boost6random23additive_combine_engineINS5_26linear_congruential_engineIjLj40014ELj0ELj2147483563EEENS7_IjLj40692ELj0ELj2147483399EEEEEED1Ev"
 "_ZN4stan4mcmc24adapt_dense_e_static_hmcIN34model_Exponential_expert_namespace24model_Exponential_expertEN5boost6random23additive_combine_engineINS5_26linear_congruential_engineIjLj40014ELj0ELj2147483563EEENS7_IjLj40692ELj0ELj2147483399EEEEEE10transitionERNS0_6sampleERNS_9callbacks6loggerE"
 "_ZN4stan4mcmc24adapt_dense_e_static_hmcIN34model_Exponential_expert_namespace24model_Exponential_expertEN5boost6random23additive_combine_engineINS5_26linear_congruential_engineIjLj40014ELj0ELj2147483563EEENS7_IjLj40692ELj0ELj2147483399EEEEEE20disengage_adaptationEv"
 "_ZN4stan4mcmc24adapt_dense_e_static_hmcIN34model_Exponential_expert_namespace24model_Exponential_expertEN5boost6random23additive_combine_engineINS5_26linear_congruential_engineIjLj40014ELj0ELj2147483563EEENS7_IjLj40692ELj0ELj2147483399EEEEEED0Ev"
 "_ZN4stan4mcmc24adapt_dense_e_static_hmcIN34model_Exponential_expert_namespace24model_Exponential_expertEN5boost6random23additive_combine_engineINS5_26linear_congruential_engineIjLj40014ELj0ELj2147483563EEENS7_IjLj40692ELj0ELj2147483399EEEEEED1Ev"
 "_ZN4stan4mcmc6sample22get_sample_param_namesERSt6vectorINSt7__cxx1112basic_stringIcSt11char_traitsIcESaIcEEESaIS8_EE"
 "_ZN4stan4mcmc6sampleD0Ev"
 "_ZN4stan4mcmc6sampleD1Ev"
 "_ZN4stan4mcmc8base_hmcIN34model_Exponential_expert_namespace24model_Exponential_expertENS0_13diag_e_metricENS0_13expl_leapfrogEN5boost6random23additive_combine_engineINS7_26linear_congruential_engineIjLj40014ELj0ELj2147483563EEENS9_IjLj40692ELj0ELj2147483399EEEEEE13init_stepsizeERNS_9callbacks6loggerE"
 "_ZN4stan4mcmc8base_hmcIN34model_Exponential_expert_namespace24model_Exponential_expertENS0_13diag_e_metricENS0_13expl_leapfrogEN5boost6random23additive_combine_engineINS7_26linear_congruential_engineIjLj40014ELj0ELj2147483563EEENS9_IjLj40692ELj0ELj2147483399EEEEEE19set_stepsize_jitterEd"
 "_ZN4stan4mcmc8base_hmcIN34model_Exponential_expert_namespace24model_Exponential_expertENS0_13diag_e_metricENS0_13expl_leapfrogEN5boost6random23additive_combine_engineINS7_26linear_congruential_engineIjLj40014ELj0ELj2147483563EEENS9_IjLj40692ELj0ELj2147483399EEEEEE19write_sampler_stateERNS_9callbacks6writerE"
 "_ZN4stan4mcmc8base_hmcIN34model_Exponential_expert_namespace24model_Exponential_expertENS0_13diag_e_metricENS0_13expl_leapfrogEN5boost6random23additive_combine_engineINS7_26linear_congruential_engineIjLj40014ELj0ELj2147483563EEENS9_IjLj40692ELj0ELj2147483399EEEEEE20set_nominal_stepsizeEd"
 "_ZN4stan4mcmc8base_hmcIN34model_Exponential_expert_namespace24model_Exponential_expertENS0_13diag_e_metricENS0_13expl_leapfrogEN5boost6random23additive_combine_engineINS7_26linear_congruential_engineIjLj40014ELj0ELj2147483563EEENS9_IjLj40692ELj0ELj2147483399EEEEEE22write_sampler_stepsizeERNS_9callbacks6writerE"
 "_ZN4stan4mcmc8base_hmcIN34model_Exponential_expert_namespace24model_Exponential_expertENS0_13diag_e_metricENS0_13expl_leapfrogEN5boost6random23additive_combine_engineINS7_26linear_congruential_engineIjLj40014ELj0ELj2147483563EEENS9_IjLj40692ELj0ELj2147483399EEEEEE23get_sampler_diagnosticsERSt6vectorIdSaIdEE"
 "_ZN4stan4mcmc8base_hmcIN34model_Exponential_expert_namespace24model_Exponential_expertENS0_13diag_e_metricENS0_13expl_leapfrogEN5boost6random23additive_combine_engineINS7_26linear_congruential_engineIjLj40014ELj0ELj2147483563EEENS9_IjLj40692ELj0ELj2147483399EEEEEE28get_sampler_diagnostic_namesERSt6vectorINSt7__cxx1112basic_stringIcSt11char_traitsIcESaIcEEESaISK_EESN_"
 "_ZN4stan4mcmc8base_hmcIN34model_Exponential_expert_namespace24model_Exponential_expertENS0_13unit_e_metricENS0_13expl_leapfrogEN5boost6random23additive_combine_engineINS7_26linear_congruential_engineIjLj40014ELj0ELj2147483563EEENS9_IjLj40692ELj0ELj2147483399EEEEEE13init_stepsizeERNS_9callbacks6loggerE"
 "_ZN4stan4mcmc8base_hmcIN34model_Exponential_expert_namespace24model_Exponential_expertENS0_13unit_e_metricENS0_13expl_leapfrogEN5boost6random23additive_combine_engineINS7_26linear_congruential_engineIjLj40014ELj0ELj2147483563EEENS9_IjLj40692ELj0ELj2147483399EEEEEE19set_stepsize_jitterEd"
 "_ZN4stan4mcmc8base_hmcIN34model_Exponential_expert_namespace24model_Exponential_expertENS0_13unit_e_metricENS0_13expl_leapfrogEN5boost6random23additive_combine_engineINS7_26linear_congruential_engineIjLj40014ELj0ELj2147483563EEENS9_IjLj40692ELj0ELj2147483399EEEEEE19write_sampler_stateERNS_9callbacks6writerE"
 "_ZN4stan4mcmc8base_hmcIN34model_Exponential_expert_namespace24model_Exponential_expertENS0_13unit_e_metricENS0_13expl_leapfrogEN5boost6random23additive_combine_engineINS7_26linear_congruential_engineIjLj40014ELj0ELj2147483563EEENS9_IjLj40692ELj0ELj2147483399EEEEEE20set_nominal_stepsizeEd"
 "_ZN4stan4mcmc8base_hmcIN34model_Exponential_expert_namespace24model_Exponential_expertENS0_13unit_e_metricENS0_13expl_leapfrogEN5boost6random23additive_combine_engineINS7_26linear_congruential_engineIjLj40014ELj0ELj2147483563EEENS9_IjLj40692ELj0ELj2147483399EEEEEE22write_sampler_stepsizeERNS_9callbacks6writerE"
 "_ZN4stan4mcmc8base_hmcIN34model_Exponential_expert_namespace24model_Exponential_expertENS0_13unit_e_metricENS0_13expl_leapfrogEN5boost6random23additive_combine_engineINS7_26linear_congruential_engineIjLj40014ELj0ELj2147483563EEENS9_IjLj40692ELj0ELj2147483399EEEEEE23get_sampler_diagnosticsERSt6vectorIdSaIdEE"
 "_ZN4stan4mcmc8base_hmcIN34model_Exponential_expert_namespace24model_Exponential_expertENS0_13unit_e_metricENS0_13expl_leapfrogEN5boost6random23additive_combine_engineINS7_26linear_congruential_engineIjLj40014ELj0ELj2147483563EEENS9_IjLj40692ELj0ELj2147483399EEEEEE28get_sampler_diagnostic_namesERSt6vectorINSt7__cxx1112basic_stringIcSt11char_traitsIcESaIcEEESaISK_EESN_"
 "_ZN4stan4mcmc8base_hmcIN34model_Exponential_expert_namespace24model_Exponential_expertENS0_14dense_e_metricENS0_13expl_leapfrogEN5boost6random23additive_combine_engineINS7_26linear_congruential_engineIjLj40014ELj0ELj2147483563EEENS9_IjLj40692ELj0ELj2147483399EEEEEE13init_stepsizeERNS_9callbacks6loggerE"
 "_ZN4stan4mcmc8base_hmcIN34model_Exponential_expert_namespace24model_Exponential_expertENS0_14dense_e_metricENS0_13expl_leapfrogEN5boost6random23additive_combine_engineINS7_26linear_congruential_engineIjLj40014ELj0ELj2147483563EEENS9_IjLj40692ELj0ELj2147483399EEEEEE19set_stepsize_jitterEd"
 "_ZN4stan4mcmc8base_hmcIN34model_Exponential_expert_namespace24model_Exponential_expertENS0_14dense_e_metricENS0_13expl_leapfrogEN5boost6random23additive_combine_engineINS7_26linear_congruential_engineIjLj40014ELj0ELj2147483563EEENS9_IjLj40692ELj0ELj2147483399EEEEEE19write_sampler_stateERNS_9callbacks6writerE"
 "_ZN4stan4mcmc8base_hmcIN34model_Exponential_expert_namespace24model_Exponential_expertENS0_14dense_e_metricENS0_13expl_leapfrogEN5boost6random23additive_combine_engineINS7_26linear_congruential_engineIjLj40014ELj0ELj2147483563EEENS9_IjLj40692ELj0ELj2147483399EEEEEE20set_nominal_stepsizeEd"
 "_ZN4stan4mcmc8base_hmcIN34model_Exponential_expert_namespace24model_Exponential_expertENS0_14dense_e_metricENS0_13expl_leapfrogEN5boost6random23additive_combine_engineINS7_26linear_congruential_engineIjLj40014ELj0ELj2147483563EEENS9_IjLj40692ELj0ELj2147483399EEEEEE22write_sampler_stepsizeERNS_9callbacks6writerE"
 "_ZN4stan4mcmc8base_hmcIN34model_Exponential_expert_namespace24model_Exponential_expertENS0_14dense_e_metricENS0_13expl_leapfrogEN5boost6random23additive_combine_engineINS7_26linear_congruential_engineIjLj40014ELj0ELj2147483563EEENS9_IjLj40692ELj0ELj2147483399EEEEEE23get_sampler_diagnosticsERSt6vectorIdSaIdEE"
 "_ZN4stan4mcmc8base_hmcIN34model_Exponential_expert_namespace24model_Exponential_expertENS0_14dense_e_metricENS0_13expl_leapfrogEN5boost6random23additive_combine_engineINS7_26linear_congruential_engineIjLj40014ELj0ELj2147483563EEENS9_IjLj40692ELj0ELj2147483399EEEEEE28get_sampler_diagnostic_namesERSt6vectorINSt7__cxx1112basic_stringIcSt11char_traitsIcESaIcEEESaISK_EESN_"
 "_ZN4stan4mcmc8ps_point10get_paramsERSt6vectorIdSaIdEE"
 "_ZN4stan4mcmc8ps_point12write_metricERNS_9callbacks6writerE"
 "_ZN4stan4mcmc8ps_point15get_param_namesERSt6vectorINSt7__cxx1112basic_stringIcSt11char_traitsIcESaIcEEESaIS8_EESB_"
 "_ZN4stan4mcmc8ps_pointC1ERKS1_"
 "_ZN4stan4mcmc8ps_pointD1Ev"
 "_ZN4stan4mcmc8ps_pointD2Ev"
 "_ZN4stan4mcmc8ps_pointaSERKS1_"
 "_ZN4stan4mcmc9base_mcmc18get_sampler_paramsERSt6vectorIdSaIdEE"
 "_ZN4stan4mcmc9base_mcmc19write_sampler_stateERNS_9callbacks6writerE"
 "_ZN4stan4mcmc9base_mcmc23get_sampler_diagnosticsERSt6vectorIdSaIdEE"
 "_ZN4stan4mcmc9base_mcmc23get_sampler_param_namesERSt6vectorINSt7__cxx1112basic_stringIcSt11char_traitsIcESaIcEEESaIS8_EE"
 "_ZN4stan4mcmc9base_mcmc28get_sampler_diagnostic_namesERSt6vectorINSt7__cxx1112basic_stringIcSt11char_traitsIcESaIcEEESaIS8_EESB_"
 "_ZN4stan4mcmc9base_nutsIN34model_Exponential_expert_namespace24model_Exponential_expertENS0_13diag_e_metricENS0_13expl_leapfrogEN5boost6random23additive_combine_engineINS7_26linear_congruential_engineIjLj40014ELj0ELj2147483563EEENS9_IjLj40692ELj0ELj2147483399EEEEEE10build_treeEiRNS0_8ps_pointERN5Eigen6MatrixIdLin1ELi1ELi0ELin1ELi1EEESJ_SJ_SJ_SJ_ddRiRdSL_RNS_9callbacks6loggerE"
 "_ZN4stan4mcmc9base_nutsIN34model_Exponential_expert_namespace24model_Exponential_expertENS0_13diag_e_metricENS0_13expl_leapfrogEN5boost6random23additive_combine_engineINS7_26linear_congruential_engineIjLj40014ELj0ELj2147483563EEENS9_IjLj40692ELj0ELj2147483399EEEEEE10transitionERNS0_6sampleERNS_9callbacks6loggerE"
 "_ZN4stan4mcmc9base_nutsIN34model_Exponential_expert_namespace24model_Exponential_expertENS0_13diag_e_metricENS0_13expl_leapfrogEN5boost6random23additive_combine_engineINS7_26linear_congruential_engineIjLj40014ELj0ELj2147483563EEENS9_IjLj40692ELj0ELj2147483399EEEEEE17compute_criterionERN5Eigen6MatrixIdLin1ELi1ELi0ELin1ELi1EEESH_SH_"
 "_ZN4stan4mcmc9base_nutsIN34model_Exponential_expert_namespace24model_Exponential_expertENS0_13diag_e_metricENS0_13expl_leapfrogEN5boost6random23additive_combine_engineINS7_26linear_congruential_engineIjLj40014ELj0ELj2147483563EEENS9_IjLj40692ELj0ELj2147483399EEEEEE18get_sampler_paramsERSt6vectorIdSaIdEE"
 "_ZN4stan4mcmc9base_nutsIN34model_Exponential_expert_namespace24model_Exponential_expertENS0_13diag_e_metricENS0_13expl_leapfrogEN5boost6random23additive_combine_engineINS7_26linear_congruential_engineIjLj40014ELj0ELj2147483563EEENS9_IjLj40692ELj0ELj2147483399EEEEEE23get_sampler_param_namesERSt6vectorINSt7__cxx1112basic_stringIcSt11char_traitsIcESaIcEEESaISK_EE"
 "_ZN4stan4mcmc9base_nutsIN34model_Exponential_expert_namespace24model_Exponential_expertENS0_13diag_e_metricENS0_13expl_leapfrogEN5boost6random23additive_combine_engineINS7_26linear_congruential_engineIjLj40014ELj0ELj2147483563EEENS9_IjLj40692ELj0ELj2147483399EEEEEED0Ev"
 "_ZN4stan4mcmc9base_nutsIN34model_Exponential_expert_namespace24model_Exponential_expertENS0_13diag_e_metricENS0_13expl_leapfrogEN5boost6random23additive_combine_engineINS7_26linear_congruential_engineIjLj40014ELj0ELj2147483563EEENS9_IjLj40692ELj0ELj2147483399EEEEEED1Ev"
 "_ZN4stan4mcmc9base_nutsIN34model_Exponential_expert_namespace24model_Exponential_expertENS0_13unit_e_metricENS0_13expl_leapfrogEN5boost6random23additive_combine_engineINS7_26linear_congruential_engineIjLj40014ELj0ELj2147483563EEENS9_IjLj40692ELj0ELj2147483399EEEEEE10build_treeEiRNS0_8ps_pointERN5Eigen6MatrixIdLin1ELi1ELi0ELin1ELi1EEESJ_SJ_SJ_SJ_ddRiRdSL_RNS_9callbacks6loggerE"
 "_ZN4stan4mcmc9base_nutsIN34model_Exponential_expert_namespace24model_Exponential_expertENS0_13unit_e_metricENS0_13expl_leapfrogEN5boost6random23additive_combine_engineINS7_26linear_congruential_engineIjLj40014ELj0ELj2147483563EEENS9_IjLj40692ELj0ELj2147483399EEEEEE10transitionERNS0_6sampleERNS_9callbacks6loggerE"
 "_ZN4stan4mcmc9base_nutsIN34model_Exponential_expert_namespace24model_Exponential_expertENS0_13unit_e_metricENS0_13expl_leapfrogEN5boost6random23additive_combine_engineINS7_26linear_congruential_engineIjLj40014ELj0ELj2147483563EEENS9_IjLj40692ELj0ELj2147483399EEEEEE17compute_criterionERN5Eigen6MatrixIdLin1ELi1ELi0ELin1ELi1EEESH_SH_"
 "_ZN4stan4mcmc9base_nutsIN34model_Exponential_expert_namespace24model_Exponential_expertENS0_13unit_e_metricENS0_13expl_leapfrogEN5boost6random23additive_combine_engineINS7_26linear_congruential_engineIjLj40014ELj0ELj2147483563EEENS9_IjLj40692ELj0ELj2147483399EEEEEE18get_sampler_paramsERSt6vectorIdSaIdEE"
 "_ZN4stan4mcmc9base_nutsIN34model_Exponential_expert_namespace24model_Exponential_expertENS0_13unit_e_metricENS0_13expl_leapfrogEN5boost6random23additive_combine_engineINS7_26linear_congruential_engineIjLj40014ELj0ELj2147483563EEENS9_IjLj40692ELj0ELj2147483399EEEEEE23get_sampler_param_namesERSt6vectorINSt7__cxx1112basic_stringIcSt11char_traitsIcESaIcEEESaISK_EE"
 "_ZN4stan4mcmc9base_nutsIN34model_Exponential_expert_namespace24model_Exponential_expertENS0_13unit_e_metricENS0_13expl_leapfrogEN5boost6random23additive_combine_engineINS7_26linear_congruential_engineIjLj40014ELj0ELj2147483563EEENS9_IjLj40692ELj0ELj2147483399EEEEEED0Ev"
 "_ZN4stan4mcmc9base_nutsIN34model_Exponential_expert_namespace24model_Exponential_expertENS0_13unit_e_metricENS0_13expl_leapfrogEN5boost6random23additive_combine_engineINS7_26linear_congruential_engineIjLj40014ELj0ELj2147483563EEENS9_IjLj40692ELj0ELj2147483399EEEEEED1Ev"
 "_ZN4stan4mcmc9base_nutsIN34model_Exponential_expert_namespace24model_Exponential_expertENS0_14dense_e_metricENS0_13expl_leapfrogEN5boost6random23additive_combine_engineINS7_26linear_congruential_engineIjLj40014ELj0ELj2147483563EEENS9_IjLj40692ELj0ELj2147483399EEEEEE10build_treeEiRNS0_8ps_pointERN5Eigen6MatrixIdLin1ELi1ELi0ELin1ELi1EEESJ_SJ_SJ_SJ_ddRiRdSL_RNS_9callbacks6loggerE"
 "_ZN4stan4mcmc9base_nutsIN34model_Exponential_expert_namespace24model_Exponential_expertENS0_14dense_e_metricENS0_13expl_leapfrogEN5boost6random23additive_combine_engineINS7_26linear_congruential_engineIjLj40014ELj0ELj2147483563EEENS9_IjLj40692ELj0ELj2147483399EEEEEE10transitionERNS0_6sampleERNS_9callbacks6loggerE"
 "_ZN4stan4mcmc9base_nutsIN34model_Exponential_expert_namespace24model_Exponential_expertENS0_14dense_e_metricENS0_13expl_leapfrogEN5boost6random23additive_combine_engineINS7_26linear_congruential_engineIjLj40014ELj0ELj2147483563EEENS9_IjLj40692ELj0ELj2147483399EEEEEE17compute_criterionERN5Eigen6MatrixIdLin1ELi1ELi0ELin1ELi1EEESH_SH_"
 "_ZN4stan4mcmc9base_nutsIN34model_Exponential_expert_namespace24model_Exponential_expertENS0_14dense_e_metricENS0_13expl_leapfrogEN5boost6random23additive_combine_engineINS7_26linear_congruential_engineIjLj40014ELj0ELj2147483563EEENS9_IjLj40692ELj0ELj2147483399EEEEEE18get_sampler_paramsERSt6vectorIdSaIdEE"
 "_ZN4stan4mcmc9base_nutsIN34model_Exponential_expert_namespace24model_Exponential_expertENS0_14dense_e_metricENS0_13expl_leapfrogEN5boost6random23additive_combine_engineINS7_26linear_congruential_engineIjLj40014ELj0ELj2147483563EEENS9_IjLj40692ELj0ELj2147483399EEEEEE23get_sampler_param_namesERSt6vectorINSt7__cxx1112basic_stringIcSt11char_traitsIcESaIcEEESaISK_EE"
 "_ZN4stan4mcmc9base_nutsIN34model_Exponential_expert_namespace24model_Exponential_expertENS0_14dense_e_metricENS0_13expl_leapfrogEN5boost6random23additive_combine_engineINS7_26linear_congruential_engineIjLj40014ELj0ELj2147483563EEENS9_IjLj40692ELj0ELj2147483399EEEEEED0Ev"
 "_ZN4stan4mcmc9base_nutsIN34model_Exponential_expert_namespace24model_Exponential_expertENS0_14dense_e_metricENS0_13expl_leapfrogEN5boost6random23additive_combine_engineINS7_26linear_congruential_engineIjLj40014ELj0ELj2147483563EEENS9_IjLj40692ELj0ELj2147483399EEEEEED1Ev"
 "_ZN4stan5model13log_prob_gradILb1ELb0EN34model_Exponential_expert_namespace24model_Exponential_expertEEEdRKT1_RSt6vectorIdSaIdEERS7_IiSaIiEESA_PSo"
 "_ZN4stan5model13log_prob_gradILb1ELb1EN34model_Exponential_expert_namespace24model_Exponential_expertEEEdRKT1_RSt6vectorIdSaIdEERS7_IiSaIiEESA_PSo"
 "_ZN4stan5model14test_gradientsILb1ELb1EN34model_Exponential_expert_namespace24model_Exponential_expertEEEiRKT1_RSt6vectorIdSaIdEERS7_IiSaIiEEddRNS_9callbacks9interruptERNSE_6loggerERNSE_6writerE"
 "_ZN4stan5model15log_prob_proptoILb0EN34model_Exponential_expert_namespace24model_Exponential_expertEEEdRKT0_RSt6vectorIdSaIdEERS7_IiSaIiEEPSo"
 "_ZN4stan5model15log_prob_proptoILb1EN34model_Exponential_expert_namespace24model_Exponential_expertEEEdRKT0_RSt6vectorIdSaIdEERS7_IiSaIiEEPSo"
 "_ZN4stan5model18grad_hess_log_probILb1ELb0EN34model_Exponential_expert_namespace24model_Exponential_expertEEEdRKT1_RSt6vectorIdSaIdEERS7_IiSaIiEESA_SA_PSo"
 "_ZN4stan5model6rvalueISt6vectorIS2_IdSaIdEESaIS4_EENS0_10index_omniENS0_15cons_index_listIS7_NS8_INS0_9index_uniENS0_14nil_index_listEEEEEEENS0_13rvalue_returnIS2_IT_SaISE_EENS8_IT0_T1_EEE4typeERKSG_RKSJ_PKci"
 "_ZN4stan5model8gradientIN34model_Exponential_expert_namespace24model_Exponential_expertEEEvRKT_RKN5Eigen6MatrixIdLin1ELi1ELi0ELin1ELi1EEERdRS9_RNS_9callbacks6loggerE"
 "_ZN4stan5model9prob_gradD0Ev"
 "_ZN4stan5model9prob_gradD1Ev"
 "_ZN4stan8services12experimental4advi8fullrankIN34model_Exponential_expert_namespace24model_Exponential_expertEEEiRT_RNS_2io11var_contextEjjdiiiddbiiiRNS_9callbacks9interruptERNSB_6loggerERNSB_6writerESH_SH_"
 "_ZN4stan8services12experimental4advi9meanfieldIN34model_Exponential_expert_namespace24model_Exponential_expertEEEiRT_RNS_2io11var_contextEjjdiiiddbiiiRNS_9callbacks9interruptERNSB_6loggerERNSB_6writerESH_SH_"
 "_ZN4stan8services19standalone_generateIN34model_Exponential_expert_namespace24model_Exponential_expertEEEiRKT_RKN5Eigen6MatrixIdLin1ELin1ELi0ELin1ELin1EEEjRNS_9callbacks9interruptERNSC_6loggerERNSC_6writerE"
 "_ZN4stan8services20get_model_parametersIN34model_Exponential_expert_namespace24model_Exponential_expertEEEvRKT_RSt6vectorINSt7__cxx1112basic_stringIcSt11char_traitsIcESaIcEEESaISD_EERS7_IS7_IySaIyEESaISI_EE"
 "_ZN4stan8services4util10create_rngEjj"
 "_ZN4stan8services4util10initializeILb0EN34model_Exponential_expert_namespace24model_Exponential_expertEN5boost6random23additive_combine_engineINS6_26linear_congruential_engineIjLj40014ELj0ELj2147483563EEENS8_IjLj40692ELj0ELj2147483399EEEEEEESt6vectorIdSaIdEERT0_RNS_2io11var_contextERT1_dbRNS_9callbacks6loggerERNSM_6writerE"
 "_ZN4stan8services4util10initializeILb1EN34model_Exponential_expert_namespace24model_Exponential_expertEN5boost6random23additive_combine_engineINS6_26linear_congruential_engineIjLj40014ELj0ELj2147483563EEENS8_IjLj40692ELj0ELj2147483399EEEEEEESt6vectorIdSaIdEERT0_RNS_2io11var_contextERT1_dbRNS_9callbacks6loggerERNSM_6writerE"
 "_ZN4stan8services4util11mcmc_writer10log_timingEdd"
 "_ZN4stan8services4util11mcmc_writer12write_timingEddRNS_9callbacks6writerE"
 "_ZN4stan8services4util11mcmc_writer18write_adapt_finishERNS_4mcmc9base_mcmcE"
 "_ZN4stan8services4util11mcmc_writer18write_sample_namesIN34model_Exponential_expert_namespace24model_Exponential_expertEEEvRNS_4mcmc6sampleERNS6_9base_mcmcERT_"
 "_ZN4stan8services4util11mcmc_writer19write_sample_paramsIN34model_Exponential_expert_namespace24model_Exponential_expertEN5boost6random23additive_combine_engineINS7_26linear_congruential_engineIjLj40014ELj0ELj2147483563EEENS9_IjLj40692ELj0ELj2147483399EEEEEEEvRT0_RNS_4mcmc6sampleERNSF_9base_mcmcERT_"
 "_ZN4stan8services4util11mcmc_writer22write_diagnostic_namesIN34model_Exponential_expert_namespace24model_Exponential_expertEEEvNS_4mcmc6sampleERNS6_9base_mcmcERT_"
 "_ZN4stan8services4util11run_samplerIN34model_Exponential_expert_namespace24model_Exponential_expertEN5boost6random23additive_combine_engineINS6_26linear_congruential_engineIjLj40014ELj0ELj2147483563EEENS8_IjLj40692ELj0ELj2147483399EEEEEEEvRNS_4mcmc9base_mcmcERT_RSt6vectorIdSaIdEEiiiibRT0_RNS_9callbacks9interruptERNSN_6loggerERNSN_6writerEST_"
 "_ZN4stan8services4util20experimental_messageERNS_9callbacks6loggerE"
 "_ZN4stan8services4util20generate_transitionsIN34model_Exponential_expert_namespace24model_Exponential_expertEN5boost6random23additive_combine_engineINS6_26linear_congruential_engineIjLj40014ELj0ELj2147483563EEENS8_IjLj40692ELj0ELj2147483399EEEEEEEvRNS_4mcmc9base_mcmcEiiiiibbRNS1_11mcmc_writerERNSC_6sampleERT_RT0_RNS_9callbacks9interruptERNSN_6loggerE"
 "_ZN4stan8services4util20read_diag_inv_metricERNS_2io11var_contextEyRNS_9callbacks6loggerE"
 "_ZN4stan8services4util20run_adaptive_samplerINS_4mcmc17adapt_diag_e_nutsIN34model_Exponential_expert_namespace24model_Exponential_expertEN5boost6random23additive_combine_engineINS8_26linear_congruential_engineIjLj40014ELj0ELj2147483563EEENSA_IjLj40692ELj0ELj2147483399EEEEEEES6_SD_EEvRT_RT0_RSt6vectorIdSaIdEEiiiibRT1_RNS_9callbacks9interruptERNSP_6loggerERNSP_6writerESV_"
 "_ZN4stan8services4util20run_adaptive_samplerINS_4mcmc17adapt_unit_e_nutsIN34model_Exponential_expert_namespace24model_Exponential_expertEN5boost6random23additive_combine_engineINS8_26linear_congruential_engineIjLj40014ELj0ELj2147483563EEENSA_IjLj40692ELj0ELj2147483399EEEEEEES6_SD_EEvRT_RT0_RSt6vectorIdSaIdEEiiiibRT1_RNS_9callbacks9interruptERNSP_6loggerERNSP_6writerESV_"
 "_ZN4stan8services4util20run_adaptive_samplerINS_4mcmc18adapt_dense_e_nutsIN34model_Exponential_expert_namespace24model_Exponential_expertEN5boost6random23additive_combine_engineINS8_26linear_congruential_engineIjLj40014ELj0ELj2147483563EEENSA_IjLj40692ELj0ELj2147483399EEEEEEES6_SD_EEvRT_RT0_RSt6vectorIdSaIdEEiiiibRT1_RNS_9callbacks9interruptERNSP_6loggerERNSP_6writerESV_"
 "_ZN4stan8services4util20run_adaptive_samplerINS_4mcmc23adapt_diag_e_static_hmcIN34model_Exponential_expert_namespace24model_Exponential_expertEN5boost6random23additive_combine_engineINS8_26linear_congruential_engineIjLj40014ELj0ELj2147483563EEENSA_IjLj40692ELj0ELj2147483399EEEEEEES6_SD_EEvRT_RT0_RSt6vectorIdSaIdEEiiiibRT1_RNS_9callbacks9interruptERNSP_6loggerERNSP_6writerESV_"
 "_ZN4stan8services4util20run_adaptive_samplerINS_4mcmc23adapt_unit_e_static_hmcIN34model_Exponential_expert_namespace24model_Exponential_expertEN5boost6random23additive_combine_engineINS8_26linear_congruential_engineIjLj40014ELj0ELj2147483563EEENSA_IjLj40692ELj0ELj2147483399EEEEEEES6_SD_EEvRT_RT0_RSt6vectorIdSaIdEEiiiibRT1_RNS_9callbacks9interruptERNSP_6loggerERNSP_6writerESV_"
 "_ZN4stan8services4util20run_adaptive_samplerINS_4mcmc24adapt_dense_e_static_hmcIN34model_Exponential_expert_namespace24model_Exponential_expertEN5boost6random23additive_combine_engineINS8_26linear_congruential_engineIjLj40014ELj0ELj2147483563EEENSA_IjLj40692ELj0ELj2147483399EEEEEEES6_SD_EEvRT_RT0_RSt6vectorIdSaIdEEiiiibRT1_RNS_9callbacks9interruptERNSP_6loggerERNSP_6writerESV_"
 "_ZN4stan8services4util21read_dense_inv_metricERNS_2io11var_contextEyRNS_9callbacks6loggerE"
 "_ZN4stan8services4util24validate_diag_inv_metricERKN5Eigen6MatrixIdLin1ELi1ELi0ELin1ELi1EEERNS_9callbacks6loggerE"
 "_ZN4stan8services4util25validate_dense_inv_metricERKN5Eigen6MatrixIdLin1ELin1ELi0ELin1ELin1EEERNS_9callbacks6loggerE"
 "_ZN4stan8services4util29create_unit_e_diag_inv_metricEy"
 "_ZN4stan8services4util30create_unit_e_dense_inv_metricEy"
 "_ZN4stan8services4util9gq_writer15write_gq_valuesIN34model_Exponential_expert_namespace24model_Exponential_expertEN5boost6random23additive_combine_engineINS7_26linear_congruential_engineIjLj40014ELj0ELj2147483563EEENS9_IjLj40692ELj0ELj2147483399EEEEEEEvRKT_RT0_RKSt6vectorIdSaIdEE"
 "_ZN4stan8services6sample11fixed_paramIN34model_Exponential_expert_namespace24model_Exponential_expertEEEiRT_RNS_2io11var_contextEjjdiiiRNS_9callbacks9interruptERNSA_6loggerERNSA_6writerESG_SG_"
 "_ZN4stan8services6sample15hmc_nuts_diag_eIN34model_Exponential_expert_namespace24model_Exponential_expertEEEiRT_RNS_2io11var_contextES9_jjdiiibiddiRNS_9callbacks9interruptERNSA_6loggerERNSA_6writerESG_SG_"
 "_ZN4stan8services6sample16hmc_nuts_dense_eIN34model_Exponential_expert_namespace24model_Exponential_expertEEEiRT_RNS_2io11var_contextES9_jjdiiibiddiRNS_9callbacks9interruptERNSA_6loggerERNSA_6writerESG_SG_"
 "_ZN4stan8services6sample17hmc_static_diag_eIN34model_Exponential_expert_namespace24model_Exponential_expertEEEiRT_RNS_2io11var_contextES9_jjdiiibidddRNS_9callbacks9interruptERNSA_6loggerERNSA_6writerESG_SG_"
 "_ZN4stan8services6sample18hmc_static_dense_eIN34model_Exponential_expert_namespace24model_Exponential_expertEEEiRT_RNS_2io11var_contextES9_jjdiiibidddRNS_9callbacks9interruptERNSA_6loggerERNSA_6writerESG_SG_"
 "_ZN4stan8services6sample21hmc_nuts_diag_e_adaptIN34model_Exponential_expert_namespace24model_Exponential_expertEEEiRT_RNS_2io11var_contextES9_jjdiiibiddiddddjjjRNS_9callbacks9interruptERNSA_6loggerERNSA_6writerESG_SG_"
 "_ZN4stan8services6sample22hmc_nuts_dense_e_adaptIN34model_Exponential_expert_namespace24model_Exponential_expertEEEiRT_RNS_2io11var_contextES9_jjdiiibiddiddddjjjRNS_9callbacks9interruptERNSA_6loggerERNSA_6writerESG_SG_"
 "_ZN4stan8services6sample23hmc_static_diag_e_adaptIN34model_Exponential_expert_namespace24model_Exponential_expertEEEiRT_RNS_2io11var_contextEjjdiiibidddddddjjjRNS_9callbacks9interruptERNSA_6loggerERNSA_6writerESG_SG_"
 "_ZN4stan8services6sample24hmc_static_dense_e_adaptIN34model_Exponential_expert_namespace24model_Exponential_expertEEEiRT_RNS_2io11var_contextES9_jjdiiibidddddddjjjRNS_9callbacks9interruptERNSA_6loggerERNSA_6writerESG_SG_"
 "_ZN4stan8services8optimize4bfgsIN34model_Exponential_expert_namespace24model_Exponential_expertEEEiRT_RNS_2io11var_contextEjjdddddddibiRNS_9callbacks9interruptERNSA_6loggerERNSA_6writerESG_"
 "_ZN4stan8services8optimize5lbfgsIN34model_Exponential_expert_namespace24model_Exponential_expertEEEiRT_RNS_2io11var_contextEjjdiddddddibiRNS_9callbacks9interruptERNSA_6loggerERNSA_6writerESG_"
 "_ZN4stan8services8optimize6newtonIN34model_Exponential_expert_namespace24model_Exponential_expertEEEiRT_RNS_2io11var_contextEjjdibRNS_9callbacks9interruptERNSA_6loggerERNSA_6writerESG_"
 "_ZN4stan9callbacks13stream_logger4infoERKNSt7__cxx1112basic_stringIcSt11char_traitsIcESaIcEEE"
 "_ZN4stan9callbacks13stream_logger4infoERKNSt7__cxx1118basic_stringstreamIcSt11char_traitsIcESaIcEEE"
 "_ZN4stan9callbacks13stream_logger4warnERKNSt7__cxx1112basic_stringIcSt11char_traitsIcESaIcEEE"
 "_ZN4stan9callbacks13stream_logger4warnERKNSt7__cxx1118basic_stringstreamIcSt11char_traitsIcESaIcEEE"
 "_ZN4stan9callbacks13stream_logger5debugERKNSt7__cxx1112basic_stringIcSt11char_traitsIcESaIcEEE"
 "_ZN4stan9callbacks13stream_logger5debugERKNSt7__cxx1118basic_stringstreamIcSt11char_traitsIcESaIcEEE"
 "_ZN4stan9callbacks13stream_logger5errorERKNSt7__cxx1112basic_stringIcSt11char_traitsIcESaIcEEE"
 "_ZN4stan9callbacks13stream_logger5errorERKNSt7__cxx1118basic_stringstreamIcSt11char_traitsIcESaIcEEE"
 "_ZN4stan9callbacks13stream_logger5fatalERKNSt7__cxx1112basic_stringIcSt11char_traitsIcESaIcEEE"
 "_ZN4stan9callbacks13stream_logger5fatalERKNSt7__cxx1118basic_stringstreamIcSt11char_traitsIcESaIcEEE"
 "_ZN4stan9callbacks13stream_loggerD0Ev"
 "_ZN4stan9callbacks13stream_loggerD1Ev"
 "_ZN4stan9callbacks13stream_writerD0Ev"
 "_ZN4stan9callbacks13stream_writerD1Ev"
 "_ZN4stan9callbacks13stream_writerclERKNSt7__cxx1112basic_stringIcSt11char_traitsIcESaIcEEE"
 "_ZN4stan9callbacks13stream_writerclERKSt6vectorINSt7__cxx1112basic_stringIcSt11char_traitsIcESaIcEEESaIS8_EE"
 "_ZN4stan9callbacks13stream_writerclERKSt6vectorIdSaIdEE"
 "_ZN4stan9callbacks13stream_writerclEv"
 "_ZN4stan9callbacks27stream_logger_with_chain_id4infoERKNSt7__cxx1112basic_stringIcSt11char_traitsIcESaIcEEE"
 "_ZN4stan9callbacks27stream_logger_with_chain_id4infoERKNSt7__cxx1118basic_stringstreamIcSt11char_traitsIcESaIcEEE"
 "_ZN4stan9callbacks27stream_logger_with_chain_id4warnERKNSt7__cxx1112basic_stringIcSt11char_traitsIcESaIcEEE"
 "_ZN4stan9callbacks27stream_logger_with_chain_id4warnERKNSt7__cxx1118basic_stringstreamIcSt11char_traitsIcESaIcEEE"
 "_ZN4stan9callbacks27stream_logger_with_chain_id5debugERKNSt7__cxx1112basic_stringIcSt11char_traitsIcESaIcEEE"
 "_ZN4stan9callbacks27stream_logger_with_chain_id5debugERKNSt7__cxx1118basic_stringstreamIcSt11char_traitsIcESaIcEEE"
 "_ZN4stan9callbacks27stream_logger_with_chain_id5errorERKNSt7__cxx1112basic_stringIcSt11char_traitsIcESaIcEEE"
 "_ZN4stan9callbacks27stream_logger_with_chain_id5errorERKNSt7__cxx1118basic_stringstreamIcSt11char_traitsIcESaIcEEE"
 "_ZN4stan9callbacks27stream_logger_with_chain_id5fatalERKNSt7__cxx1112basic_stringIcSt11char_traitsIcESaIcEEE"
 "_ZN4stan9callbacks27stream_logger_with_chain_id5fatalERKNSt7__cxx1118basic_stringstreamIcSt11char_traitsIcESaIcEEE"
 "_ZN4stan9callbacks27stream_logger_with_chain_idD0Ev"
 "_ZN4stan9callbacks27stream_logger_with_chain_idD1Ev"
 "_ZN4stan9callbacks6writerD0Ev"
 "_ZN4stan9callbacks6writerD1Ev"
 "_ZN4stan9callbacks6writerclERKNSt7__cxx1112basic_stringIcSt11char_traitsIcESaIcEEE"
 "_ZN4stan9callbacks6writerclERKSt6vectorINSt7__cxx1112basic_stringIcSt11char_traitsIcESaIcEEESaIS8_EE"
 "_ZN4stan9callbacks6writerclERKSt6vectorIdSaIdEE"
 "_ZN4stan9callbacks6writerclEv"
 "_ZN5Eigen10MatrixBaseINS_5BlockINS_6MatrixIdLin1ELin1ELi0ELin1ELin1EEELin1ELin1ELb0EEEE25applyHouseholderOnTheLeftINS1_IKS3_Lin1ELi1ELb0EEEEEvRKT_RKdPd"
 "_ZN5Eigen10MatrixBaseINS_5BlockINS_6MatrixIdLin1ELin1ELi0ELin1ELin1EEELin1ELin1ELb0EEEE26applyHouseholderOnTheRightINS1_IKS3_Lin1ELi1ELb0EEEEEvRKT_RKdPd"
 "_ZN5Eigen15PlainObjectBaseINS_6MatrixIN4stan4math3varELin1ELi1ELi0ELin1ELi1EEEE6resizeExx"
 "_ZN5Eigen15PlainObjectBaseINS_6MatrixIdLin1ELi1ELi0ELin1ELi1EEEE6resizeExx"
 "_ZN5Eigen15PlainObjectBaseINS_6MatrixIdLin1ELi1ELi0ELin1ELi1EEEEC2INS_13CwiseBinaryOpINS_8internal13scalar_sum_opIddEEKS2_S9_EEEERKNS_9DenseBaseIT_EE"
 "_ZN5Eigen15PlainObjectBaseINS_6MatrixIdLin1ELi1ELi0ELin1ELi1EEEEC2INS_13CwiseBinaryOpINS_8internal17scalar_product_opIddEEKS2_S9_EEEERKNS_9DenseBaseIT_EE"
 "_ZN5Eigen15PlainObjectBaseINS_6MatrixIdLin1ELi1ELi0ELin1ELi1EEEEC2INS_14CwiseNullaryOpINS_8internal18scalar_constant_opIdEES2_EEEERKNS_9DenseBaseIT_EE"
 "_ZN5Eigen15PlainObjectBaseINS_6MatrixIdLin1ELi1ELi0ELin1ELi1EEEEC2INS_3MapIS2_Li0ENS_6StrideILi0ELi0EEEEEEERKNS_9DenseBaseIT_EE"
 "_ZN5Eigen15PlainObjectBaseINS_6MatrixIdLin1ELin1ELi0ELin1ELin1EEEE6resizeExx"
 "_ZN5Eigen22SelfAdjointEigenSolverINS_6MatrixIdLin1ELin1ELi0ELin1ELin1EEEE7computeIS2_EERS3_RKNS_9EigenBaseIT_EEi"
 "_ZN5Eigen3LLTINS_6MatrixIdLin1ELin1ELi0ELin1ELin1EEELi1EE7computeIS2_EERS3_RKNS_9EigenBaseIT_EE"
 "_ZN5Eigen4LDLTINS_6MatrixIdLin1ELin1ELi0ELin1ELin1EEELi1EE7computeIS2_EERS3_RKNS_9EigenBaseIT_EE"
 "_ZN5Eigen6MatrixIdLin1ELi1ELi0ELin1ELi1EEC1INS_14CwiseNullaryOpINS_8internal18scalar_constant_opIdEES1_EEEERKT_"
 "_ZN5Eigen6MatrixIdLin1ELi1ELi0ELin1ELi1EEC1IxEERKT_"
 "_ZN5Eigen8internal11gebp_kernelIddxNS0_16blas_data_mapperIdxLi0ELi0ELi1EEELi4ELi4ELb0ELb0EEclERKS3_PKdS8_xxxdxxxx"
 "_ZN5Eigen8internal11llt_inplaceIdLi1EE7blockedINS_6MatrixIdLin1ELin1ELi0ELin1ELin1EEEEExRT_"
 "_ZN5Eigen8internal11llt_inplaceIdLi1EE9unblockedINS_6MatrixIdLin1ELin1ELi0ELin1ELin1EEEEExRT_"
 "_ZN5Eigen8internal12ldlt_inplaceILi1EE9unblockedINS_6MatrixIdLin1ELin1ELi0ELin1ELin1EEENS_14TranspositionsILin1ELin1EiEENS4_IdLin1ELi1ELi0ELin1ELi1EEEEEbRT_RT0_RT1_RNS0_10SignMatrixE"
 "_ZN5Eigen8internal13gemm_pack_lhsIdxNS0_16blas_data_mapperIdxLi0ELi0ELi1EEELi4ELi2ELi0ELb0ELb1EEclEPdRKS3_xxxx"
 "_ZN5Eigen8internal13gemm_pack_lhsIdxNS0_22const_blas_data_mapperIdxLi0EEELi4ELi2ELi0ELb0ELb0EEclEPdRKS3_xxxx"
 "_ZN5Eigen8internal13gemm_pack_lhsIdxNS0_22const_blas_data_mapperIdxLi1EEELi4ELi2ELi1ELb0ELb0EEclEPdRKS3_xxxx"
 "_ZN5Eigen8internal13gemm_pack_rhsIdxNS0_22const_blas_data_mapperIdxLi0EEELi4ELi0ELb0ELb0EEclEPdRKS3_xxxx"
 "_ZN5Eigen8internal13gemm_pack_rhsIdxNS0_22const_blas_data_mapperIdxLi1EEELi4ELi1ELb0ELb0EEclEPdRKS3_xxxx"
 "_ZN5Eigen8internal13gemm_pack_rhsIdxNS0_22const_blas_data_mapperIdxLi1EEELi4ELi1ELb0ELb1EEclEPdRKS3_xxxx"
 "_ZN5Eigen8internal14aligned_mallocEy"
 "_ZN5Eigen8internal19gemv_dense_selectorILi2ELi1ELb1EE3runINS_9TransposeIKNS_5BlockINS5_INS_6MatrixIdLin1ELin1ELi0ELin1ELin1EEELin1ELin1ELb0EEELin1ELin1ELb0EEEEENS4_IKNS4_IKNS5_IKS7_Lin1ELi1ELb0EEEEEEENS4_INS_3MapINS6_IdLi1ELin1ELi1ELi1ELin1EEELi0ENS_6StrideILi0ELi0EEEEEEEEEvRKT_RKT0_RT1_RKNSU_6ScalarE"
 "_ZN5Eigen8internal19gemv_dense_selectorILi2ELi1ELb1EE3runINS_9TransposeIKNS_6MatrixIdLin1ELin1ELi0ELin1ELin1EEEEENS4_IKNS_13CwiseBinaryOpINS0_17scalar_product_opIddEEKNS_14CwiseNullaryOpINS0_18scalar_constant_opIdEEKNS5_IdLi1ELin1ELi1ELi1ELin1EEEEEKNS4_INS5_IdLin1ELi1ELi0ELin1ELi1EEEEEEEEENS4_ISF_EEEEvRKT_RKT0_RT1_RKNSW_6ScalarE"
 "_ZN5Eigen8internal19gemv_dense_selectorILi2ELi1ELb1EE3runINS_9TransposeINS_6MatrixIdLin1ELin1ELi0ELin1ELin1EEEEENS5_IdLin1ELi1ELi0ELin1ELi1EEES8_EEvRKT_RKT0_RT1_RKNSF_6ScalarE"
 "_ZN5Eigen8internal19throw_std_bad_allocEv"
 "_ZN5Eigen8internal21dense_assignment_loopINS0_31generic_dense_assignment_kernelINS0_9evaluatorINS_12ArrayWrapperINS_6MatrixIdLin1ELi1ELi0ELin1ELi1EEEEEEENS3_INS_14CwiseNullaryOpINS0_18scalar_constant_opIdEENS_5ArrayIdLin1ELi1ELi0ELin1ELi1EEEEEEENS0_13add_assign_opIddEELi0EEELi3ELi0EE3runERSI_"
 "_ZN5Eigen8internal21dense_assignment_loopINS0_31generic_dense_assignment_kernelINS0_9evaluatorINS_5BlockINS_6MatrixIdLin1ELin1ELi0ELin1ELin1EEELin1ELi1ELb0EEEEENS3_INS_14CwiseNullaryOpINS0_18scalar_constant_opIdEENS5_IdLin1ELi1ELi0ELin1ELi1EEEEEEENS0_13div_assign_opIddEELi0EEELi3ELi0EE3runERSH_"
 "_ZN5Eigen8internal21dense_assignment_loopINS0_31generic_dense_assignment_kernelINS0_9evaluatorINS_5BlockINS_6MatrixIdLin1ELin1ELi0ELin1ELin1EEELin1ELin1ELb0EEEEENS3_INS_14CwiseNullaryOpINS0_18scalar_constant_opIdEES6_EEEENS0_13mul_assign_opIddEELi0EEELi4ELi0EE3runERSG_"
 "_ZN5Eigen8internal21dense_assignment_loopINS0_31generic_dense_assignment_kernelINS0_9evaluatorINS_6MatrixIdLin1ELi1ELi0ELin1ELi1EEEEENS3_INS_14CwiseNullaryOpINS0_18scalar_constant_opIdEES5_EEEENS0_13div_assign_opIddEELi0EEELi3ELi0EE3runERSE_"
 "_ZN5Eigen8internal21dense_assignment_loopINS0_31generic_dense_assignment_kernelINS0_9evaluatorINS_6MatrixIdLin1ELi1ELi0ELin1ELi1EEEEENS3_INS_14CwiseNullaryOpINS0_18scalar_constant_opIdEES5_EEEENS0_13mul_assign_opIddEELi0EEELi3ELi0EE3runERSE_"
 "_ZN5Eigen8internal21dense_assignment_loopINS0_31generic_dense_assignment_kernelINS0_9evaluatorINS_6MatrixIdLin1ELi1ELi0ELin1ELi1EEEEES6_NS0_13add_assign_opIddEELi0EEELi3ELi0EE3runERS9_"
 "_ZN5Eigen8internal23triangular_solve_matrixIdxLi2ELi2ELb0ELi1ELi0ELi1EE3runExxPKdxPdxxRNS0_15level3_blockingIddEE"
 "_ZN5Eigen8internal23triangular_solve_vectorIddxLi1ELi2ELb0ELi1EE3runExPKdxPd"
 "_ZN5Eigen8internal24selfadjoint_product_implINS_5BlockINS_6MatrixIdLin1ELin1ELi0ELin1ELin1EEELin1ELin1ELb0EEELi17ELb0ENS_13CwiseBinaryOpINS0_17scalar_product_opIddEEKNS_14CwiseNullaryOpINS0_18scalar_constant_opIdEEKNS3_IdLin1ELi1ELi0ELin1ELi1EEEEEKNS2_INS2_IS4_Lin1ELi1ELb1EEELin1ELi1ELb0EEEEELi0ELb1EE3runINS2_ISC_Lin1ELi1ELb0EEEEEvRT_RKS5_RKSJ_RKd"
 "_ZN5Eigen8internal26call_dense_assignment_loopINS_6MatrixIdLin1ELi1ELi0ELin1ELi1EEENS_12CwiseUnaryOpINS0_18scalar_opposite_opIdEEKS3_EENS0_9assign_opIddEEEEvRT_RKT0_RKT1_"
 "_ZN5Eigen8internal26call_dense_assignment_loopINS_6MatrixIdLin1ELi1ELi0ELin1ELi1EEENS_13CwiseBinaryOpINS0_13scalar_sum_opIddEEKS3_S7_EENS0_9assign_opIddEEEEvRT_RKT0_RKT1_"
 "_ZN5Eigen8internal26call_dense_assignment_loopINS_6MatrixIdLin1ELi1ELi0ELin1ELi1EEENS_13CwiseBinaryOpINS0_20scalar_difference_opIddEEKS3_S7_EENS0_9assign_opIddEEEEvRT_RKT0_RKT1_"
 "_ZN5Eigen8internal26call_dense_assignment_loopINS_6MatrixIdLin1ELi1ELi0ELin1ELi1EEENS_14CwiseNullaryOpINS0_18scalar_constant_opIdEES3_EENS0_9assign_opIddEEEEvRT_RKT0_RKT1_"
 "_ZN5Eigen8internal26call_dense_assignment_loopINS_6MatrixIdLin1ELi1ELi0ELin1ELi1EEENS_3MapIS3_Li0ENS_6StrideILi0ELi0EEEEENS0_9assign_opIddEEEEvRT_RKT0_RKT1_"
 "_ZN5Eigen8internal26call_dense_assignment_loopINS_6MatrixIdLin1ELi1ELi0ELin1ELi1EEES3_NS0_9assign_opIddEEEEvRT_RKT0_RKT1_"
 "_ZN5Eigen8internal26call_dense_assignment_loopINS_6MatrixIdLin1ELin1ELi0ELin1ELin1EEENS_14CwiseNullaryOpINS0_18scalar_constant_opIdEES3_EENS0_9assign_opIddEEEEvRT_RKT0_RKT1_"
 "_ZN5Eigen8internal26call_dense_assignment_loopINS_6MatrixIdLin1ELin1ELi0ELin1ELin1EEENS_14CwiseNullaryOpINS0_18scalar_identity_opIdEES3_EENS0_9assign_opIddEEEEvRT_RKT0_RKT1_"
 "_ZN5Eigen8internal26call_dense_assignment_loopINS_6MatrixIdLin1ELin1ELi0ELin1ELin1EEES3_NS0_9assign_opIddEEEEvRT_RKT0_RKT1_"
 "_ZN5Eigen8internal26outer_product_selector_runINS_5BlockINS2_INS_6MatrixIdLin1ELin1ELi0ELin1ELin1EEELin1ELin1ELb0EEELin1ELin1ELb0EEENS_13CwiseBinaryOpINS0_17scalar_product_opIddEEKNS_14CwiseNullaryOpINS0_18scalar_constant_opIdEEKNS3_IdLin1ELi1ELi0ELin1ELi1EEEEEKNS2_IKS4_Lin1ELi1ELb0EEEEENS_3MapINS3_IdLi1ELin1ELi1ELi1ELin1EEELi0ENS_6StrideILi0ELi0EEEEENS0_20generic_product_implISK_SP_NS_10DenseShapeESR_Li5EE3subEEEvRT_RKT0_RKT1_RKT2_RKNS0_10false_typeE"
 "_ZN5Eigen8internal26outer_product_selector_runINS_5BlockINS2_INS_6MatrixIdLin1ELin1ELi0ELin1ELin1EEELin1ELin1ELb0EEELin1ELin1ELb0EEENS_13CwiseBinaryOpINS0_17scalar_product_opIddEEKNS_14CwiseNullaryOpINS0_18scalar_constant_opIdEEKNS3_IdLin1ELi1ELi0ELin1ELi1EEEEEKNS_3MapISD_Li0ENS_6StrideILi0ELi0EEEEEEENS_9TransposeIKNS2_IKS4_Lin1ELi1ELb0EEEEENS0_20generic_product_implISM_SR_NS_10DenseShapeEST_Li5EE3subEEEvRT_RKT0_RKT1_RKT2_RKNS0_10false_typeE"
 "_ZN5Eigen8internal26outer_product_selector_runINS_6MatrixIdLin1ELin1ELi0ELin1ELin1EEENS_13CwiseBinaryOpINS0_17scalar_product_opIddEEKNS_14CwiseNullaryOpINS0_18scalar_constant_opIdEEKNS2_IdLin1ELi1ELi0ELin1ELi1EEEEESB_EENS_9TransposeISB_EENS0_20generic_product_implISE_SG_NS_10DenseShapeESI_Li5EE3addEEEvRT_RKT0_RKT1_RKT2_RKNS0_10false_typeE"
 "_ZN5Eigen8internal26triangular_solver_selectorIKNS_9TransposeIKNS_6MatrixIdLin1ELin1ELi0ELin1ELin1EEEEENS3_IdLin1ELi1ELi0ELin1ELi1EEELi1ELi2ELi0ELi1EE3runERS7_RS8_"
 "_ZN5Eigen8internal26tridiagonalization_inplaceINS_6MatrixIdLin1ELin1ELi0ELin1ELin1EEENS2_IdLin1ELi1ELi0ELin1ELi1EEEEEvRT_RT0_"
 "_ZN5Eigen8internal27computeFromTridiagonal_implINS_6MatrixIdLin1ELin1ELi0ELin1ELin1EEENS2_IdLin1ELi1ELi0ELin1ELi1EEES4_EENS_15ComputationInfoERT0_RT1_xbRT_"
 "_ZN5Eigen8internal29general_matrix_matrix_productIxdLi0ELb0EdLi0ELb0ELi0ELi1EE3runExxxPKdxS4_xPdxxdRNS0_15level3_blockingIddEEPNS0_16GemmParallelInfoIxEE"
 "_ZN5Eigen8internal29general_matrix_matrix_productIxdLi0ELb0EdLi1ELb0ELi0ELi1EE3runExxxPKdxS4_xPdxxdRNS0_15level3_blockingIddEEPNS0_16GemmParallelInfoIxEE"
 "_ZN5Eigen8internal29general_matrix_matrix_productIxdLi1ELb0EdLi0ELb0ELi0ELi1EE3runExxxPKdxS4_xPdxxdRNS0_15level3_blockingIddEEPNS0_16GemmParallelInfoIxEE"
 "_ZN5Eigen8internal29general_matrix_vector_productIxdNS0_22const_blas_data_mapperIdxLi0EEELi0ELb0EdNS2_IdxLi1EEELb0ELi0EE3runExxRKS3_RKS4_Pdxd"
 "_ZN5Eigen8internal29general_matrix_vector_productIxdNS0_22const_blas_data_mapperIdxLi1EEELi1ELb0EdNS2_IdxLi0EEELb0ELi0EE3runExxRKS3_RKS4_Pdxd"
 "_ZN5Eigen8internal33selfadjoint_matrix_vector_productIdxLi0ELi1ELb0ELb0ELi0EE3runExPKdxS4_Pdd"
 "_ZN5Eigen8internal37evaluateProductBlockingSizesHeuristicIddLi1ExEEvRT2_S3_S3_S2_"
 "_ZN5Eigen8internal37evaluateProductBlockingSizesHeuristicIddLi4ExEEvRT2_S3_S3_S2_"
 "_ZN5Eigen8internal40general_matrix_matrix_triangular_productIxdLi0ELb0EdLi1ELb0ELi0ELi1ELi1ELi0EE3runExxPKdxS4_xPdxxRS3_RNS0_15level3_blockingIddEE"
 "_ZN5boost10cb_details8iteratorINS_15circular_bufferINS_6tuples5tupleIdN5Eigen6MatrixIdLin1ELi1ELi0ELin1ELi1EEES7_NS3_9null_typeES8_S8_S8_S8_S8_S8_EESaIS9_EEENS0_15nonconst_traitsISA_EEEmIEx"
 "_ZN5boost10conversion6detail14throw_bad_castINSt7__cxx1112basic_stringIcSt11char_traitsIcESaIcEEEdEEvv"
 "_ZN5boost10error_infoINS_27tag_original_exception_typeEPKSt9type_infoED0Ev"
 "_ZN5boost10error_infoINS_27tag_original_exception_typeEPKSt9type_infoED1Ev"
 "_ZN5boost10wrapexceptINS_16bad_lexical_castEED0Ev"
 "_ZN5boost10wrapexceptINS_16bad_lexical_castEED1Ev"
 "_ZN5boost10wrapexceptINS_4math14rounding_errorEED0Ev"
 "_ZN5boost10wrapexceptINS_4math14rounding_errorEED1Ev"
 "_ZN5boost10wrapexceptINS_4math16evaluation_errorEED0Ev"
 "_ZN5boost10wrapexceptINS_4math16evaluation_errorEED1Ev"
 "_ZN5boost10wrapexceptISt11logic_errorED0Ev"
 "_ZN5boost10wrapexceptISt11logic_errorED1Ev"
 "_ZN5boost10wrapexceptISt12domain_errorED0Ev"
 "_ZN5boost10wrapexceptISt12domain_errorED1Ev"
 "_ZN5boost10wrapexceptISt12length_errorED0Ev"
 "_ZN5boost10wrapexceptISt12length_errorED1Ev"
 "_ZN5boost10wrapexceptISt14overflow_errorED0Ev"
 "_ZN5boost10wrapexceptISt14overflow_errorED1Ev"
 "_ZN5boost10wrapexceptISt16invalid_argumentED0Ev"
 "_ZN5boost10wrapexceptISt16invalid_argumentED1Ev"
 "_ZN5boost15circular_bufferIdSaIdEE7destroyEv"
 "_ZN5boost15throw_exceptionINS_16bad_lexical_castEEEvRKT_"
 "_ZN5boost15throw_exceptionINS_4math14rounding_errorEEEvRKT_"
 "_ZN5boost15throw_exceptionISt12length_errorEEvRKT_"
 "_ZN5boost15throw_exceptionISt14overflow_errorEEvRKT_"
 "_ZN5boost15throw_exceptionISt16invalid_argumentEEvRKT_RKNS_15source_locationE"
 "_ZN5boost16bad_lexical_castD0Ev"
 "_ZN5boost16bad_lexical_castD1Ev"
 "_ZN5boost16exception_detail10bad_alloc_D0Ev"
 "_ZN5boost16exception_detail10bad_alloc_D1Ev"
 "_ZN5boost16exception_detail10bad_alloc_D2Ev"
 "_ZN5boost16exception_detail10clone_implINS0_10bad_alloc_EED0Ev"
 "_ZN5boost16exception_detail10clone_implINS0_10bad_alloc_EED1Ev"
 "_ZN5boost16exception_detail10clone_implINS0_14bad_exception_EED0Ev"
 "_ZN5boost16exception_detail10clone_implINS0_14bad_exception_EED1Ev"
 "_ZN5boost16exception_detail14bad_exception_D0Ev"
 "_ZN5boost16exception_detail14bad_exception_D1Ev"
 "_ZN5boost16exception_detail14bad_exception_D2Ev"
 "_ZN5boost16exception_detail20copy_boost_exceptionEPNS_9exceptionEPKS1_"
 "_ZN5boost16exception_detail25error_info_container_impl3setERKNS_10shared_ptrINS0_15error_info_baseEEERKNS0_10type_info_E"
 "_ZN5boost16exception_detail27get_static_exception_objectINS0_10bad_alloc_EEENS_13exception_ptrEv"
 "_ZN5boost16exception_detail27get_static_exception_objectINS0_14bad_exception_EEENS_13exception_ptrEv"
 "_ZN5boost16exception_detail37exception_ptr_static_exception_objectINS0_10bad_alloc_EE1eE"
 "_ZN5boost16exception_detail37exception_ptr_static_exception_objectINS0_14bad_exception_EE1eE"
 "_ZN5boost4math14rounding_errorD0Ev"
 "_ZN5boost4math14rounding_errorD1Ev"
 "_ZN5boost4math16evaluation_errorD0Ev"
 "_ZN5boost4math16evaluation_errorD1Ev"
 "_ZN5boost4math19unchecked_factorialIdEET_j"
 "_ZN5boost4math19unchecked_factorialIeEET_j"
 "_ZN5boost4math5tools6detail23evaluate_rational_c_impIeeeEET1_PKT_PKT0_RKS4_PKNS_17integral_constantIiLi11EEE"
 "_ZN5boost4math5tools6detail23evaluate_rational_c_impIeeeEET1_PKT_PKT0_RKS4_PKNS_17integral_constantIiLi5EEE"
 "_ZN5boost4math5tools6detail23evaluate_rational_c_impIeeeEET1_PKT_PKT0_RKS4_PKNS_17integral_constantIiLi6EEE"
 "_ZN5boost4math5tools6detail23evaluate_rational_c_impIeeeEET1_PKT_PKT0_RKS4_PKNS_17integral_constantIiLi7EEE"
 "_ZN5boost4math5tools6detail23evaluate_rational_c_impIeeeEET1_PKT_PKT0_RKS4_PKNS_17integral_constantIiLi8EEE"
 "_ZN5boost4math5tools6detail23evaluate_rational_c_impIeyeEET1_PKT_PKT0_RKS4_PKNS_17integral_constantIiLi17EEE"
 "_ZN5boost4math5tools6detail25evaluate_polynomial_c_impIeeEET0_PKT_RKS4_PKNS_17integral_constantIiLi11EEE"
 "_ZN5boost4math5tools6detail25evaluate_polynomial_c_impIeeEET0_PKT_RKS4_PKNS_17integral_constantIiLi13EEE"
 "_ZN5boost4math5tools6detail25evaluate_polynomial_c_impIeeEET0_PKT_RKS4_PKNS_17integral_constantIiLi8EEE"
 "_ZN5boost4math5tools6detail25evaluate_polynomial_c_impIeeEET0_PKT_RKS4_PKNS_17integral_constantIiLi9EEE"
 "_ZN5boost4math6detail10lgamma_impIdNS0_8policies6policyINS3_10pole_errorILNS3_17error_policy_typeE1EEENS3_14overflow_errorILS6_1EEENS3_13promote_floatILb0EEENS3_14promote_doubleILb0EEENS3_14default_policyESE_SE_SE_SE_SE_SE_SE_SE_EENS0_7lanczos12lanczos13m53EEET_SI_RKT0_RKT1_Pi"
 "_ZN5boost4math6detail10lgamma_impIeNS0_8policies6policyINS3_13promote_floatILb0EEENS3_14promote_doubleILb0EEENS3_14default_policyES9_S9_S9_S9_S9_S9_S9_S9_S9_S9_EENS0_7lanczos12lanczos17m64EEET_SD_RKT0_RKT1_Pi"
 "_ZN5boost4math6detail11digamma_impIdNS_17integral_constantIiLi53EEENS0_8policies6policyINS5_10pole_errorILNS5_17error_policy_typeE1EEENS5_14overflow_errorILS8_1EEENS5_13promote_floatILb0EEENS5_14promote_doubleILb0EEENS5_14default_policyESG_SG_SG_SG_SG_SG_SG_SG_EEEET_SI_PKT0_RKT1_"
 "_ZN5boost4math6detail11digamma_impIeNS_17integral_constantIiLi64EEENS0_8policies6policyINS5_13promote_floatILb0EEENS5_14promote_doubleILb0EEENS5_14default_policyESB_SB_SB_SB_SB_SB_SB_SB_SB_SB_EEEET_SD_PKT0_RKT1_"
 "_ZN5boost4math6detail13bessel_i0_impIeEET_RKS3_RKNS_17integral_constantIiLi64EEE"
 "_ZN5boost4math6detail13bessel_i1_impIeEET_RKS3_RKNS_17integral_constantIiLi64EEE"
 "_ZN5boost4math6detail13bessel_k0_impIeEET_RKS3_RKNS_17integral_constantIiLi64EEE"
 "_ZN5boost4math6detail13bessel_k1_impIeEET_RKS3_RKNS_17integral_constantIiLi64EEE"
 "_ZN5boost4math6detail16lgamma_small_impIdNS0_8policies6policyINS3_10pole_errorILNS3_17error_policy_typeE1EEENS3_14overflow_errorILS6_1EEENS3_13promote_floatILb0EEENS3_14promote_doubleILb0EEENS3_14default_policyESE_SE_SE_SE_SE_SE_SE_SE_EENS0_7lanczos12lanczos13m53EEET_SI_SI_SI_RKNS_17integral_constantIiLi64EEERKT0_RKT1_"
 "_ZN5boost4math6detail16lgamma_small_impIeNS0_8policies6policyINS3_13promote_floatILb0EEENS3_14promote_doubleILb0EEENS3_14default_policyES9_S9_S9_S9_S9_S9_S9_S9_S9_S9_EENS0_7lanczos12lanczos17m64EEET_SD_SD_SD_RKNS_17integral_constantIiLi64EEERKT0_RKT1_"
 "_ZN5boost4math6detail16owens_t_dispatchIeNS0_8policies6policyINS3_14default_policyES5_S5_S5_S5_S5_S5_S5_S5_S5_S5_S5_S5_EEEET_S7_S7_S7_RKT0_RKNS_17integral_constantIiLi64EEE"
 "_ZN5boost4math6detail18full_igamma_prefixIeNS0_8policies6policyINS3_13promote_floatILb0EEENS3_14promote_doubleILb0EEENS3_14default_policyES9_S9_S9_S9_S9_S9_S9_S9_S9_S9_EEEET_SB_SB_RKT0_"
 "_ZN5boost4math6detail18igamma_temme_largeIeNS0_8policies6policyINS3_13promote_floatILb0EEENS3_14promote_doubleILb0EEENS3_14default_policyES9_S9_S9_S9_S9_S9_S9_S9_S9_S9_EEEET_SB_SB_RKT0_PKNS_17integral_constantIiLi64EEE"
 "_ZN5boost4math6detail18lower_gamma_seriesIeNS0_8policies6policyINS3_13promote_floatILb0EEENS3_14promote_doubleILb0EEENS3_14default_policyES9_S9_S9_S9_S9_S9_S9_S9_S9_S9_EEEET_SB_SB_RKT0_SB_"
 "_ZN5boost4math6detail19finite_half_gamma_qIeNS0_8policies6policyINS3_13promote_floatILb0EEENS3_14promote_doubleILb0EEENS3_14default_policyES9_S9_S9_S9_S9_S9_S9_S9_S9_S9_EEEET_SB_SB_PSB_RKT0_"
 "_ZN5boost4math6detail20gamma_incomplete_impIeNS0_8policies6policyINS3_13promote_floatILb0EEENS3_14promote_doubleILb0EEENS3_14default_policyES9_S9_S9_S9_S9_S9_S9_S9_S9_S9_EEEET_SB_SB_bbRKT0_PSB_"
 "_ZN5boost4math6detail20upper_gamma_fractionIeEET_S3_S3_S3_"
 "_ZN5boost4math6detail24regularised_gamma_prefixIeNS0_8policies6policyINS3_13promote_floatILb0EEENS3_14promote_doubleILb0EEENS3_14default_policyES9_S9_S9_S9_S9_S9_S9_S9_S9_S9_EENS0_7lanczos12lanczos17m64EEET_SD_SD_RKT0_RKT1_"
 "_ZN5boost4math6detail5sinpxIdEET_S3_"
 "_ZN5boost4math6detail5sinpxIeEET_S3_"
 "_ZN5boost4math6detail7erf_impIdNS0_8policies6policyINS3_10pole_errorILNS3_17error_policy_typeE1EEENS3_14overflow_errorILS6_1EEENS3_13promote_floatILb0EEENS3_14promote_doubleILb0EEENS3_14default_policyESE_SE_SE_SE_SE_SE_SE_SE_EEEET_SG_bRKT0_RKNS_17integral_constantIiLi53EEE"
 "_ZN5boost4math6detail7erf_impIeNS0_8policies6policyINS3_13promote_floatILb0EEENS3_14promote_doubleILb0EEENS3_14default_policyES9_S9_S9_S9_S9_S9_S9_S9_S9_S9_EEEET_SB_bRKT0_RKNS_17integral_constantIiLi64EEE"
 "_ZN5boost4math6detail9bessel_j0IeEET_S3_"
 "_ZN5boost4math6detail9bessel_j1IeEET_S3_"
 "_ZN5boost4math6detail9bessel_y1IeNS0_8policies6policyINS3_13promote_floatILb0EEENS3_14promote_doubleILb0EEENS3_14default_policyES9_S9_S9_S9_S9_S9_S9_S9_S9_S9_EEEET_SB_RKT0_"
 "_ZN5boost4math6detail9expm1_impIeNS0_8policies6policyINS3_13promote_floatILb0EEENS3_14promote_doubleILb0EEENS3_14default_policyES9_S9_S9_S9_S9_S9_S9_S9_S9_S9_EEEET_SB_RKNS_17integral_constantIiLi64EEERKT0_"
 "_ZN5boost4math6detail9gamma_impIdNS0_8policies6policyINS3_10pole_errorILNS3_17error_policy_typeE1EEENS3_14overflow_errorILS6_1EEENS3_13promote_floatILb0EEENS3_14promote_doubleILb0EEENS3_14default_policyESE_SE_SE_SE_SE_SE_SE_SE_EENS0_7lanczos12lanczos13m53EEET_SI_RKT0_RKT1_"
 "_ZN5boost4math6detail9gamma_impIeNS0_8policies6policyINS3_13promote_floatILb0EEENS3_14promote_doubleILb0EEENS3_14default_policyES9_S9_S9_S9_S9_S9_S9_S9_S9_S9_EENS0_7lanczos12lanczos17m64EEET_SD_RKT0_RKT1_"
 "_ZN5boost4math6detail9log1p_impIeNS0_8policies6policyINS3_13promote_floatILb0EEENS3_14promote_doubleILb0EEENS3_14default_policyES9_S9_S9_S9_S9_S9_S9_S9_S9_S9_EEEET_RKSB_RKT0_RKNS_17integral_constantIiLi64EEE"
 "_ZN5boost4math6detail9powm1_impIeNS0_8policies6policyINS3_13promote_floatILb0EEENS3_14promote_doubleILb0EEENS3_14default_policyES9_S9_S9_S9_S9_S9_S9_S9_S9_S9_EEEET_SB_SB_RKT0_"
 "_ZN5boost4math7log1pmxIeNS0_8policies6policyINS2_13promote_floatILb0EEENS2_14promote_doubleILb0EEENS2_14default_policyES8_S8_S8_S8_S8_S8_S8_S8_S8_S8_EEEENS0_5tools12promote_argsIT_fffffE4typeESC_RKT0_"
 "_ZN5boost4math7owens_tIddNS0_8policies6policyINS2_14default_policyES4_S4_S4_S4_S4_S4_S4_S4_S4_S4_S4_S4_EEEENS0_5tools12promote_argsIT_T0_ffffE4typeES8_S9_RKT1_"
 "_ZN5boost4math8policies6detail11prec_formatIeEENSt7__cxx1112basic_stringIcSt11char_traitsIcESaIcEEERKT_"
 "_ZN5boost4math8policies6detail11raise_errorINS0_14rounding_errorEdEEvPKcS6_RKT0_"
 "_ZN5boost4math8policies6detail11raise_errorINS0_14rounding_errorEeEEvPKcS6_RKT0_"
 "_ZN5boost4math8policies6detail11raise_errorINS0_16evaluation_errorEeEEvPKcS6_RKT0_"
 "_ZN5boost4math8policies6detail11raise_errorISt12domain_erroreEEvPKcS6_RKT0_"
 "_ZN5boost4math8policies6detail11raise_errorISt14overflow_errordEEvPKcS6_"
 "_ZN5boost4math8policies6detail11raise_errorISt14overflow_erroreEEvPKcS6_"
 "_ZN5boost4math8policies6detail21replace_all_in_stringERNSt7__cxx1112basic_stringIcSt11char_traitsIcESaIcEEEPKcSB_"
 "_ZN5boost6detail15sp_counted_base7destroyEv"
 "_ZN5boost6detail15sp_counted_base7releaseEv"
 "_ZN5boost6detail16basic_pointerbufIcSt15basic_streambufIcSt11char_traitsIcEEE6setbufEPcx"
 "_ZN5boost6detail16basic_pointerbufIcSt15basic_streambufIcSt11char_traitsIcEEE7seekoffExSt12_Ios_SeekdirSt13_Ios_Openmode"
 "_ZN5boost6detail16basic_pointerbufIcSt15basic_streambufIcSt11char_traitsIcEEE7seekposESt4fposIiESt13_Ios_Openmode"
 "_ZN5boost6detail17basic_unlockedbufISt15basic_streambufIcSt11char_traitsIcEEcED0Ev"
 "_ZN5boost6detail17basic_unlockedbufISt15basic_streambufIcSt11char_traitsIcEEcED1Ev"
 "_ZN5boost6detail17sp_counted_impl_pINS_16exception_detail10clone_implINS2_10bad_alloc_EEEE11get_deleterERKSt9type_info"
 "_ZN5boost6detail17sp_counted_impl_pINS_16exception_detail10clone_implINS2_10bad_alloc_EEEE17get_local_deleterERKSt9type_info"
 "_ZN5boost6detail17sp_counted_impl_pINS_16exception_detail10clone_implINS2_10bad_alloc_EEEE19get_untyped_deleterEv"
 "_ZN5boost6detail17sp_counted_impl_pINS_16exception_detail10clone_implINS2_10bad_alloc_EEEE7disposeEv"
 "_ZN5boost6detail17sp_counted_impl_pINS_16exception_detail10clone_implINS2_10bad_alloc_EEEED0Ev"
 "_ZN5boost6detail17sp_counted_impl_pINS_16exception_detail10clone_implINS2_10bad_alloc_EEEED1Ev"
 "_ZN5boost6detail17sp_counted_impl_pINS_16exception_detail10clone_implINS2_14bad_exception_EEEE11get_deleterERKSt9type_info"
 "_ZN5boost6detail17sp_counted_impl_pINS_16exception_detail10clone_implINS2_14bad_exception_EEEE17get_local_deleterERKSt9type_info"
 "_ZN5boost6detail17sp_counted_impl_pINS_16exception_detail10clone_implINS2_14bad_exception_EEEE19get_untyped_deleterEv"
 "_ZN5boost6detail17sp_counted_impl_pINS_16exception_detail10clone_implINS2_14bad_exception_EEEE7disposeEv"
 "_ZN5boost6detail17sp_counted_impl_pINS_16exception_detail10clone_implINS2_14bad_exception_EEEED0Ev"
 "_ZN5boost6detail17sp_counted_impl_pINS_16exception_detail10clone_implINS2_14bad_exception_EEEED1Ev"
 "_ZN5boost6detail17sp_counted_impl_pINS_16exception_detail15error_info_baseEE11get_deleterERKSt9type_info"
 "_ZN5boost6detail17sp_counted_impl_pINS_16exception_detail15error_info_baseEE17get_local_deleterERKSt9type_info"
 "_ZN5boost6detail17sp_counted_impl_pINS_16exception_detail15error_info_baseEE19get_untyped_deleterEv"
 "_ZN5boost6detail17sp_counted_impl_pINS_16exception_detail15error_info_baseEE7disposeEv"
 "_ZN5boost6detail17sp_counted_impl_pINS_16exception_detail15error_info_baseEED0Ev"
 "_ZN5boost6detail17sp_counted_impl_pINS_16exception_detail15error_info_baseEED1Ev"
 "_ZN5boost6detail18lcast_ret_unsignedISt11char_traitsIcEjcE22main_convert_iterationEv"
 "_ZN5boost6detail18lcast_ret_unsignedISt11char_traitsIcEjcE7convertEv"
 "_ZN5boost6detail18lcast_ret_unsignedISt11char_traitsIcEycE22main_convert_iterationEv"
 "_ZN5boost6random23additive_combine_engineINS0_26linear_congruential_engineIjLj40014ELj0ELj2147483563EEENS2_IjLj40692ELj0ELj2147483399EEEEclEv"
 "_ZN5boost6random6detail12normal_tableIdE7table_xE"
 "_ZN5boost6random6detail12normal_tableIdE7table_yE"
 "_ZN5boost6random6detail17exponential_tableIdE7table_xE"
 "_ZN5boost6random6detail17exponential_tableIdE7table_yE"
 "_ZN5boost6random6detail21generate_uniform_realINS0_23additive_combine_engineINS0_26linear_congruential_engineIjLj40014ELj0ELj2147483563EEENS4_IjLj40692ELj0ELj2147483399EEEEEdEET0_RT_S8_S8_"
 "_ZN5boost6random6detail23generate_int_float_pairIdLy8ENS0_23additive_combine_engineINS0_26linear_congruential_engineIjLj40014ELj0ELj2147483563EEENS4_IjLj40692ELj0ELj2147483399EEEEEEESt4pairIT_iERT1_NS_17integral_constantIbLb1EEE"
 "_ZN5boost6random6detail24unit_normal_distributionIdEclINS0_23additive_combine_engineINS0_26linear_congruential_engineIjLj40014ELj0ELj2147483563EEENS6_IjLj40692ELj0ELj2147483399EEEEEEEdRT_"
 "_ZN5rstan10sum_valuesD0Ev"
 "_ZN5rstan10sum_valuesD1Ev"
 "_ZN5rstan10sum_valuesclERKSt6vectorIdSaIdEE"
 "_ZN5rstan14comment_writerD0Ev"
 "_ZN5rstan14comment_writerD1Ev"
 "_ZN5rstan14comment_writerclERKNSt7__cxx1112basic_stringIcSt11char_traitsIcESaIcEEE"
 "_ZN5rstan14comment_writerclEv"
 "_ZN5rstan15filtered_valuesIN4Rcpp6VectorILi14ENS1_15PreserveStorageEEEEC1ERKS5_"
 "_ZN5rstan15filtered_valuesIN4Rcpp6VectorILi14ENS1_15PreserveStorageEEEEC1EyyRKSt6vectorIySaIyEE"
 "_ZN5rstan15filtered_valuesIN4Rcpp6VectorILi14ENS1_15PreserveStorageEEEED0Ev"
 "_ZN5rstan15filtered_valuesIN4Rcpp6VectorILi14ENS1_15PreserveStorageEEEED1Ev"
 "_ZN5rstan15filtered_valuesIN4Rcpp6VectorILi14ENS1_15PreserveStorageEEEEclERKSt6vectorIdSaIdEE"
 "_ZN5rstan19rstan_sample_writerD0Ev"
 "_ZN5rstan19rstan_sample_writerD1Ev"
 "_ZN5rstan19rstan_sample_writerclERKNSt7__cxx1112basic_stringIcSt11char_traitsIcESaIcEEE"
 "_ZN5rstan19rstan_sample_writerclERKSt6vectorINSt7__cxx1112basic_stringIcSt11char_traitsIcESaIcEEESaIS7_EE"
 "_ZN5rstan19rstan_sample_writerclERKSt6vectorIdSaIdEE"
 "_ZN5rstan19rstan_sample_writerclEv"
 "_ZN5rstan21sample_writer_factoryEPSoRSoRKNSt7__cxx1112basic_stringIcSt11char_traitsIcESaIcEEEyyyyyRKSt6vectorIySaIyEE"
 "_ZN5rstan2io16r_cerr_streambuf4syncEv"
 "_ZN5rstan2io16r_cerr_streambuf6xsputnEPKcx"
 "_ZN5rstan2io16r_cerr_streambuf8overflowEi"
 "_ZN5rstan2io16r_cerr_streambufD0Ev"
 "_ZN5rstan2io16r_cerr_streambufD1Ev"
 "_ZN5rstan2io16r_cout_streambuf4syncEv"
 "_ZN5rstan2io16r_cout_streambuf6xsputnEPKcx"
 "_ZN5rstan2io16r_cout_streambuf8overflowEi"
 "_ZN5rstan2io16r_cout_streambufD0Ev"
 "_ZN5rstan2io16r_cout_streambufD1Ev"
 "_ZN5rstan2io21rlist_ref_var_contextC1EP7SEXPREC"
 "_ZN5rstan2io21rlist_ref_var_contextD0Ev"
 "_ZN5rstan2io21rlist_ref_var_contextD1Ev"
 "_ZN5rstan2io9r_ostreamINS0_16r_cerr_streambufEED0Ev"
 "_ZN5rstan2io9r_ostreamINS0_16r_cerr_streambufEED1Ev"
 "_ZN5rstan2io9r_ostreamINS0_16r_cout_streambufEED0Ev"
 "_ZN5rstan2io9r_ostreamINS0_16r_cout_streambufEED1Ev"
 "_ZN5rstan5valueD0Ev"
 "_ZN5rstan5valueD1Ev"
 "_ZN5rstan5valueclERKSt6vectorIdSaIdEE"
 "_ZN5rstan6valuesIN4Rcpp6VectorILi14ENS1_15PreserveStorageEEEED0Ev"
 "_ZN5rstan6valuesIN4Rcpp6VectorILi14ENS1_15PreserveStorageEEEED1Ev"
 "_ZN5rstan6valuesIN4Rcpp6VectorILi14ENS1_15PreserveStorageEEEEclERKSt6vectorIdSaIdEE"
 "_ZN5rstan8stan_fitIN34model_Exponential_expert_namespace24model_Exponential_expertEN5boost6random23additive_combine_engineINS4_26linear_congruential_engineIjLj40014ELj0ELj2147483563EEENS6_IjLj40692ELj0ELj2147483399EEEEEE12call_samplerEP7SEXPREC"
 "_ZN5rstan8stan_fitIN34model_Exponential_expert_namespace24model_Exponential_expertEN5boost6random23additive_combine_engineINS4_26linear_congruential_engineIjLj40014ELj0ELj2147483563EEENS6_IjLj40692ELj0ELj2147483399EEEEEE13grad_log_probEP7SEXPRECSC_"
 "_ZN5rstan8stan_fitIN34model_Exponential_expert_namespace24model_Exponential_expertEN5boost6random23additive_combine_engineINS4_26linear_congruential_engineIjLj40014ELj0ELj2147483563EEENS6_IjLj40692ELj0ELj2147483399EEEEEE13param_oi_tidxEP7SEXPREC"
 "_ZN5rstan8stan_fitIN34model_Exponential_expert_namespace24model_Exponential_expertEN5boost6random23additive_combine_engineINS4_26linear_congruential_engineIjLj40014ELj0ELj2147483563EEENS6_IjLj40692ELj0ELj2147483399EEEEEE14constrain_parsEP7SEXPREC"
 "_ZN5rstan8stan_fitIN34model_Exponential_expert_namespace24model_Exponential_expertEN5boost6random23additive_combine_engineINS4_26linear_congruential_engineIjLj40014ELj0ELj2147483563EEENS6_IjLj40692ELj0ELj2147483399EEEEEE14standalone_gqsEP7SEXPRECSC_"
 "_ZN5rstan8stan_fitIN34model_Exponential_expert_namespace24model_Exponential_expertEN5boost6random23additive_combine_engineINS4_26linear_congruential_engineIjLj40014ELj0ELj2147483563EEENS6_IjLj40692ELj0ELj2147483399EEEEEE15update_param_oiEP7SEXPREC"
 "_ZN5rstan8stan_fitIN34model_Exponential_expert_namespace24model_Exponential_expertEN5boost6random23additive_combine_engineINS4_26linear_congruential_engineIjLj40014ELj0ELj2147483563EEENS6_IjLj40692ELj0ELj2147483399EEEEEE16unconstrain_parsEP7SEXPREC"
 "_ZN5rstan8stan_fitIN34model_Exponential_expert_namespace24model_Exponential_expertEN5boost6random23additive_combine_engineINS4_26linear_congruential_engineIjLj40014ELj0ELj2147483563EEENS6_IjLj40692ELj0ELj2147483399EEEEEE22num_pars_unconstrainedEv"
 "_ZN5rstan8stan_fitIN34model_Exponential_expert_namespace24model_Exponential_expertEN5boost6random23additive_combine_engineINS4_26linear_congruential_engineIjLj40014ELj0ELj2147483563EEENS6_IjLj40692ELj0ELj2147483399EEEEEE23constrained_param_namesEP7SEXPRECSC_"
 "_ZN5rstan8stan_fitIN34model_Exponential_expert_namespace24model_Exponential_expertEN5boost6random23additive_combine_engineINS4_26linear_congruential_engineIjLj40014ELj0ELj2147483563EEENS6_IjLj40692ELj0ELj2147483399EEEEEE25unconstrained_param_namesEP7SEXPRECSC_"
 "_ZN5rstan8stan_fitIN34model_Exponential_expert_namespace24model_Exponential_expertEN5boost6random23additive_combine_engineINS4_26linear_congruential_engineIjLj40014ELj0ELj2147483563EEENS6_IjLj40692ELj0ELj2147483399EEEEEE8log_probEP7SEXPRECSC_SC_"
 "_ZN5rstan8stan_fitIN34model_Exponential_expert_namespace24model_Exponential_expertEN5boost6random23additive_combine_engineINS4_26linear_congruential_engineIjLj40014ELj0ELj2147483563EEENS6_IjLj40692ELj0ELj2147483399EEEEEEC1EP7SEXPRECSC_SC_"
 "_ZN5rstan9stan_args13validate_argsEv"
 "_ZN5rstan9stan_argsC1ERKN4Rcpp6VectorILi19ENS1_15PreserveStorageEEE"
 "_ZNK10tinyformat6detail9FormatArg5toIntEv"
 "_ZNK34model_Exponential_expert_namespace24model_Exponential_expert10model_nameB5cxx11Ev"
 "_ZNK34model_Exponential_expert_namespace24model_Exponential_expert11write_arrayIN5boost6random23additive_combine_engineINS3_26linear_congruential_engineIjLj40014ELj0ELj2147483563EEENS5_IjLj40692ELj0ELj2147483399EEEEEEEvRT_RSt6vectorIdSaIdEERSB_IiSaIiEESE_bbPSo"
 "_ZNK34model_Exponential_expert_namespace24model_Exponential_expert15get_param_namesERSt6vectorINSt7__cxx1112basic_stringIcSt11char_traitsIcESaIcEEESaIS7_EE"
 "_ZNK34model_Exponential_expert_namespace24model_Exponential_expert15transform_initsERKN4stan2io11var_contextERN5Eigen6MatrixIdLin1ELi1ELi0ELin1ELi1EEEPSo"
 "_ZNK34model_Exponential_expert_namespace24model_Exponential_expert15transform_initsERKN4stan2io11var_contextERSt6vectorIiSaIiEERS6_IdSaIdEEPSo"
 "_ZNK34model_Exponential_expert_namespace24model_Exponential_expert23constrained_param_namesERSt6vectorINSt7__cxx1112basic_stringIcSt11char_traitsIcESaIcEEESaIS7_EEbb"
 "_ZNK34model_Exponential_expert_namespace24model_Exponential_expert25unconstrained_param_namesERSt6vectorINSt7__cxx1112basic_stringIcSt11char_traitsIcESaIcEEESaIS7_EEbb"
 "_ZNK34model_Exponential_expert_namespace24model_Exponential_expert8get_dimsERSt6vectorIS1_IySaIyEESaIS3_EE"
 "_ZNK34model_Exponential_expert_namespace24model_Exponential_expert8log_probILb0ELb0EN4stan4math3varEEET1_RSt6vectorIS5_SaIS5_EERS6_IiSaIiEEPSo"
 "_ZNK34model_Exponential_expert_namespace24model_Exponential_expert8log_probILb0ELb0EdEET1_RSt6vectorIS2_SaIS2_EERS3_IiSaIiEEPSo"
 "_ZNK34model_Exponential_expert_namespace24model_Exponential_expert8log_probILb0ELb1EN4stan4math3varEEET1_RSt6vectorIS5_SaIS5_EERS6_IiSaIiEEPSo"
 "_ZNK34model_Exponential_expert_namespace24model_Exponential_expert8log_probILb0ELb1EdEET1_RN5Eigen6MatrixIS2_Lin1ELi1ELi0ELin1ELi1EEEPSo"
 "_ZNK34model_Exponential_expert_namespace24model_Exponential_expert8log_probILb0ELb1EdEET1_RSt6vectorIS2_SaIS2_EERS3_IiSaIiEEPSo"
 "_ZNK34model_Exponential_expert_namespace24model_Exponential_expert8log_probILb1ELb0EN4stan4math3varEEET1_RSt6vectorIS5_SaIS5_EERS6_IiSaIiEEPSo"
 "_ZNK34model_Exponential_expert_namespace24model_Exponential_expert8log_probILb1ELb0EdEET1_RSt6vectorIS2_SaIS2_EERS3_IiSaIiEEPSo"
 "_ZNK34model_Exponential_expert_namespace24model_Exponential_expert8log_probILb1ELb1EN4stan4math3varEEET1_RSt6vectorIS5_SaIS5_EERS6_IiSaIiEEPSo"
 "_ZNK34model_Exponential_expert_namespace24model_Exponential_expert8log_probILb1ELb1EdEET1_RSt6vectorIS2_SaIS2_EERS3_IiSaIiEEPSo"
 "_ZNK4Rcpp10eval_error4whatEv"
 "_ZNK4Rcpp13not_reference4whatEv"
 "_ZNK4Rcpp14not_compatible4whatEv"
 "_ZNK4Rcpp19index_out_of_bounds4whatEv"
 "_ZNK4Rcpp4XPtrIN5rstan8stan_fitIN34model_Exponential_expert_namespace24model_Exponential_expertEN5boost6random23additive_combine_engineINS6_26linear_congruential_engineIjLj40014ELj0ELj2147483563EEENS8_IjLj40692ELj0ELj2147483399EEEEEEENS_15PreserveStorageEXadL_ZNS_25standard_delete_finalizerISC_EEvPT_EELb0EE11checked_getEv"
 "_ZNK4Rcpp6VectorILi19ENS_15PreserveStorageEE20containsElementNamedEPKc"
 "_ZNK4Rcpp8internal18generic_name_proxyILi19ENS_15PreserveStorageEE3getEv"
 "_ZNK4Rcpp9exception21copy_stack_trace_to_rEv"
 "_ZNK4Rcpp9exception4whatEv"
 "_ZNK4stan11variational15normal_fullrank4meanEv"
 "_ZNK4stan11variational15normal_fullrank6squareEv"
 "_ZNK4stan11variational15normal_fullrank7entropyEv"
 "_ZNK4stan11variational15normal_fullrank9calc_gradIN34model_Exponential_expert_namespace24model_Exponential_expertEN5boost6random23additive_combine_engineINS6_26linear_congruential_engineIjLj40014ELj0ELj2147483563EEENS8_IjLj40692ELj0ELj2147483399EEEEEEEvRS1_RT_RN5Eigen6MatrixIdLin1ELi1ELi0ELin1ELi1EEEiRT0_RNS_9callbacks6loggerE"
 "_ZNK4stan11variational15normal_fullrank9dimensionEv"
 "_ZNK4stan11variational15normal_fullrank9transformERKN5Eigen6MatrixIdLin1ELi1ELi0ELin1ELi1EEE"
 "_ZNK4stan11variational16normal_meanfield4meanEv"
 "_ZNK4stan11variational16normal_meanfield6squareEv"
 "_ZNK4stan11variational16normal_meanfield7entropyEv"
 "_ZNK4stan11variational16normal_meanfield9calc_gradIN34model_Exponential_expert_namespace24model_Exponential_expertEN5boost6random23additive_combine_engineINS6_26linear_congruential_engineIjLj40014ELj0ELj2147483563EEENS8_IjLj40692ELj0ELj2147483399EEEEEEEvRS1_RT_RN5Eigen6MatrixIdLin1ELi1ELi0ELin1ELi1EEEiRT0_RNS_9callbacks6loggerE"
 "_ZNK4stan11variational16normal_meanfield9dimensionEv"
 "_ZNK4stan11variational16normal_meanfield9transformERKN5Eigen6MatrixIdLin1ELi1ELi0ELin1ELi1EEE"
 "_ZNK4stan11variational4adviIN34model_Exponential_expert_namespace24model_Exponential_expertENS0_15normal_fullrankEN5boost6random23additive_combine_engineINS6_26linear_congruential_engineIjLj40014ELj0ELj2147483563EEENS8_IjLj40692ELj0ELj2147483399EEEEEE26stochastic_gradient_ascentERS4_ddiRNS_9callbacks6loggerERNSE_6writerE"
 "_ZNK4stan11variational4adviIN34model_Exponential_expert_namespace24model_Exponential_expertENS0_15normal_fullrankEN5boost6random23additive_combine_engineINS6_26linear_congruential_engineIjLj40014ELj0ELj2147483563EEENS8_IjLj40692ELj0ELj2147483399EEEEEE3runEdbidiRNS_9callbacks6loggerERNSD_6writerESH_"
 "_ZNK4stan11variational4adviIN34model_Exponential_expert_namespace24model_Exponential_expertENS0_15normal_fullrankEN5boost6random23additive_combine_engineINS6_26linear_congruential_engineIjLj40014ELj0ELj2147483563EEENS8_IjLj40692ELj0ELj2147483399EEEEEE9adapt_etaERS4_iRNS_9callbacks6loggerE"
 "_ZNK4stan11variational4adviIN34model_Exponential_expert_namespace24model_Exponential_expertENS0_15normal_fullrankEN5boost6random23additive_combine_engineINS6_26linear_congruential_engineIjLj40014ELj0ELj2147483563EEENS8_IjLj40692ELj0ELj2147483399EEEEEE9calc_ELBOERKS4_RNS_9callbacks6loggerE"
 "_ZNK4stan11variational4adviIN34model_Exponential_expert_namespace24model_Exponential_expertENS0_16normal_meanfieldEN5boost6random23additive_combine_engineINS6_26linear_congruential_engineIjLj40014ELj0ELj2147483563EEENS8_IjLj40692ELj0ELj2147483399EEEEEE26stochastic_gradient_ascentERS4_ddiRNS_9callbacks6loggerERNSE_6writerE"
 "_ZNK4stan11variational4adviIN34model_Exponential_expert_namespace24model_Exponential_expertENS0_16normal_meanfieldEN5boost6random23additive_combine_engineINS6_26linear_congruential_engineIjLj40014ELj0ELj2147483563EEENS8_IjLj40692ELj0ELj2147483399EEEEEE3runEdbidiRNS_9callbacks6loggerERNSD_6writerESH_"
 "_ZNK4stan11variational4adviIN34model_Exponential_expert_namespace24model_Exponential_expertENS0_16normal_meanfieldEN5boost6random23additive_combine_engineINS6_26linear_congruential_engineIjLj40014ELj0ELj2147483563EEENS8_IjLj40692ELj0ELj2147483399EEEEEE9adapt_etaERS4_iRNS_9callbacks6loggerE"
 "_ZNK4stan11variational4adviIN34model_Exponential_expert_namespace24model_Exponential_expertENS0_16normal_meanfieldEN5boost6random23additive_combine_engineINS6_26linear_congruential_engineIjLj40014ELj0ELj2147483563EEENS8_IjLj40692ELj0ELj2147483399EEEEEE9calc_ELBOERKS4_RNS_9callbacks6loggerE"
 "_ZNK4stan2io11var_context13validate_dimsERKNSt7__cxx1112basic_stringIcSt11char_traitsIcESaIcEEES9_S9_RKSt6vectorIySaIyEE"
 "_ZNK4stan2io11var_context7add_vecERNSt7__cxx1118basic_stringstreamIcSt11char_traitsIcESaIcEEERKSt6vectorIySaIyEE"
 "_ZNK4stan2io14program_reader5traceB5cxx11Ei"
 "_ZNK4stan2io17array_var_context10contains_iERKNSt7__cxx1112basic_stringIcSt11char_traitsIcESaIcEEE"
 "_ZNK4stan2io17array_var_context10contains_rERKNSt7__cxx1112basic_stringIcSt11char_traitsIcESaIcEEE"
 "_ZNK4stan2io17array_var_context6dims_iERKNSt7__cxx1112basic_stringIcSt11char_traitsIcESaIcEEE"
 "_ZNK4stan2io17array_var_context6dims_rERKNSt7__cxx1112basic_stringIcSt11char_traitsIcESaIcEEE"
 "_ZNK4stan2io17array_var_context6vals_iERKNSt7__cxx1112basic_stringIcSt11char_traitsIcESaIcEEE"
 "_ZNK4stan2io17array_var_context6vals_rERKNSt7__cxx1112basic_stringIcSt11char_traitsIcESaIcEEE"
 "_ZNK4stan2io17array_var_context7names_iERSt6vectorINSt7__cxx1112basic_stringIcSt11char_traitsIcESaIcEEESaIS8_EE"
 "_ZNK4stan2io17array_var_context7names_rERSt6vectorINSt7__cxx1112basic_stringIcSt11char_traitsIcESaIcEEESaIS8_EE"
 "_ZNK4stan2io17empty_var_context10contains_iERKNSt7__cxx1112basic_stringIcSt11char_traitsIcESaIcEEE"
 "_ZNK4stan2io17empty_var_context10contains_rERKNSt7__cxx1112basic_stringIcSt11char_traitsIcESaIcEEE"
 "_ZNK4stan2io17empty_var_context6dims_iERKNSt7__cxx1112basic_stringIcSt11char_traitsIcESaIcEEE"
 "_ZNK4stan2io17empty_var_context6dims_rERKNSt7__cxx1112basic_stringIcSt11char_traitsIcESaIcEEE"
 "_ZNK4stan2io17empty_var_context6vals_iERKNSt7__cxx1112basic_stringIcSt11char_traitsIcESaIcEEE"
 "_ZNK4stan2io17empty_var_context6vals_rERKNSt7__cxx1112basic_stringIcSt11char_traitsIcESaIcEEE"
 "_ZNK4stan2io17empty_var_context7names_iERSt6vectorINSt7__cxx1112basic_stringIcSt11char_traitsIcESaIcEEESaIS8_EE"
 "_ZNK4stan2io17empty_var_context7names_rERSt6vectorINSt7__cxx1112basic_stringIcSt11char_traitsIcESaIcEEESaIS8_EE"
 "_ZNK4stan2io18random_var_context10contains_iERKNSt7__cxx1112basic_stringIcSt11char_traitsIcESaIcEEE"
 "_ZNK4stan2io18random_var_context10contains_rERKNSt7__cxx1112basic_stringIcSt11char_traitsIcESaIcEEE"
 "_ZNK4stan2io18random_var_context6dims_iERKNSt7__cxx1112basic_stringIcSt11char_traitsIcESaIcEEE"
 "_ZNK4stan2io18random_var_context6dims_rERKNSt7__cxx1112basic_stringIcSt11char_traitsIcESaIcEEE"
 "_ZNK4stan2io18random_var_context6vals_iERKNSt7__cxx1112basic_stringIcSt11char_traitsIcESaIcEEE"
 "_ZNK4stan2io18random_var_context6vals_rERKNSt7__cxx1112basic_stringIcSt11char_traitsIcESaIcEEE"
 "_ZNK4stan2io18random_var_context7names_iERSt6vectorINSt7__cxx1112basic_stringIcSt11char_traitsIcESaIcEEESaIS8_EE"
 "_ZNK4stan2io18random_var_context7names_rERSt6vectorINSt7__cxx1112basic_stringIcSt11char_traitsIcESaIcEEESaIS8_EE"
 "_ZNK4stan2io19chained_var_context10contains_iERKNSt7__cxx1112basic_stringIcSt11char_traitsIcESaIcEEE"
 "_ZNK4stan2io19chained_var_context10contains_rERKNSt7__cxx1112basic_stringIcSt11char_traitsIcESaIcEEE"
 "_ZNK4stan2io19chained_var_context6dims_iERKNSt7__cxx1112basic_stringIcSt11char_traitsIcESaIcEEE"
 "_ZNK4stan2io19chained_var_context6dims_rERKNSt7__cxx1112basic_stringIcSt11char_traitsIcESaIcEEE"
 "_ZNK4stan2io19chained_var_context6vals_iERKNSt7__cxx1112basic_stringIcSt11char_traitsIcESaIcEEE"
 "_ZNK4stan2io19chained_var_context6vals_rERKNSt7__cxx1112basic_stringIcSt11char_traitsIcESaIcEEE"
 "_ZNK4stan2io19chained_var_context7names_iERSt6vectorINSt7__cxx1112basic_stringIcSt11char_traitsIcESaIcEEESaIS8_EE"
 "_ZNK4stan2io19chained_var_context7names_rERSt6vectorINSt7__cxx1112basic_stringIcSt11char_traitsIcESaIcEEESaIS8_EE"
 "_ZNK4stan2io4dump10contains_iERKNSt7__cxx1112basic_stringIcSt11char_traitsIcESaIcEEE"
 "_ZNK4stan2io4dump10contains_rERKNSt7__cxx1112basic_stringIcSt11char_traitsIcESaIcEEE"
 "_ZNK4stan2io4dump6dims_iERKNSt7__cxx1112basic_stringIcSt11char_traitsIcESaIcEEE"
 "_ZNK4stan2io4dump6dims_rERKNSt7__cxx1112basic_stringIcSt11char_traitsIcESaIcEEE"
 "_ZNK4stan2io4dump6vals_iERKNSt7__cxx1112basic_stringIcSt11char_traitsIcESaIcEEE"
 "_ZNK4stan2io4dump6vals_rERKNSt7__cxx1112basic_stringIcSt11char_traitsIcESaIcEEE"
 "_ZNK4stan2io4dump7names_iERSt6vectorINSt7__cxx1112basic_stringIcSt11char_traitsIcESaIcEEESaIS8_EE"
 "_ZNK4stan2io4dump7names_rERSt6vectorINSt7__cxx1112basic_stringIcSt11char_traitsIcESaIcEEESaIS8_EE"
 "_ZNK4stan4lang17located_exceptionISt10bad_typeidE4whatEv"
 "_ZNK4stan4lang17located_exceptionISt13bad_exceptionE4whatEv"
 "_ZNK4stan4lang17located_exceptionISt8bad_castE4whatEv"
 "_ZNK4stan4lang17located_exceptionISt9bad_allocE4whatEv"
 "_ZNK4stan4lang17located_exceptionISt9exceptionE4whatEv"
 "_ZNK4stan5model15model_base_crtpIN34model_Exponential_expert_namespace24model_Exponential_expertEE11write_arrayERN5boost6random23additive_combine_engineINS6_26linear_congruential_engineIjLj40014ELj0ELj2147483563EEENS8_IjLj40692ELj0ELj2147483399EEEEERN5Eigen6MatrixIdLin1ELi1ELi0ELin1ELi1EEESG_bbPSo"
 "_ZNK4stan5model15model_base_crtpIN34model_Exponential_expert_namespace24model_Exponential_expertEE11write_arrayERN5boost6random23additive_combine_engineINS6_26linear_congruential_engineIjLj40014ELj0ELj2147483563EEENS8_IjLj40692ELj0ELj2147483399EEEEERSt6vectorIdSaIdEERSD_IiSaIiEESG_bbPSo"
 "_ZNK4stan5model15model_base_crtpIN34model_Exponential_expert_namespace24model_Exponential_expertEE15log_prob_proptoERN5Eigen6MatrixINS_4math3varELin1ELi1ELi0ELin1ELi1EEEPSo"
 "_ZNK4stan5model15model_base_crtpIN34model_Exponential_expert_namespace24model_Exponential_expertEE15log_prob_proptoERN5Eigen6MatrixIdLin1ELi1ELi0ELin1ELi1EEEPSo"
 "_ZNK4stan5model15model_base_crtpIN34model_Exponential_expert_namespace24model_Exponential_expertEE15log_prob_proptoERSt6vectorINS_4math3varESaIS7_EERS5_IiSaIiEEPSo"
 "_ZNK4stan5model15model_base_crtpIN34model_Exponential_expert_namespace24model_Exponential_expertEE15log_prob_proptoERSt6vectorIdSaIdEERS5_IiSaIiEEPSo"
 "_ZNK4stan5model15model_base_crtpIN34model_Exponential_expert_namespace24model_Exponential_expertEE17log_prob_jacobianERN5Eigen6MatrixINS_4math3varELin1ELi1ELi0ELin1ELi1EEEPSo"
 "_ZNK4stan5model15model_base_crtpIN34model_Exponential_expert_namespace24model_Exponential_expertEE17log_prob_jacobianERN5Eigen6MatrixIdLin1ELi1ELi0ELin1ELi1EEEPSo"
 "_ZNK4stan5model15model_base_crtpIN34model_Exponential_expert_namespace24model_Exponential_expertEE17log_prob_jacobianERSt6vectorINS_4math3varESaIS7_EERS5_IiSaIiEEPSo"
 "_ZNK4stan5model15model_base_crtpIN34model_Exponential_expert_namespace24model_Exponential_expertEE17log_prob_jacobianERSt6vectorIdSaIdEERS5_IiSaIiEEPSo"
 "_ZNK4stan5model15model_base_crtpIN34model_Exponential_expert_namespace24model_Exponential_expertEE24log_prob_propto_jacobianERN5Eigen6MatrixINS_4math3varELin1ELi1ELi0ELin1ELi1EEEPSo"
 "_ZNK4stan5model15model_base_crtpIN34model_Exponential_expert_namespace24model_Exponential_expertEE24log_prob_propto_jacobianERN5Eigen6MatrixIdLin1ELi1ELi0ELin1ELi1EEEPSo"
 "_ZNK4stan5model15model_base_crtpIN34model_Exponential_expert_namespace24model_Exponential_expertEE24log_prob_propto_jacobianERSt6vectorINS_4math3varESaIS7_EERS5_IiSaIiEEPSo"
 "_ZNK4stan5model15model_base_crtpIN34model_Exponential_expert_namespace24model_Exponential_expertEE24log_prob_propto_jacobianERSt6vectorIdSaIdEERS5_IiSaIiEEPSo"
 "_ZNK4stan5model15model_base_crtpIN34model_Exponential_expert_namespace24model_Exponential_expertEE8log_probERN5Eigen6MatrixINS_4math3varELin1ELi1ELi0ELin1ELi1EEEPSo"
 "_ZNK4stan5model15model_base_crtpIN34model_Exponential_expert_namespace24model_Exponential_expertEE8log_probERN5Eigen6MatrixIdLin1ELi1ELi0ELin1ELi1EEEPSo"
 "_ZNK4stan5model15model_base_crtpIN34model_Exponential_expert_namespace24model_Exponential_expertEE8log_probERSt6vectorINS_4math3varESaIS7_EERS5_IiSaIiEEPSo"
 "_ZNK4stan5model15model_base_crtpIN34model_Exponential_expert_namespace24model_Exponential_expertEE8log_probERSt6vectorIdSaIdEERS5_IiSaIiEEPSo"
 "_ZNK5Eigen10MatrixBaseINS_5BlockINS1_INS_6MatrixIdLin1ELin1ELi0ELin1ELin1EEELin1ELi1ELb1EEELin1ELi1ELb0EEEE15makeHouseholderINS_11VectorBlockIS5_Lin1EEEEEvRT_RdSC_"
 "_ZNK5Eigen19HouseholderSequenceINS_6MatrixIdLin1ELin1ELi0ELin1ELin1EEENS1_IdLin1ELi1ELi0ELin1ELi1EEELi1EE6evalToIS2_S3_EEvRT_RT0_"
 "_ZNK5Eigen9DenseBaseINS_12CwiseUnaryOpINS_8internal14scalar_abs2_opIdEEKNS_6MatrixIdLin1ELi1ELi0ELin1ELi1EEEEEE3sumEv"
 "_ZNK5Eigen9DenseBaseINS_13CwiseBinaryOpINS_8internal22scalar_conj_product_opIddEEKNS_6MatrixIdLin1ELi1ELi0ELin1ELi1EEES7_EEE3sumEv"
 "_ZNK5boost10error_infoINS_27tag_original_exception_typeEPKSt9type_infoE17name_value_stringB5cxx11Ev"
 "_ZNK5boost10error_infoINS_27tag_original_exception_typeEPKSt9type_infoE5cloneEv"
 "_ZNK5boost10wrapexceptINS_16bad_lexical_castEE5cloneEv"
 "_ZNK5boost10wrapexceptINS_16bad_lexical_castEE7rethrowEv"
 "_ZNK5boost10wrapexceptINS_4math14rounding_errorEE5cloneEv"
 "_ZNK5boost10wrapexceptINS_4math14rounding_errorEE7rethrowEv"
 "_ZNK5boost10wrapexceptINS_4math16evaluation_errorEE5cloneEv"
 "_ZNK5boost10wrapexceptINS_4math16evaluation_errorEE7rethrowEv"
 "_ZNK5boost10wrapexceptISt11logic_errorE5cloneEv"
 "_ZNK5boost10wrapexceptISt11logic_errorE7rethrowEv"
 "_ZNK5boost10wrapexceptISt12domain_errorE5cloneEv"
 "_ZNK5boost10wrapexceptISt12domain_errorE7rethrowEv"
 "_ZNK5boost10wrapexceptISt12length_errorE5cloneEv"
 "_ZNK5boost10wrapexceptISt12length_errorE7rethrowEv"
 "_ZNK5boost10wrapexceptISt14overflow_errorE5cloneEv"
 "_ZNK5boost10wrapexceptISt14overflow_errorE7rethrowEv"
 "_ZNK5boost10wrapexceptISt16invalid_argumentE5cloneEv"
 "_ZNK5boost10wrapexceptISt16invalid_argumentE7rethrowEv"
 "_ZNK5boost16bad_lexical_cast4whatEv"
 "_ZNK5boost16exception_detail10clone_implINS0_10bad_alloc_EE5cloneEv"
 "_ZNK5boost16exception_detail10clone_implINS0_10bad_alloc_EE7rethrowEv"
 "_ZNK5boost16exception_detail10clone_implINS0_14bad_exception_EE5cloneEv"
 "_ZNK5boost16exception_detail10clone_implINS0_14bad_exception_EE7rethrowEv"
 "_ZNK5boost16exception_detail25error_info_container_impl22diagnostic_informationEPKc"
 "_ZNK5boost16exception_detail25error_info_container_impl3getERKNS0_10type_info_E"
 "_ZNK5boost16exception_detail25error_info_container_impl5cloneEv"
 "_ZNK5boost16exception_detail25error_info_container_impl7add_refEv"
 "_ZNK5boost16exception_detail25error_info_container_impl7releaseEv"
 "_ZNK5rstan2io21rlist_ref_var_context10contains_iERKNSt7__cxx1112basic_stringIcSt11char_traitsIcESaIcEEE"
 "_ZNK5rstan2io21rlist_ref_var_context10contains_rERKNSt7__cxx1112basic_stringIcSt11char_traitsIcESaIcEEE"
 "_ZNK5rstan2io21rlist_ref_var_context6dims_iERKNSt7__cxx1112basic_stringIcSt11char_traitsIcESaIcEEE"
 "_ZNK5rstan2io21rlist_ref_var_context6dims_rERKNSt7__cxx1112basic_stringIcSt11char_traitsIcESaIcEEE"
 "_ZNK5rstan2io21rlist_ref_var_context6vals_iERKNSt7__cxx1112basic_stringIcSt11char_traitsIcESaIcEEE"
 "_ZNK5rstan2io21rlist_ref_var_context6vals_rERKNSt7__cxx1112basic_stringIcSt11char_traitsIcESaIcEEE"
 "_ZNK5rstan2io21rlist_ref_var_context7names_iERSt6vectorINSt7__cxx1112basic_stringIcSt11char_traitsIcESaIcEEESaIS8_EE"
 "_ZNK5rstan2io21rlist_ref_var_context7names_rERSt6vectorINSt7__cxx1112basic_stringIcSt11char_traitsIcESaIcEEESaIS8_EE"
 "_ZNK5rstan8stan_fitIN34model_Exponential_expert_namespace24model_Exponential_expertEN5boost6random23additive_combine_engineINS4_26linear_congruential_engineIjLj40014ELj0ELj2147483563EEENS6_IjLj40692ELj0ELj2147483399EEEEEE10param_dimsEv"
 "_ZNK5rstan8stan_fitIN34model_Exponential_expert_namespace24model_Exponential_expertEN5boost6random23additive_combine_engineINS4_26linear_congruential_engineIjLj40014ELj0ELj2147483563EEENS6_IjLj40692ELj0ELj2147483399EEEEEE11param_namesEv"
 "_ZNK5rstan8stan_fitIN34model_Exponential_expert_namespace24model_Exponential_expertEN5boost6random23additive_combine_engineINS4_26linear_congruential_engineIjLj40014ELj0ELj2147483563EEENS6_IjLj40692ELj0ELj2147483399EEEEEE13param_dims_oiEv"
 "_ZNK5rstan8stan_fitIN34model_Exponential_expert_namespace24model_Exponential_expertEN5boost6random23additive_combine_engineINS4_26linear_congruential_engineIjLj40014ELj0ELj2147483563EEENS6_IjLj40692ELj0ELj2147483399EEEEEE14param_names_oiEv"
 "_ZNK5rstan8stan_fitIN34model_Exponential_expert_namespace24model_Exponential_expertEN5boost6random23additive_combine_engineINS4_26linear_congruential_engineIjLj40014ELj0ELj2147483563EEENS6_IjLj40692ELj0ELj2147483399EEEEEE15param_fnames_oiEv"
 "_ZNK5rstan9stan_args18stan_args_to_rlistEv"
 "_ZNK5rstan9stan_args21write_args_as_commentERSo"
 "_ZNKSt10_HashtableINSt6thread2idESt4pairIKS1_St10unique_ptrIN4stan4math22AutodiffStackSingletonINS6_4variENS6_15chainable_allocEEESt14default_deleteISA_EEESaISE_ENSt8__detail10_Select1stESt8equal_toIS1_ESt4hashIS1_ENSG_18_Mod_range_hashingENSG_20_Default_ranged_hashENSG_20_Prime_rehash_policyENSG_17_Hashtable_traitsILb0ELb0ELb1EEEE19_M_find_before_nodeEyRS3_y"
 "_ZNKSt5ctypeIcE8do_widenEc"
 "_ZNKSt8_Rb_treeINSt7__cxx1112basic_stringIcSt11char_traitsIcESaIcEEESt4pairIKS5_S6_ISt6vectorIdSaIdEES8_IySaIyEEEESt10_Select1stISE_ESt4lessIS5_ESaISE_EE4findERS7_"
 "_ZNKSt8_Rb_treeINSt7__cxx1112basic_stringIcSt11char_traitsIcESaIcEEESt4pairIKS5_S6_ISt6vectorIiSaIiEES8_IySaIyEEEESt10_Select1stISE_ESt4lessIS5_ESaISE_EE4findERS7_"
 "_ZNKSt8_Rb_treeINSt7__cxx1112basic_stringIcSt11char_traitsIcESaIcEEESt4pairIKS5_St6vectorIySaIyEEESt10_Select1stISB_ESt4lessIS5_ESaISB_EE4findERS7_"
 "_ZNSt10_HashtableINSt6thread2idESt4pairIKS1_St10unique_ptrIN4stan4math22AutodiffStackSingletonINS6_4variENS6_15chainable_allocEEESt14default_deleteISA_EEESaISE_ENSt8__detail10_Select1stESt8equal_toIS1_ESt4hashIS1_ENSG_18_Mod_range_hashingENSG_20_Default_ranged_hashENSG_20_Prime_rehash_policyENSG_17_Hashtable_traitsILb0ELb0ELb1EEEE21_M_insert_unique_nodeEyyPNSG_10_Hash_nodeISE_Lb0EEEy"
 "_ZNSt10_HashtableINSt6thread2idESt4pairIKS1_St10unique_ptrIN4stan4math22AutodiffStackSingletonINS6_4variENS6_15chainable_allocEEESt14default_deleteISA_EEESaISE_ENSt8__detail10_Select1stESt8equal_toIS1_ESt4hashIS1_ENSG_18_Mod_range_hashingENSG_20_Default_ranged_hashENSG_20_Prime_rehash_policyENSG_17_Hashtable_traitsILb0ELb0ELb1EEEE4findERS3_"
 "_ZNSt10_HashtableINSt6thread2idESt4pairIKS1_St10unique_ptrIN4stan4math22AutodiffStackSingletonINS6_4variENS6_15chainable_allocEEESt14default_deleteISA_EEESaISE_ENSt8__detail10_Select1stESt8equal_toIS1_ESt4hashIS1_ENSG_18_Mod_range_hashingENSG_20_Default_ranged_hashENSG_20_Prime_rehash_policyENSG_17_Hashtable_traitsILb0ELb0ELb1EEEED1Ev"
 "_ZNSt20__uninitialized_copyILb0EE13__uninit_copyIN9__gnu_cxx17__normal_iteratorIPNSt7__cxx1112basic_stringIcSt11char_traitsIcESaIcEEESt6vectorIS9_SaIS9_EEEESA_EET0_T_SG_SF_"
 "_ZNSt20__uninitialized_copyILb0EE13__uninit_copyIPKN4Rcpp6VectorILi14ENS2_15PreserveStorageEEEPS5_EET0_T_SA_S9_"
 "_ZNSt3mapINSt7__cxx1112basic_stringIcSt11char_traitsIcESaIcEEEP7SEXPRECSt4lessIS5_ESaISt4pairIKS5_S7_EEEixEOS5_"
 "_ZNSt4pairIKNSt7__cxx1112basic_stringIcSt11char_traitsIcESaIcEEESt6vectorIySaIyEEED1Ev"
 "_ZNSt4pairISt6vectorIdSaIdEES0_IySaIyEEED1Ev"
 "_ZNSt6vectorIN4Rcpp6VectorILi14ENS0_15PreserveStorageEEESaIS3_EE17_M_realloc_insertIJS3_EEEvN9__gnu_cxx17__normal_iteratorIPS3_S5_EEDpOT_"
 "_ZNSt6vectorIN4Rcpp6VectorILi14ENS0_15PreserveStorageEEESaIS3_EE7reserveEy"
 "_ZNSt6vectorIN4Rcpp6VectorILi14ENS0_15PreserveStorageEEESaIS3_EED1Ev"
 "_ZNSt6vectorIN4stan2io13preproc_eventESaIS2_EE17_M_realloc_insertIJRKS2_EEEvN9__gnu_cxx17__normal_iteratorIPS2_S4_EEDpOT_"
 "_ZNSt6vectorIN4stan2io13preproc_eventESaIS2_EED1Ev"
 "_ZNSt6vectorIN4stan4math3varESaIS2_EE12emplace_backIJS2_EEEvDpOT_"
 "_ZNSt6vectorIN4stan4math3varESaIS2_EE17_M_realloc_insertIJRKS2_EEEvN9__gnu_cxx17__normal_iteratorIPS2_S4_EEDpOT_"
 "_ZNSt6vectorIN4stan4math3varESaIS2_EE7reserveEy"
 "_ZNSt6vectorIN4stan4math3varESaIS2_EE9push_backERKS2_"
 "_ZNSt6vectorINSt7__cxx1112basic_stringIcSt11char_traitsIcESaIcEEESaIS5_EE12emplace_backIJRS5_EEEvDpOT_"
 "_ZNSt6vectorINSt7__cxx1112basic_stringIcSt11char_traitsIcESaIcEEESaIS5_EE12emplace_backIJS5_EEEvDpOT_"
 "_ZNSt6vectorINSt7__cxx1112basic_stringIcSt11char_traitsIcESaIcEEESaIS5_EE15_M_range_insertIN9__gnu_cxx17__normal_iteratorIPS5_S7_EEEEvSC_T_SD_St20forward_iterator_tag"
 "_ZNSt6vectorINSt7__cxx1112basic_stringIcSt11char_traitsIcESaIcEEESaIS5_EE17_M_default_appendEy"
 "_ZNSt6vectorINSt7__cxx1112basic_stringIcSt11char_traitsIcESaIcEEESaIS5_EE17_M_realloc_insertIJRKS5_EEEvN9__gnu_cxx17__normal_iteratorIPS5_S7_EEDpOT_"
 "_ZNSt6vectorINSt7__cxx1112basic_stringIcSt11char_traitsIcESaIcEEESaIS5_EE17_M_realloc_insertIJRS5_EEEvN9__gnu_cxx17__normal_iteratorIPS5_S7_EEDpOT_"
 "_ZNSt6vectorINSt7__cxx1112basic_stringIcSt11char_traitsIcESaIcEEESaIS5_EE17_M_realloc_insertIJS5_EEEvN9__gnu_cxx17__normal_iteratorIPS5_S7_EEDpOT_"
 "_ZNSt6vectorINSt7__cxx1112basic_stringIcSt11char_traitsIcESaIcEEESaIS5_EE6resizeEy"
 "_ZNSt6vectorINSt7__cxx1112basic_stringIcSt11char_traitsIcESaIcEEESaIS5_EE7reserveEy"
 "_ZNSt6vectorINSt7__cxx1112basic_stringIcSt11char_traitsIcESaIcEEESaIS5_EE8_M_eraseEN9__gnu_cxx17__normal_iteratorIPS5_S7_EESB_"
 "_ZNSt6vectorINSt7__cxx1112basic_stringIcSt11char_traitsIcESaIcEEESaIS5_EE9push_backERKS5_"
 "_ZNSt6vectorINSt7__cxx1112basic_stringIcSt11char_traitsIcESaIcEEESaIS5_EED1Ev"
 "_ZNSt6vectorINSt7__cxx1112basic_stringIcSt11char_traitsIcESaIcEEESaIS5_EEaSERKS7_"
 "_ZNSt6vectorIPN4Rcpp12SignedMethodIN5rstan8stan_fitIN34model_Exponential_expert_namespace24model_Exponential_expertEN5boost6random23additive_combine_engineINS7_26linear_congruential_engineIjLj40014ELj0ELj2147483563EEENS9_IjLj40692ELj0ELj2147483399EEEEEEEEESaISF_EE17_M_realloc_insertIJSF_EEEvN9__gnu_cxx17__normal_iteratorIPSF_SH_EEDpOT_"
 "_ZNSt6vectorIPN4Rcpp17SignedConstructorIN5rstan8stan_fitIN34model_Exponential_expert_namespace24model_Exponential_expertEN5boost6random23additive_combine_engineINS7_26linear_congruential_engineIjLj40014ELj0ELj2147483563EEENS9_IjLj40692ELj0ELj2147483399EEEEEEEEESaISF_EE17_M_realloc_insertIJSF_EEEvN9__gnu_cxx17__normal_iteratorIPSF_SH_EEDpOT_"
 "_ZNSt6vectorIPN4stan4math15chainable_allocESaIS3_EE17_M_default_appendEy"
 "_ZNSt6vectorIPN4stan4math4variESaIS3_EE12emplace_backIJS3_EEEvDpOT_"
 "_ZNSt6vectorIPN4stan4math4variESaIS3_EE17_M_default_appendEy"
 "_ZNSt6vectorIPN4stan4math4variESaIS3_EE17_M_realloc_insertIJS3_EEEvN9__gnu_cxx17__normal_iteratorIPS3_S5_EEDpOT_"
 "_ZNSt6vectorIPcSaIS0_EE17_M_realloc_insertIJRKS0_EEEvN9__gnu_cxx17__normal_iteratorIPS0_S2_EEDpOT_"
 "_ZNSt6vectorIPcSaIS0_EE17_M_realloc_insertIJS0_EEEvN9__gnu_cxx17__normal_iteratorIPS0_S2_EEDpOT_"
 "_ZNSt6vectorIS_IS_IdSaIdEESaIS1_EESaIS3_EED1Ev"
 "_ZNSt6vectorIS_IdSaIdEESaIS1_EE17_M_realloc_insertIJS1_EEEvN9__gnu_cxx17__normal_iteratorIPS1_S3_EEDpOT_"
 "_ZNSt6vectorIS_IdSaIdEESaIS1_EED1Ev"
 "_ZNSt6vectorIS_IjSaIjEESaIS1_EE12emplace_backIJS1_EEEvDpOT_"
 "_ZNSt6vectorIS_IjSaIjEESaIS1_EE17_M_default_appendEy"
 "_ZNSt6vectorIS_IjSaIjEESaIS1_EE17_M_realloc_insertIJRKS1_EEEvN9__gnu_cxx17__normal_iteratorIPS1_S3_EEDpOT_"
 "_ZNSt6vectorIS_IjSaIjEESaIS1_EE17_M_realloc_insertIJS1_EEEvN9__gnu_cxx17__normal_iteratorIPS1_S3_EEDpOT_"
 "_ZNSt6vectorIS_IjSaIjEESaIS1_EED1Ev"
 "_ZNSt6vectorIS_IySaIyEESaIS1_EE17_M_default_appendEy"
 "_ZNSt6vectorIS_IySaIyEESaIS1_EE17_M_realloc_insertIJRKS1_EEEvN9__gnu_cxx17__normal_iteratorIPS1_S3_EEDpOT_"
 "_ZNSt6vectorIS_IySaIyEESaIS1_EE17_M_realloc_insertIJRS1_EEEvN9__gnu_cxx17__normal_iteratorIPS1_S3_EEDpOT_"
 "_ZNSt6vectorIS_IySaIyEESaIS1_EED1Ev"
 "_ZNSt6vectorISt4pairINSt7__cxx1112basic_stringIcSt11char_traitsIcESaIcEEEiESaIS7_EE12emplace_backIJS7_EEEvDpOT_"
 "_ZNSt6vectorISt4pairINSt7__cxx1112basic_stringIcSt11char_traitsIcESaIcEEEiESaIS7_EE17_M_realloc_insertIJS7_EEEvN9__gnu_cxx17__normal_iteratorIPS7_S9_EEDpOT_"
 "_ZNSt6vectorISt4pairINSt7__cxx1112basic_stringIcSt11char_traitsIcESaIcEEEiESaIS7_EED1Ev"
 "_ZNSt6vectorIdSaIdEE12emplace_backIJdEEEvDpOT_"
 "_ZNSt6vectorIdSaIdEE14_M_fill_insertEN9__gnu_cxx17__normal_iteratorIPdS1_EEyRKd"
 "_ZNSt6vectorIdSaIdEE15_M_range_insertIN9__gnu_cxx17__normal_iteratorIPdS1_EEEEvS6_T_S7_St20forward_iterator_tag"
 "_ZNSt6vectorIdSaIdEE15_M_range_insertIPKdEEvN9__gnu_cxx17__normal_iteratorIPdS1_EET_S9_St20forward_iterator_tag"
 "_ZNSt6vectorIdSaIdEE17_M_default_appendEy"
 "_ZNSt6vectorIdSaIdEE17_M_realloc_insertIJRKdEEEvN9__gnu_cxx17__normal_iteratorIPdS1_EEDpOT_"
 "_ZNSt6vectorIdSaIdEE6insertEN9__gnu_cxx17__normal_iteratorIPKdS1_EERS4_"
 "_ZNSt6vectorIdSaIdEE7reserveEy"
 "_ZNSt6vectorIdSaIdEE9push_backERKd"
 "_ZNSt6vectorIdSaIdEEC1ERKS1_"
 "_ZNSt6vectorIdSaIdEEaSERKS1_"
 "_ZNSt6vectorIiSaIiEE12emplace_backIJiEEEvDpOT_"
 "_ZNSt6vectorIiSaIiEE17_M_realloc_insertIJRKiEEEvN9__gnu_cxx17__normal_iteratorIPiS1_EEDpOT_"
 "_ZNSt6vectorIiSaIiEE9push_backERKi"
 "_ZNSt6vectorIiSaIiEEC1ERKS1_"
 "_ZNSt6vectorIiSaIiEEaSERKS1_"
 "_ZNSt6vectorIjSaIjEE12emplace_backIJjEEEvDpOT_"
 "_ZNSt6vectorIjSaIjEE17_M_default_appendEy"
 "_ZNSt6vectorIySaIyEE12emplace_backIJyEEEvDpOT_"
 "_ZNSt6vectorIySaIyEE17_M_default_appendEy"
 "_ZNSt6vectorIySaIyEE17_M_realloc_insertIJRKyEEEvN9__gnu_cxx17__normal_iteratorIPyS1_EEDpOT_"
 "_ZNSt6vectorIySaIyEE9push_backERKy"
 "_ZNSt6vectorIySaIyEEC1ERKS1_"
 "_ZNSt7__cxx1112basic_stringIcSt11char_traitsIcESaIcEE12_M_constructIPKcEEvT_S8_St20forward_iterator_tag"
 "_ZNSt8_Rb_treeIN5boost16exception_detail10type_info_ESt4pairIKS2_NS0_10shared_ptrINS1_15error_info_baseEEEESt10_Select1stIS8_ESt4lessIS2_ESaIS8_EE14_M_insert_nodeEPSt18_Rb_tree_node_baseSG_PSt13_Rb_tree_nodeIS8_E"
 "_ZNSt8_Rb_treeIN5boost16exception_detail10type_info_ESt4pairIKS2_NS0_10shared_ptrINS1_15error_info_baseEEEESt10_Select1stIS8_ESt4lessIS2_ESaIS8_EE24_M_get_insert_unique_posERS4_"
 "_ZNSt8_Rb_treeIN5boost16exception_detail10type_info_ESt4pairIKS2_NS0_10shared_ptrINS1_15error_info_baseEEEESt10_Select1stIS8_ESt4lessIS2_ESaIS8_EE8_M_eraseEPSt13_Rb_tree_nodeIS8_E"
 "_ZNSt8_Rb_treeINSt7__cxx1112basic_stringIcSt11char_traitsIcESaIcEEESt4pairIKS5_P7SEXPRECESt10_Select1stISA_ESt4lessIS5_ESaISA_EE24_M_get_insert_unique_posERS7_"
 "_ZNSt8_Rb_treeINSt7__cxx1112basic_stringIcSt11char_traitsIcESaIcEEESt4pairIKS5_P7SEXPRECESt10_Select1stISA_ESt4lessIS5_ESaISA_EE8_M_eraseEPSt13_Rb_tree_nodeISA_E"
 "_ZNSt8_Rb_treeINSt7__cxx1112basic_stringIcSt11char_traitsIcESaIcEEESt4pairIKS5_PN4Rcpp10class_BaseEESt10_Select1stISB_ESt4lessIS5_ESaISB_EE4findERS7_"
 "_ZNSt8_Rb_treeINSt7__cxx1112basic_stringIcSt11char_traitsIcESaIcEEESt4pairIKS5_PN4Rcpp10class_BaseEESt10_Select1stISB_ESt4lessIS5_ESaISB_EE8_M_eraseEPSt13_Rb_tree_nodeISB_E"
 "_ZNSt8_Rb_treeINSt7__cxx1112basic_stringIcSt11char_traitsIcESaIcEEESt4pairIKS5_PN4Rcpp11CppFunctionEESt10_Select1stISB_ESt4lessIS5_ESaISB_EE8_M_eraseEPSt13_Rb_tree_nodeISB_E"
 "_ZNSt8_Rb_treeINSt7__cxx1112basic_stringIcSt11char_traitsIcESaIcEEESt4pairIKS5_PN4Rcpp11CppPropertyIN5rstan8stan_fitIN34model_Exponential_expert_namespace24model_Exponential_expertEN5boost6random23additive_combine_engineINSF_26linear_congruential_engineIjLj40014ELj0ELj2147483563EEENSH_IjLj40692ELj0ELj2147483399EEEEEEEEEESt10_Select1stISO_ESt4lessIS5_ESaISO_EE4findERS7_"
 "_ZNSt8_Rb_treeINSt7__cxx1112basic_stringIcSt11char_traitsIcESaIcEEESt4pairIKS5_PN4Rcpp11CppPropertyIN5rstan8stan_fitIN34model_Exponential_expert_namespace24model_Exponential_expertEN5boost6random23additive_combine_engineINSF_26linear_congruential_engineIjLj40014ELj0ELj2147483563EEENSH_IjLj40692ELj0ELj2147483399EEEEEEEEEESt10_Select1stISO_ESt4lessIS5_ESaISO_EE8_M_eraseEPSt13_Rb_tree_nodeISO_E"
 "_ZNSt8_Rb_treeINSt7__cxx1112basic_stringIcSt11char_traitsIcESaIcEEESt4pairIKS5_PSt6vectorIPN4Rcpp12SignedMethodIN5rstan8stan_fitIN34model_Exponential_expert_namespace24model_Exponential_expertEN5boost6random23additive_combine_engineINSG_26linear_congruential_engineIjLj40014ELj0ELj2147483563EEENSI_IjLj40692ELj0ELj2147483399EEEEEEEEESaISO_EEESt10_Select1stISS_ESt4lessIS5_ESaISS_EE17_M_emplace_uniqueIJS6_IS5_SR_EEEES6_ISt17_Rb_tree_iteratorISS_EbEDpOT_"
 "_ZNSt8_Rb_treeINSt7__cxx1112basic_stringIcSt11char_traitsIcESaIcEEESt4pairIKS5_PSt6vectorIPN4Rcpp12SignedMethodIN5rstan8stan_fitIN34model_Exponential_expert_namespace24model_Exponential_expertEN5boost6random23additive_combine_engineINSG_26linear_congruential_engineIjLj40014ELj0ELj2147483563EEENSI_IjLj40692ELj0ELj2147483399EEEEEEEEESaISO_EEESt10_Select1stISS_ESt4lessIS5_ESaISS_EE4findERS7_"
 "_ZNSt8_Rb_treeINSt7__cxx1112basic_stringIcSt11char_traitsIcESaIcEEESt4pairIKS5_PSt6vectorIPN4Rcpp12SignedMethodIN5rstan8stan_fitIN34model_Exponential_expert_namespace24model_Exponential_expertEN5boost6random23additive_combine_engineINSG_26linear_congruential_engineIjLj40014ELj0ELj2147483563EEENSI_IjLj40692ELj0ELj2147483399EEEEEEEEESaISO_EEESt10_Select1stISS_ESt4lessIS5_ESaISS_EE8_M_eraseEPSt13_Rb_tree_nodeISS_E"
 "_ZNSt8_Rb_treeINSt7__cxx1112basic_stringIcSt11char_traitsIcESaIcEEESt4pairIKS5_S6_ISt6vectorIdSaIdEES8_IySaIyEEEESt10_Select1stISE_ESt4lessIS5_ESaISE_EE14_M_insert_nodeEPSt18_Rb_tree_node_baseSM_PSt13_Rb_tree_nodeISE_E"
 "_ZNSt8_Rb_treeINSt7__cxx1112basic_stringIcSt11char_traitsIcESaIcEEESt4pairIKS5_S6_ISt6vectorIdSaIdEES8_IySaIyEEEESt10_Select1stISE_ESt4lessIS5_ESaISE_EE24_M_get_insert_unique_posERS7_"
 "_ZNSt8_Rb_treeINSt7__cxx1112basic_stringIcSt11char_traitsIcESaIcEEESt4pairIKS5_S6_ISt6vectorIdSaIdEES8_IySaIyEEEESt10_Select1stISE_ESt4lessIS5_ESaISE_EE8_M_eraseEPSt13_Rb_tree_nodeISE_E"
 "_ZNSt8_Rb_treeINSt7__cxx1112basic_stringIcSt11char_traitsIcESaIcEEESt4pairIKS5_S6_ISt6vectorIiSaIiEES8_IySaIyEEEESt10_Select1stISE_ESt4lessIS5_ESaISE_EE22_M_emplace_hint_uniqueIJRKSt21piecewise_construct_tSt5tupleIJOS5_EESP_IJEEEEESt17_Rb_tree_iteratorISE_ESt23_Rb_tree_const_iteratorISE_EDpOT_"
 "_ZNSt8_Rb_treeINSt7__cxx1112basic_stringIcSt11char_traitsIcESaIcEEESt4pairIKS5_S6_ISt6vectorIiSaIiEES8_IySaIyEEEESt10_Select1stISE_ESt4lessIS5_ESaISE_EE24_M_get_insert_unique_posERS7_"
 "_ZNSt8_Rb_treeINSt7__cxx1112basic_stringIcSt11char_traitsIcESaIcEEESt4pairIKS5_S6_ISt6vectorIiSaIiEES8_IySaIyEEEESt10_Select1stISE_ESt4lessIS5_ESaISE_EE8_M_eraseEPSt13_Rb_tree_nodeISE_E"
 "_ZNSt8_Rb_treeINSt7__cxx1112basic_stringIcSt11char_traitsIcESaIcEEESt4pairIKS5_St3mapIS5_iSt4lessIS5_ESaIS6_IS7_iEEEESt10_Select1stISE_ESA_SaISE_EE8_M_eraseEPSt13_Rb_tree_nodeISE_E"
 "_ZNSt8_Rb_treeINSt7__cxx1112basic_stringIcSt11char_traitsIcESaIcEEESt4pairIKS5_St6vectorIySaIyEEESt10_Select1stISB_ESt4lessIS5_ESaISB_EE10_M_insert_ISB_NSH_11_Alloc_nodeEEESt17_Rb_tree_iteratorISB_EPSt18_Rb_tree_node_baseSN_OT_RT0_"
 "_ZNSt8_Rb_treeINSt7__cxx1112basic_stringIcSt11char_traitsIcESaIcEEESt4pairIKS5_St6vectorIySaIyEEESt10_Select1stISB_ESt4lessIS5_ESaISB_EE16_M_insert_uniqueISB_EES6_ISt17_Rb_tree_iteratorISB_EbEOT_"
 "_ZNSt8_Rb_treeINSt7__cxx1112basic_stringIcSt11char_traitsIcESaIcEEESt4pairIKS5_St6vectorIySaIyEEESt10_Select1stISB_ESt4lessIS5_ESaISB_EE8_M_eraseEPSt13_Rb_tree_nodeISB_E"
 "_ZNSt8_Rb_treeINSt7__cxx1112basic_stringIcSt11char_traitsIcESaIcEEESt4pairIKS5_iESt10_Select1stIS8_ESt4lessIS5_ESaIS8_EE8_M_eraseEPSt13_Rb_tree_nodeIS8_E"
 "_ZSt13__adjust_heapIN9__gnu_cxx17__normal_iteratorIPdSt6vectorIdSaIdEEEExdNS0_5__ops15_Iter_less_iterEEvT_T0_SA_T1_T2_"
 "_ZSt13__introselectIN9__gnu_cxx17__normal_iteratorIPdSt6vectorIdSaIdEEEExNS0_5__ops15_Iter_less_iterEEvT_S9_S9_T0_T1_"
 "_ZSt9__find_ifIN9__gnu_cxx17__normal_iteratorIPKNSt7__cxx1112basic_stringIcSt11char_traitsIcESaIcEEESt6vectorIS7_SaIS7_EEEENS0_5__ops16_Iter_equals_valIS8_EEET_SH_SH_T0_St26random_access_iterator_tag"
 "_ZSt9__find_ifIN9__gnu_cxx17__normal_iteratorIPNSt7__cxx1112basic_stringIcSt11char_traitsIcESaIcEEESt6vectorIS7_SaIS7_EEEENS0_5__ops16_Iter_equals_valIA5_KcEEET_SI_SI_T0_St26random_access_iterator_tag"
 "_ZSt9__find_ifIN9__gnu_cxx17__normal_iteratorIPNSt7__cxx1112basic_stringIcSt11char_traitsIcESaIcEEESt6vectorIS7_SaIS7_EEEENS0_5__ops16_Iter_equals_valIKS7_EEET_SH_SH_T0_St26random_access_iterator_tag"
 "_ZSteqIcEN9__gnu_cxx11__enable_ifIXsrSt9__is_charIT_E7__valueEbE6__typeERKNSt7__cxx1112basic_stringIS3_St11char_traitsIS3_ESaIS3_EEESE_"
 "_ZStplIcSt11char_traitsIcESaIcEENSt7__cxx1112basic_stringIT_T0_T1_EEOS8_PKS5_"
 "_ZStplIcSt11char_traitsIcESaIcEENSt7__cxx1112basic_stringIT_T0_T1_EEOS8_S9_"
 "_ZStplIcSt11char_traitsIcESaIcEENSt7__cxx1112basic_stringIT_T0_T1_EEPKS5_RKS8_"
 "_ZTCN4Rcpp8RostreamILb0EEE0_So"
 "_ZTCN4Rcpp8RostreamILb1EEE0_So"
 "_ZTCN5rstan2io9r_ostreamINS0_16r_cerr_streambufEEE0_So"
 "_ZTCN5rstan2io9r_ostreamINS0_16r_cout_streambufEEE0_So"
 "_ZTIN34model_Exponential_expert_namespace24model_Exponential_expertE"
 "_ZTIN3tbb10interface623task_scheduler_observerE"
 "_ZTIN3tbb8internal26task_scheduler_observer_v3E"
 "_ZTIN4Rcpp10CppMethod0IN5rstan8stan_fitIN34model_Exponential_expert_namespace24model_Exponential_expertEN5boost6random23additive_combine_engineINS6_26linear_congruential_engineIjLj40014ELj0ELj2147483563EEENS8_IjLj40692ELj0ELj2147483399EEEEEEEP7SEXPRECEE"
 "_ZTIN4Rcpp10CppMethod1IN5rstan8stan_fitIN34model_Exponential_expert_namespace24model_Exponential_expertEN5boost6random23additive_combine_engineINS6_26linear_congruential_engineIjLj40014ELj0ELj2147483563EEENS8_IjLj40692ELj0ELj2147483399EEEEEEEP7SEXPRECSE_EE"
 "_ZTIN4Rcpp10CppMethod2IN5rstan8stan_fitIN34model_Exponential_expert_namespace24model_Exponential_expertEN5boost6random23additive_combine_engineINS6_26linear_congruential_engineIjLj40014ELj0ELj2147483563EEENS8_IjLj40692ELj0ELj2147483399EEEEEEEP7SEXPRECSE_SE_EE"
 "_ZTIN4Rcpp10CppMethod3IN5rstan8stan_fitIN34model_Exponential_expert_namespace24model_Exponential_expertEN5boost6random23additive_combine_engineINS6_26linear_congruential_engineIjLj40014ELj0ELj2147483563EEENS8_IjLj40692ELj0ELj2147483399EEEEEEEP7SEXPRECSE_SE_SE_EE"
 "_ZTIN4Rcpp10RstreambufILb0EEE"
 "_ZTIN4Rcpp10RstreambufILb1EEE"
 "_ZTIN4Rcpp10class_BaseE"
 "_ZTIN4Rcpp10eval_errorE"
 "_ZTIN4Rcpp11CppPropertyIN5rstan8stan_fitIN34model_Exponential_expert_namespace24model_Exponential_expertEN5boost6random23additive_combine_engineINS6_26linear_congruential_engineIjLj40014ELj0ELj2147483563EEENS8_IjLj40692ELj0ELj2147483399EEEEEEEEE"
 "_ZTIN4Rcpp12CppFinalizerIN5rstan8stan_fitIN34model_Exponential_expert_namespace24model_Exponential_expertEN5boost6random23additive_combine_engineINS6_26linear_congruential_engineIjLj40014ELj0ELj2147483563EEENS8_IjLj40692ELj0ELj2147483399EEEEEEEEE"
 "_ZTIN4Rcpp13Constructor_3IN5rstan8stan_fitIN34model_Exponential_expert_namespace24model_Exponential_expertEN5boost6random23additive_combine_engineINS6_26linear_congruential_engineIjLj40014ELj0ELj2147483563EEENS8_IjLj40692ELj0ELj2147483399EEEEEEEP7SEXPRECSE_SE_EE"
 "_ZTIN4Rcpp13not_referenceE"
 "_ZTIN4Rcpp14not_compatibleE"
 "_ZTIN4Rcpp16Constructor_BaseIN5rstan8stan_fitIN34model_Exponential_expert_namespace24model_Exponential_expertEN5boost6random23additive_combine_engineINS6_26linear_congruential_engineIjLj40014ELj0ELj2147483563EEENS8_IjLj40692ELj0ELj2147483399EEEEEEEEE"
 "_ZTIN4Rcpp16const_CppMethod0IN5rstan8stan_fitIN34model_Exponential_expert_namespace24model_Exponential_expertEN5boost6random23additive_combine_engineINS6_26linear_congruential_engineIjLj40014ELj0ELj2147483563EEENS8_IjLj40692ELj0ELj2147483399EEEEEEEP7SEXPRECEE"
 "_ZTIN4Rcpp17LongjumpExceptionE"
 "_ZTIN4Rcpp19index_out_of_boundsE"
 "_ZTIN4Rcpp6class_IN5rstan8stan_fitIN34model_Exponential_expert_namespace24model_Exponential_expertEN5boost6random23additive_combine_engineINS6_26linear_congruential_engineIjLj40014ELj0ELj2147483563EEENS8_IjLj40692ELj0ELj2147483399EEEEEEEEE"
 "_ZTIN4Rcpp8RostreamILb0EEE"
 "_ZTIN4Rcpp8RostreamILb1EEE"
 "_ZTIN4Rcpp8internal20InterruptedExceptionE"
 "_ZTIN4Rcpp9CppMethodIN5rstan8stan_fitIN34model_Exponential_expert_namespace24model_Exponential_expertEN5boost6random23additive_combine_engineINS6_26linear_congruential_engineIjLj40014ELj0ELj2147483563EEENS8_IjLj40692ELj0ELj2147483399EEEEEEEEE"
 "_ZTIN4Rcpp9exceptionE"
 "_ZTIN4stan11variational11base_familyE"
 "_ZTIN4stan11variational15normal_fullrankE"
 "_ZTIN4stan11variational16normal_meanfieldE"
 "_ZTIN4stan2io11var_contextE"
 "_ZTIN4stan2io17array_var_contextE"
 "_ZTIN4stan2io17empty_var_contextE"
 "_ZTIN4stan2io18random_var_contextE"
 "_ZTIN4stan2io19chained_var_contextE"
 "_ZTIN4stan2io4dumpE"
 "_ZTIN4stan4lang17located_exceptionISt10bad_typeidEE"
 "_ZTIN4stan4lang17located_exceptionISt13bad_exceptionEE"
 "_ZTIN4stan4lang17located_exceptionISt8bad_castEE"
 "_ZTIN4stan4lang17located_exceptionISt9bad_allocEE"
 "_ZTIN4stan4lang17located_exceptionISt9exceptionEE"
 "_ZTIN4stan4math10op_dv_variE"
 "_ZTIN4stan4math10op_vd_variE"
 "_ZTIN4stan4math10op_vv_variE"
 "_ZTIN4stan4math10sum_v_variE"
 "_ZTIN4stan4math16ad_tape_observerE"
 "_ZTIN4stan4math17multiply_mat_variIdLin1ELin1ENS0_3varELi1EEE"
 "_ZTIN4stan4math26precomputed_gradients_variE"
 "_ZTIN4stan4math4variE"
 "_ZTIN4stan4math8internal11add_vv_variE"
 "_ZTIN4stan4math8internal11pow_vd_variE"
 "_ZTIN4stan4math8internal11square_variE"
 "_ZTIN4stan4math8internal13inv_sqrt_variE"
 "_ZTIN4stan4math8internal14divide_dv_variE"
 "_ZTIN4stan4math8internal15inv_square_variE"
 "_ZTIN4stan4math8internal16dot_product_variINS0_3varEdEE"
 "_ZTIN4stan4math8internal16multiply_vd_variE"
 "_ZTIN4stan4math8internal16multiply_vv_variE"
 "_ZTIN4stan4math8internal16subtract_vv_variE"
 "_ZTIN4stan4math8internal8exp_variE"
 "_ZTIN4stan4math8internal8inv_variE"
 "_ZTIN4stan4math8internal8log_variE"
 "_ZTIN4stan4math8internal8neg_variE"
 "_ZTIN4stan4math8internal9sqrt_variE"
 "_ZTIN4stan4math9op_v_variE"
 "_ZTIN4stan4mcmc11diag_e_nutsIN34model_Exponential_expert_namespace24model_Exponential_expertEN5boost6random23additive_combine_engineINS5_26linear_congruential_engineIjLj40014ELj0ELj2147483563EEENS7_IjLj40692ELj0ELj2147483399EEEEEEE"
 "_ZTIN4stan4mcmc11unit_e_nutsIN34model_Exponential_expert_namespace24model_Exponential_expertEN5boost6random23additive_combine_engineINS5_26linear_congruential_engineIjLj40014ELj0ELj2147483563EEENS7_IjLj40692ELj0ELj2147483399EEEEEEE"
 "_ZTIN4stan4mcmc12base_adapterE"
 "_ZTIN4stan4mcmc12dense_e_nutsIN34model_Exponential_expert_namespace24model_Exponential_expertEN5boost6random23additive_combine_engineINS5_26linear_congruential_engineIjLj40014ELj0ELj2147483563EEENS7_IjLj40692ELj0ELj2147483399EEEEEEE"
 "_ZTIN4stan4mcmc12diag_e_pointE"
 "_ZTIN4stan4mcmc12unit_e_pointE"
 "_ZTIN4stan4mcmc13base_leapfrogINS0_13diag_e_metricIN34model_Exponential_expert_namespace24model_Exponential_expertEN5boost6random23additive_combine_engineINS6_26linear_congruential_engineIjLj40014ELj0ELj2147483563EEENS8_IjLj40692ELj0ELj2147483399EEEEEEEEE"
 "_ZTIN4stan4mcmc13base_leapfrogINS0_13unit_e_metricIN34model_Exponential_expert_namespace24model_Exponential_expertEN5boost6random23additive_combine_engineINS6_26linear_congruential_engineIjLj40014ELj0ELj2147483563EEENS8_IjLj40692ELj0ELj2147483399EEEEEEEEE"
 "_ZTIN4stan4mcmc13base_leapfrogINS0_14dense_e_metricIN34model_Exponential_expert_namespace24model_Exponential_expertEN5boost6random23additive_combine_engineINS6_26linear_congruential_engineIjLj40014ELj0ELj2147483563EEENS8_IjLj40692ELj0ELj2147483399EEEEEEEEE"
 "_ZTIN4stan4mcmc13dense_e_pointE"
 "_ZTIN4stan4mcmc13diag_e_metricIN34model_Exponential_expert_namespace24model_Exponential_expertEN5boost6random23additive_combine_engineINS5_26linear_congruential_engineIjLj40014ELj0ELj2147483563EEENS7_IjLj40692ELj0ELj2147483399EEEEEEE"
 "_ZTIN4stan4mcmc13expl_leapfrogINS0_13diag_e_metricIN34model_Exponential_expert_namespace24model_Exponential_expertEN5boost6random23additive_combine_engineINS6_26linear_congruential_engineIjLj40014ELj0ELj2147483563EEENS8_IjLj40692ELj0ELj2147483399EEEEEEEEE"
 "_ZTIN4stan4mcmc13expl_leapfrogINS0_13unit_e_metricIN34model_Exponential_expert_namespace24model_Exponential_expertEN5boost6random23additive_combine_engineINS6_26linear_congruential_engineIjLj40014ELj0ELj2147483563EEENS8_IjLj40692ELj0ELj2147483399EEEEEEEEE"
 "_ZTIN4stan4mcmc13expl_leapfrogINS0_14dense_e_metricIN34model_Exponential_expert_namespace24model_Exponential_expertEN5boost6random23additive_combine_engineINS6_26linear_congruential_engineIjLj40014ELj0ELj2147483563EEENS8_IjLj40692ELj0ELj2147483399EEEEEEEEE"
 "_ZTIN4stan4mcmc13unit_e_metricIN34model_Exponential_expert_namespace24model_Exponential_expertEN5boost6random23additive_combine_engineINS5_26linear_congruential_engineIjLj40014ELj0ELj2147483563EEENS7_IjLj40692ELj0ELj2147483399EEEEEEE"
 "_ZTIN4stan4mcmc14dense_e_metricIN34model_Exponential_expert_namespace24model_Exponential_expertEN5boost6random23additive_combine_engineINS5_26linear_congruential_engineIjLj40014ELj0ELj2147483563EEENS7_IjLj40692ELj0ELj2147483399EEEEEEE"
 "_ZTIN4stan4mcmc14var_adaptationE"
 "_ZTIN4stan4mcmc15base_adaptationE"
 "_ZTIN4stan4mcmc15base_integratorINS0_13diag_e_metricIN34model_Exponential_expert_namespace24model_Exponential_expertEN5boost6random23additive_combine_engineINS6_26linear_congruential_engineIjLj40014ELj0ELj2147483563EEENS8_IjLj40692ELj0ELj2147483399EEEEEEEEE"
 "_ZTIN4stan4mcmc15base_integratorINS0_13unit_e_metricIN34model_Exponential_expert_namespace24model_Exponential_expertEN5boost6random23additive_combine_engineINS6_26linear_congruential_engineIjLj40014ELj0ELj2147483563EEENS8_IjLj40692ELj0ELj2147483399EEEEEEEEE"
 "_ZTIN4stan4mcmc15base_integratorINS0_14dense_e_metricIN34model_Exponential_expert_namespace24model_Exponential_expertEN5boost6random23additive_combine_engineINS6_26linear_congruential_engineIjLj40014ELj0ELj2147483563EEENS8_IjLj40692ELj0ELj2147483399EEEEEEEEE"
 "_ZTIN4stan4mcmc15base_static_hmcIN34model_Exponential_expert_namespace24model_Exponential_expertENS0_13diag_e_metricENS0_13expl_leapfrogEN5boost6random23additive_combine_engineINS7_26linear_congruential_engineIjLj40014ELj0ELj2147483563EEENS9_IjLj40692ELj0ELj2147483399EEEEEEE"
 "_ZTIN4stan4mcmc15base_static_hmcIN34model_Exponential_expert_namespace24model_Exponential_expertENS0_13unit_e_metricENS0_13expl_leapfrogEN5boost6random23additive_combine_engineINS7_26linear_congruential_engineIjLj40014ELj0ELj2147483563EEENS9_IjLj40692ELj0ELj2147483399EEEEEEE"
 "_ZTIN4stan4mcmc15base_static_hmcIN34model_Exponential_expert_namespace24model_Exponential_expertENS0_14dense_e_metricENS0_13expl_leapfrogEN5boost6random23additive_combine_engineINS7_26linear_congruential_engineIjLj40014ELj0ELj2147483563EEENS9_IjLj40692ELj0ELj2147483399EEEEEEE"
 "_ZTIN4stan4mcmc16base_hamiltonianIN34model_Exponential_expert_namespace24model_Exponential_expertENS0_12diag_e_pointEN5boost6random23additive_combine_engineINS6_26linear_congruential_engineIjLj40014ELj0ELj2147483563EEENS8_IjLj40692ELj0ELj2147483399EEEEEEE"
 "_ZTIN4stan4mcmc16base_hamiltonianIN34model_Exponential_expert_namespace24model_Exponential_expertENS0_12unit_e_pointEN5boost6random23additive_combine_engineINS6_26linear_congruential_engineIjLj40014ELj0ELj2147483563EEENS8_IjLj40692ELj0ELj2147483399EEEEEEE"
 "_ZTIN4stan4mcmc16base_hamiltonianIN34model_Exponential_expert_namespace24model_Exponential_expertENS0_13dense_e_pointEN5boost6random23additive_combine_engineINS6_26linear_congruential_engineIjLj40014ELj0ELj2147483563EEENS8_IjLj40692ELj0ELj2147483399EEEEEEE"
 "_ZTIN4stan4mcmc16covar_adaptationE"
 "_ZTIN4stan4mcmc16stepsize_adapterE"
 "_ZTIN4stan4mcmc17adapt_diag_e_nutsIN34model_Exponential_expert_namespace24model_Exponential_expertEN5boost6random23additive_combine_engineINS5_26linear_congruential_engineIjLj40014ELj0ELj2147483563EEENS7_IjLj40692ELj0ELj2147483399EEEEEEE"
 "_ZTIN4stan4mcmc17adapt_unit_e_nutsIN34model_Exponential_expert_namespace24model_Exponential_expertEN5boost6random23additive_combine_engineINS5_26linear_congruential_engineIjLj40014ELj0ELj2147483563EEENS7_IjLj40692ELj0ELj2147483399EEEEEEE"
 "_ZTIN4stan4mcmc17diag_e_static_hmcIN34model_Exponential_expert_namespace24model_Exponential_expertEN5boost6random23additive_combine_engineINS5_26linear_congruential_engineIjLj40014ELj0ELj2147483563EEENS7_IjLj40692ELj0ELj2147483399EEEEEEE"
 "_ZTIN4stan4mcmc17unit_e_static_hmcIN34model_Exponential_expert_namespace24model_Exponential_expertEN5boost6random23additive_combine_engineINS5_26linear_congruential_engineIjLj40014ELj0ELj2147483563EEENS7_IjLj40692ELj0ELj2147483399EEEEEEE"
 "_ZTIN4stan4mcmc18adapt_dense_e_nutsIN34model_Exponential_expert_namespace24model_Exponential_expertEN5boost6random23additive_combine_engineINS5_26linear_congruential_engineIjLj40014ELj0ELj2147483563EEENS7_IjLj40692ELj0ELj2147483399EEEEEEE"
 "_ZTIN4stan4mcmc18dense_e_static_hmcIN34model_Exponential_expert_namespace24model_Exponential_expertEN5boost6random23additive_combine_engineINS5_26linear_congruential_engineIjLj40014ELj0ELj2147483563EEENS7_IjLj40692ELj0ELj2147483399EEEEEEE"
 "_ZTIN4stan4mcmc19fixed_param_samplerE"
 "_ZTIN4stan4mcmc19stepsize_adaptationE"
 "_ZTIN4stan4mcmc19windowed_adaptationE"
 "_ZTIN4stan4mcmc20stepsize_var_adapterE"
 "_ZTIN4stan4mcmc22stepsize_covar_adapterE"
 "_ZTIN4stan4mcmc23adapt_diag_e_static_hmcIN34model_Exponential_expert_namespace24model_Exponential_expertEN5boost6random23additive_combine_engineINS5_26linear_congruential_engineIjLj40014ELj0ELj2147483563EEENS7_IjLj40692ELj0ELj2147483399EEEEEEE"
 "_ZTIN4stan4mcmc23adapt_unit_e_static_hmcIN34model_Exponential_expert_namespace24model_Exponential_expertEN5boost6random23additive_combine_engineINS5_26linear_congruential_engineIjLj40014ELj0ELj2147483563EEENS7_IjLj40692ELj0ELj2147483399EEEEEEE"
 "_ZTIN4stan4mcmc24adapt_dense_e_static_hmcIN34model_Exponential_expert_namespace24model_Exponential_expertEN5boost6random23additive_combine_engineINS5_26linear_congruential_engineIjLj40014ELj0ELj2147483563EEENS7_IjLj40692ELj0ELj2147483399EEEEEEE"
 "_ZTIN4stan4mcmc6sampleE"
 "_ZTIN4stan4mcmc8base_hmcIN34model_Exponential_expert_namespace24model_Exponential_expertENS0_13diag_e_metricENS0_13expl_leapfrogEN5boost6random23additive_combine_engineINS7_26linear_congruential_engineIjLj40014ELj0ELj2147483563EEENS9_IjLj40692ELj0ELj2147483399EEEEEEE"
 "_ZTIN4stan4mcmc8base_hmcIN34model_Exponential_expert_namespace24model_Exponential_expertENS0_13unit_e_metricENS0_13expl_leapfrogEN5boost6random23additive_combine_engineINS7_26linear_congruential_engineIjLj40014ELj0ELj2147483563EEENS9_IjLj40692ELj0ELj2147483399EEEEEEE"
 "_ZTIN4stan4mcmc8base_hmcIN34model_Exponential_expert_namespace24model_Exponential_expertENS0_14dense_e_metricENS0_13expl_leapfrogEN5boost6random23additive_combine_engineINS7_26linear_congruential_engineIjLj40014ELj0ELj2147483563EEENS9_IjLj40692ELj0ELj2147483399EEEEEEE"
 "_ZTIN4stan4mcmc8ps_pointE"
 "_ZTIN4stan4mcmc9base_mcmcE"
 "_ZTIN4stan4mcmc9base_nutsIN34model_Exponential_expert_namespace24model_Exponential_expertENS0_13diag_e_metricENS0_13expl_leapfrogEN5boost6random23additive_combine_engineINS7_26linear_congruential_engineIjLj40014ELj0ELj2147483563EEENS9_IjLj40692ELj0ELj2147483399EEEEEEE"
 "_ZTIN4stan4mcmc9base_nutsIN34model_Exponential_expert_namespace24model_Exponential_expertENS0_13unit_e_metricENS0_13expl_leapfrogEN5boost6random23additive_combine_engineINS7_26linear_congruential_engineIjLj40014ELj0ELj2147483563EEENS9_IjLj40692ELj0ELj2147483399EEEEEEE"
 "_ZTIN4stan4mcmc9base_nutsIN34model_Exponential_expert_namespace24model_Exponential_expertENS0_14dense_e_metricENS0_13expl_leapfrogEN5boost6random23additive_combine_engineINS7_26linear_congruential_engineIjLj40014ELj0ELj2147483563EEENS9_IjLj40692ELj0ELj2147483399EEEEEEE"
 "_ZTIN4stan5model10model_baseE"
 "_ZTIN4stan5model15model_base_crtpIN34model_Exponential_expert_namespace24model_Exponential_expertEEE"
 "_ZTIN4stan5model9prob_gradE"
 "_ZTIN4stan9callbacks13stream_loggerE"
 "_ZTIN4stan9callbacks13stream_writerE"
 "_ZTIN4stan9callbacks27stream_logger_with_chain_idE"
 "_ZTIN4stan9callbacks6loggerE"
 "_ZTIN4stan9callbacks6writerE"
 "_ZTIN4stan9callbacks9interruptE"
 "_ZTIN5boost10error_infoINS_27tag_original_exception_typeEPKSt9type_infoEE"
 "_ZTIN5boost10wrapexceptINS_16bad_lexical_castEEE"
 "_ZTIN5boost10wrapexceptINS_4math14rounding_errorEEE"
 "_ZTIN5boost10wrapexceptINS_4math16evaluation_errorEEE"
 "_ZTIN5boost10wrapexceptISt11logic_errorEE"
 "_ZTIN5boost10wrapexceptISt12domain_errorEE"
 "_ZTIN5boost10wrapexceptISt12length_errorEE"
 "_ZTIN5boost10wrapexceptISt14overflow_errorEE"
 "_ZTIN5boost10wrapexceptISt16invalid_argumentEE"
 "_ZTIN5boost16bad_lexical_castE"
 "_ZTIN5boost16exception_detail10bad_alloc_E"
 "_ZTIN5boost16exception_detail10clone_baseE"
 "_ZTIN5boost16exception_detail10clone_implINS0_10bad_alloc_EEE"
 "_ZTIN5boost16exception_detail10clone_implINS0_14bad_exception_EEE"
 "_ZTIN5boost16exception_detail14bad_exception_E"
 "_ZTIN5boost16exception_detail15error_info_baseE"
 "_ZTIN5boost16exception_detail20error_info_containerE"
 "_ZTIN5boost16exception_detail25error_info_container_implE"
 "_ZTIN5boost4math14rounding_errorE"
 "_ZTIN5boost4math16evaluation_errorE"
 "_ZTIN5boost6detail15sp_counted_baseE"
 "_ZTIN5boost6detail16basic_pointerbufIcSt15basic_streambufIcSt11char_traitsIcEEEE"
 "_ZTIN5boost6detail17basic_unlockedbufISt15basic_streambufIcSt11char_traitsIcEEcEE"
 "_ZTIN5boost6detail17sp_counted_impl_pINS_16exception_detail10clone_implINS2_10bad_alloc_EEEEE"
 "_ZTIN5boost6detail17sp_counted_impl_pINS_16exception_detail10clone_implINS2_14bad_exception_EEEEE"
 "_ZTIN5boost6detail17sp_counted_impl_pINS_16exception_detail15error_info_baseEEE"
 "_ZTIN5boost9exceptionE"
 "_ZTIN5rstan10sum_valuesE"
 "_ZTIN5rstan14comment_writerE"
 "_ZTIN5rstan15filtered_valuesIN4Rcpp6VectorILi14ENS1_15PreserveStorageEEEEE"
 "_ZTIN5rstan19rstan_sample_writerE"
 "_ZTIN5rstan2io16r_cerr_streambufE"
 "_ZTIN5rstan2io16r_cout_streambufE"
 "_ZTIN5rstan2io21rlist_ref_var_contextE"
 "_ZTIN5rstan2io9r_ostreamINS0_16r_cerr_streambufEEE"
 "_ZTIN5rstan2io9r_ostreamINS0_16r_cout_streambufEEE"
 "_ZTIN5rstan5valueE"
 "_ZTIN5rstan6valuesIN4Rcpp6VectorILi14ENS1_15PreserveStorageEEEEE"
 "_ZTINSt7__cxx1112basic_stringIcSt11char_traitsIcESaIcEEE"
 "_ZTINSt8ios_base7failureB5cxx11E"
 "_ZTISt10bad_typeid"
 "_ZTISt11logic_error"
 "_ZTISt11range_error"
 "_ZTISt12domain_error"
 "_ZTISt12length_error"
 "_ZTISt12out_of_range"
 "_ZTISt12system_error"
 "_ZTISt13bad_exception"
 "_ZTISt13runtime_error"
 "_ZTISt14overflow_error"
 "_ZTISt15underflow_error"
 "_ZTISt16invalid_argument"
 "_ZTISt8bad_cast"
 "_ZTISt9bad_alloc"
 "_ZTISt9exception"
 "_ZTSN34model_Exponential_expert_namespace24model_Exponential_expertE"
 "_ZTSN3tbb10interface623task_scheduler_observerE"
 "_ZTSN3tbb8internal26task_scheduler_observer_v3E"
 "_ZTSN4Rcpp10CppMethod0IN5rstan8stan_fitIN34model_Exponential_expert_namespace24model_Exponential_expertEN5boost6random23additive_combine_engineINS6_26linear_congruential_engineIjLj40014ELj0ELj2147483563EEENS8_IjLj40692ELj0ELj2147483399EEEEEEEP7SEXPRECEE"
 "_ZTSN4Rcpp10CppMethod1IN5rstan8stan_fitIN34model_Exponential_expert_namespace24model_Exponential_expertEN5boost6random23additive_combine_engineINS6_26linear_congruential_engineIjLj40014ELj0ELj2147483563EEENS8_IjLj40692ELj0ELj2147483399EEEEEEEP7SEXPRECSE_EE"
 "_ZTSN4Rcpp10CppMethod2IN5rstan8stan_fitIN34model_Exponential_expert_namespace24model_Exponential_expertEN5boost6random23additive_combine_engineINS6_26linear_congruential_engineIjLj40014ELj0ELj2147483563EEENS8_IjLj40692ELj0ELj2147483399EEEEEEEP7SEXPRECSE_SE_EE"
 "_ZTSN4Rcpp10CppMethod3IN5rstan8stan_fitIN34model_Exponential_expert_namespace24model_Exponential_expertEN5boost6random23additive_combine_engineINS6_26linear_congruential_engineIjLj40014ELj0ELj2147483563EEENS8_IjLj40692ELj0ELj2147483399EEEEEEEP7SEXPRECSE_SE_SE_EE"
 "_ZTSN4Rcpp10RstreambufILb0EEE"
 "_ZTSN4Rcpp10RstreambufILb1EEE"
 "_ZTSN4Rcpp10class_BaseE"
 "_ZTSN4Rcpp10eval_errorE"
 "_ZTSN4Rcpp11CppPropertyIN5rstan8stan_fitIN34model_Exponential_expert_namespace24model_Exponential_expertEN5boost6random23additive_combine_engineINS6_26linear_congruential_engineIjLj40014ELj0ELj2147483563EEENS8_IjLj40692ELj0ELj2147483399EEEEEEEEE"
 "_ZTSN4Rcpp12CppFinalizerIN5rstan8stan_fitIN34model_Exponential_expert_namespace24model_Exponential_expertEN5boost6random23additive_combine_engineINS6_26linear_congruential_engineIjLj40014ELj0ELj2147483563EEENS8_IjLj40692ELj0ELj2147483399EEEEEEEEE"
 "_ZTSN4Rcpp13Constructor_3IN5rstan8stan_fitIN34model_Exponential_expert_namespace24model_Exponential_expertEN5boost6random23additive_combine_engineINS6_26linear_congruential_engineIjLj40014ELj0ELj2147483563EEENS8_IjLj40692ELj0ELj2147483399EEEEEEEP7SEXPRECSE_SE_EE"
 "_ZTSN4Rcpp13not_referenceE"
 "_ZTSN4Rcpp14not_compatibleE"
 "_ZTSN4Rcpp16Constructor_BaseIN5rstan8stan_fitIN34model_Exponential_expert_namespace24model_Exponential_expertEN5boost6random23additive_combine_engineINS6_26linear_congruential_engineIjLj40014ELj0ELj2147483563EEENS8_IjLj40692ELj0ELj2147483399EEEEEEEEE"
 "_ZTSN4Rcpp16const_CppMethod0IN5rstan8stan_fitIN34model_Exponential_expert_namespace24model_Exponential_expertEN5boost6random23additive_combine_engineINS6_26linear_congruential_engineIjLj40014ELj0ELj2147483563EEENS8_IjLj40692ELj0ELj2147483399EEEEEEEP7SEXPRECEE"
 "_ZTSN4Rcpp17LongjumpExceptionE"
 "_ZTSN4Rcpp19index_out_of_boundsE"
 "_ZTSN4Rcpp6class_IN5rstan8stan_fitIN34model_Exponential_expert_namespace24model_Exponential_expertEN5boost6random23additive_combine_engineINS6_26linear_congruential_engineIjLj40014ELj0ELj2147483563EEENS8_IjLj40692ELj0ELj2147483399EEEEEEEEE"
 "_ZTSN4Rcpp8RostreamILb0EEE"
 "_ZTSN4Rcpp8RostreamILb1EEE"
 "_ZTSN4Rcpp8internal20InterruptedExceptionE"
 "_ZTSN4Rcpp9CppMethodIN5rstan8stan_fitIN34model_Exponential_expert_namespace24model_Exponential_expertEN5boost6random23additive_combine_engineINS6_26linear_congruential_engineIjLj40014ELj0ELj2147483563EEENS8_IjLj40692ELj0ELj2147483399EEEEEEEEE"
 "_ZTSN4Rcpp9exceptionE"
 "_ZTSN4stan11variational11base_familyE"
 "_ZTSN4stan11variational15normal_fullrankE"
 "_ZTSN4stan11variational16normal_meanfieldE"
 "_ZTSN4stan2io11var_contextE"
 "_ZTSN4stan2io17array_var_contextE"
 "_ZTSN4stan2io17empty_var_contextE"
 "_ZTSN4stan2io18random_var_contextE"
 "_ZTSN4stan2io19chained_var_contextE"
 "_ZTSN4stan2io4dumpE"
 "_ZTSN4stan4lang17located_exceptionISt10bad_typeidEE"
 "_ZTSN4stan4lang17located_exceptionISt13bad_exceptionEE"
 "_ZTSN4stan4lang17located_exceptionISt8bad_castEE"
 "_ZTSN4stan4lang17located_exceptionISt9bad_allocEE"
 "_ZTSN4stan4lang17located_exceptionISt9exceptionEE"
 "_ZTSN4stan4math10op_dv_variE"
 "_ZTSN4stan4math10op_vd_variE"
 "_ZTSN4stan4math10op_vv_variE"
 "_ZTSN4stan4math10sum_v_variE"
 "_ZTSN4stan4math16ad_tape_observerE"
 "_ZTSN4stan4math17multiply_mat_variIdLin1ELin1ENS0_3varELi1EEE"
 "_ZTSN4stan4math26precomputed_gradients_variE"
 "_ZTSN4stan4math4variE"
 "_ZTSN4stan4math8internal11add_vv_variE"
 "_ZTSN4stan4math8internal11pow_vd_variE"
 "_ZTSN4stan4math8internal11square_variE"
 "_ZTSN4stan4math8internal13inv_sqrt_variE"
 "_ZTSN4stan4math8internal14divide_dv_variE"
 "_ZTSN4stan4math8internal15inv_square_variE"
 "_ZTSN4stan4math8internal16dot_product_variINS0_3varEdEE"
 "_ZTSN4stan4math8internal16multiply_vd_variE"
 "_ZTSN4stan4math8internal16multiply_vv_variE"
 "_ZTSN4stan4math8internal16subtract_vv_variE"
 "_ZTSN4stan4math8internal8exp_variE"
 "_ZTSN4stan4math8internal8inv_variE"
 "_ZTSN4stan4math8internal8log_variE"
 "_ZTSN4stan4math8internal8neg_variE"
 "_ZTSN4stan4math8internal9sqrt_variE"
 "_ZTSN4stan4math9op_v_variE"
 "_ZTSN4stan4mcmc11diag_e_nutsIN34model_Exponential_expert_namespace24model_Exponential_expertEN5boost6random23additive_combine_engineINS5_26linear_congruential_engineIjLj40014ELj0ELj2147483563EEENS7_IjLj40692ELj0ELj2147483399EEEEEEE"
 "_ZTSN4stan4mcmc11unit_e_nutsIN34model_Exponential_expert_namespace24model_Exponential_expertEN5boost6random23additive_combine_engineINS5_26linear_congruential_engineIjLj40014ELj0ELj2147483563EEENS7_IjLj40692ELj0ELj2147483399EEEEEEE"
 "_ZTSN4stan4mcmc12base_adapterE"
 "_ZTSN4stan4mcmc12dense_e_nutsIN34model_Exponential_expert_namespace24model_Exponential_expertEN5boost6random23additive_combine_engineINS5_26linear_congruential_engineIjLj40014ELj0ELj2147483563EEENS7_IjLj40692ELj0ELj2147483399EEEEEEE"
 "_ZTSN4stan4mcmc12diag_e_pointE"
 "_ZTSN4stan4mcmc12unit_e_pointE"
 "_ZTSN4stan4mcmc13base_leapfrogINS0_13diag_e_metricIN34model_Exponential_expert_namespace24model_Exponential_expertEN5boost6random23additive_combine_engineINS6_26linear_congruential_engineIjLj40014ELj0ELj2147483563EEENS8_IjLj40692ELj0ELj2147483399EEEEEEEEE"
 "_ZTSN4stan4mcmc13base_leapfrogINS0_13unit_e_metricIN34model_Exponential_expert_namespace24model_Exponential_expertEN5boost6random23additive_combine_engineINS6_26linear_congruential_engineIjLj40014ELj0ELj2147483563EEENS8_IjLj40692ELj0ELj2147483399EEEEEEEEE"
 "_ZTSN4stan4mcmc13base_leapfrogINS0_14dense_e_metricIN34model_Exponential_expert_namespace24model_Exponential_expertEN5boost6random23additive_combine_engineINS6_26linear_congruential_engineIjLj40014ELj0ELj2147483563EEENS8_IjLj40692ELj0ELj2147483399EEEEEEEEE"
 "_ZTSN4stan4mcmc13dense_e_pointE"
 "_ZTSN4stan4mcmc13diag_e_metricIN34model_Exponential_expert_namespace24model_Exponential_expertEN5boost6random23additive_combine_engineINS5_26linear_congruential_engineIjLj40014ELj0ELj2147483563EEENS7_IjLj40692ELj0ELj2147483399EEEEEEE"
 "_ZTSN4stan4mcmc13expl_leapfrogINS0_13diag_e_metricIN34model_Exponential_expert_namespace24model_Exponential_expertEN5boost6random23additive_combine_engineINS6_26linear_congruential_engineIjLj40014ELj0ELj2147483563EEENS8_IjLj40692ELj0ELj2147483399EEEEEEEEE"
 "_ZTSN4stan4mcmc13expl_leapfrogINS0_13unit_e_metricIN34model_Exponential_expert_namespace24model_Exponential_expertEN5boost6random23additive_combine_engineINS6_26linear_congruential_engineIjLj40014ELj0ELj2147483563EEENS8_IjLj40692ELj0ELj2147483399EEEEEEEEE"
 "_ZTSN4stan4mcmc13expl_leapfrogINS0_14dense_e_metricIN34model_Exponential_expert_namespace24model_Exponential_expertEN5boost6random23additive_combine_engineINS6_26linear_congruential_engineIjLj40014ELj0ELj2147483563EEENS8_IjLj40692ELj0ELj2147483399EEEEEEEEE"
 "_ZTSN4stan4mcmc13unit_e_metricIN34model_Exponential_expert_namespace24model_Exponential_expertEN5boost6random23additive_combine_engineINS5_26linear_congruential_engineIjLj40014ELj0ELj2147483563EEENS7_IjLj40692ELj0ELj2147483399EEEEEEE"
 "_ZTSN4stan4mcmc14dense_e_metricIN34model_Exponential_expert_namespace24model_Exponential_expertEN5boost6random23additive_combine_engineINS5_26linear_congruential_engineIjLj40014ELj0ELj2147483563EEENS7_IjLj40692ELj0ELj2147483399EEEEEEE"
 "_ZTSN4stan4mcmc14var_adaptationE"
 "_ZTSN4stan4mcmc15base_adaptationE"
 "_ZTSN4stan4mcmc15base_integratorINS0_13diag_e_metricIN34model_Exponential_expert_namespace24model_Exponential_expertEN5boost6random23additive_combine_engineINS6_26linear_congruential_engineIjLj40014ELj0ELj2147483563EEENS8_IjLj40692ELj0ELj2147483399EEEEEEEEE"
 "_ZTSN4stan4mcmc15base_integratorINS0_13unit_e_metricIN34model_Exponential_expert_namespace24model_Exponential_expertEN5boost6random23additive_combine_engineINS6_26linear_congruential_engineIjLj40014ELj0ELj2147483563EEENS8_IjLj40692ELj0ELj2147483399EEEEEEEEE"
 "_ZTSN4stan4mcmc15base_integratorINS0_14dense_e_metricIN34model_Exponential_expert_namespace24model_Exponential_expertEN5boost6random23additive_combine_engineINS6_26linear_congruential_engineIjLj40014ELj0ELj2147483563EEENS8_IjLj40692ELj0ELj2147483399EEEEEEEEE"
 "_ZTSN4stan4mcmc15base_static_hmcIN34model_Exponential_expert_namespace24model_Exponential_expertENS0_13diag_e_metricENS0_13expl_leapfrogEN5boost6random23additive_combine_engineINS7_26linear_congruential_engineIjLj40014ELj0ELj2147483563EEENS9_IjLj40692ELj0ELj2147483399EEEEEEE"
 "_ZTSN4stan4mcmc15base_static_hmcIN34model_Exponential_expert_namespace24model_Exponential_expertENS0_13unit_e_metricENS0_13expl_leapfrogEN5boost6random23additive_combine_engineINS7_26linear_congruential_engineIjLj40014ELj0ELj2147483563EEENS9_IjLj40692ELj0ELj2147483399EEEEEEE"
 "_ZTSN4stan4mcmc15base_static_hmcIN34model_Exponential_expert_namespace24model_Exponential_expertENS0_14dense_e_metricENS0_13expl_leapfrogEN5boost6random23additive_combine_engineINS7_26linear_congruential_engineIjLj40014ELj0ELj2147483563EEENS9_IjLj40692ELj0ELj2147483399EEEEEEE"
 "_ZTSN4stan4mcmc16base_hamiltonianIN34model_Exponential_expert_namespace24model_Exponential_expertENS0_12diag_e_pointEN5boost6random23additive_combine_engineINS6_26linear_congruential_engineIjLj40014ELj0ELj2147483563EEENS8_IjLj40692ELj0ELj2147483399EEEEEEE"
 "_ZTSN4stan4mcmc16base_hamiltonianIN34model_Exponential_expert_namespace24model_Exponential_expertENS0_12unit_e_pointEN5boost6random23additive_combine_engineINS6_26linear_congruential_engineIjLj40014ELj0ELj2147483563EEENS8_IjLj40692ELj0ELj2147483399EEEEEEE"
 "_ZTSN4stan4mcmc16base_hamiltonianIN34model_Exponential_expert_namespace24model_Exponential_expertENS0_13dense_e_pointEN5boost6random23additive_combine_engineINS6_26linear_congruential_engineIjLj40014ELj0ELj2147483563EEENS8_IjLj40692ELj0ELj2147483399EEEEEEE"
 "_ZTSN4stan4mcmc16covar_adaptationE"
 "_ZTSN4stan4mcmc16stepsize_adapterE"
 "_ZTSN4stan4mcmc17adapt_diag_e_nutsIN34model_Exponential_expert_namespace24model_Exponential_expertEN5boost6random23additive_combine_engineINS5_26linear_congruential_engineIjLj40014ELj0ELj2147483563EEENS7_IjLj40692ELj0ELj2147483399EEEEEEE"
 "_ZTSN4stan4mcmc17adapt_unit_e_nutsIN34model_Exponential_expert_namespace24model_Exponential_expertEN5boost6random23additive_combine_engineINS5_26linear_congruential_engineIjLj40014ELj0ELj2147483563EEENS7_IjLj40692ELj0ELj2147483399EEEEEEE"
 "_ZTSN4stan4mcmc17diag_e_static_hmcIN34model_Exponential_expert_namespace24model_Exponential_expertEN5boost6random23additive_combine_engineINS5_26linear_congruential_engineIjLj40014ELj0ELj2147483563EEENS7_IjLj40692ELj0ELj2147483399EEEEEEE"
 "_ZTSN4stan4mcmc17unit_e_static_hmcIN34model_Exponential_expert_namespace24model_Exponential_expertEN5boost6random23additive_combine_engineINS5_26linear_congruential_engineIjLj40014ELj0ELj2147483563EEENS7_IjLj40692ELj0ELj2147483399EEEEEEE"
 "_ZTSN4stan4mcmc18adapt_dense_e_nutsIN34model_Exponential_expert_namespace24model_Exponential_expertEN5boost6random23additive_combine_engineINS5_26linear_congruential_engineIjLj40014ELj0ELj2147483563EEENS7_IjLj40692ELj0ELj2147483399EEEEEEE"
 "_ZTSN4stan4mcmc18dense_e_static_hmcIN34model_Exponential_expert_namespace24model_Exponential_expertEN5boost6random23additive_combine_engineINS5_26linear_congruential_engineIjLj40014ELj0ELj2147483563EEENS7_IjLj40692ELj0ELj2147483399EEEEEEE"
 "_ZTSN4stan4mcmc19fixed_param_samplerE"
 "_ZTSN4stan4mcmc19stepsize_adaptationE"
 "_ZTSN4stan4mcmc19windowed_adaptationE"
 "_ZTSN4stan4mcmc20stepsize_var_adapterE"
 "_ZTSN4stan4mcmc22stepsize_covar_adapterE"
 "_ZTSN4stan4mcmc23adapt_diag_e_static_hmcIN34model_Exponential_expert_namespace24model_Exponential_expertEN5boost6random23additive_combine_engineINS5_26linear_congruential_engineIjLj40014ELj0ELj2147483563EEENS7_IjLj40692ELj0ELj2147483399EEEEEEE"
 "_ZTSN4stan4mcmc23adapt_unit_e_static_hmcIN34model_Exponential_expert_namespace24model_Exponential_expertEN5boost6random23additive_combine_engineINS5_26linear_congruential_engineIjLj40014ELj0ELj2147483563EEENS7_IjLj40692ELj0ELj2147483399EEEEEEE"
 "_ZTSN4stan4mcmc24adapt_dense_e_static_hmcIN34model_Exponential_expert_namespace24model_Exponential_expertEN5boost6random23additive_combine_engineINS5_26linear_congruential_engineIjLj40014ELj0ELj2147483563EEENS7_IjLj40692ELj0ELj2147483399EEEEEEE"
 "_ZTSN4stan4mcmc6sampleE"
 "_ZTSN4stan4mcmc8base_hmcIN34model_Exponential_expert_namespace24model_Exponential_expertENS0_13diag_e_metricENS0_13expl_leapfrogEN5boost6random23additive_combine_engineINS7_26linear_congruential_engineIjLj40014ELj0ELj2147483563EEENS9_IjLj40692ELj0ELj2147483399EEEEEEE"
 "_ZTSN4stan4mcmc8base_hmcIN34model_Exponential_expert_namespace24model_Exponential_expertENS0_13unit_e_metricENS0_13expl_leapfrogEN5boost6random23additive_combine_engineINS7_26linear_congruential_engineIjLj40014ELj0ELj2147483563EEENS9_IjLj40692ELj0ELj2147483399EEEEEEE"
 "_ZTSN4stan4mcmc8base_hmcIN34model_Exponential_expert_namespace24model_Exponential_expertENS0_14dense_e_metricENS0_13expl_leapfrogEN5boost6random23additive_combine_engineINS7_26linear_congruential_engineIjLj40014ELj0ELj2147483563EEENS9_IjLj40692ELj0ELj2147483399EEEEEEE"
 "_ZTSN4stan4mcmc8ps_pointE"
 "_ZTSN4stan4mcmc9base_mcmcE"
 "_ZTSN4stan4mcmc9base_nutsIN34model_Exponential_expert_namespace24model_Exponential_expertENS0_13diag_e_metricENS0_13expl_leapfrogEN5boost6random23additive_combine_engineINS7_26linear_congruential_engineIjLj40014ELj0ELj2147483563EEENS9_IjLj40692ELj0ELj2147483399EEEEEEE"
 "_ZTSN4stan4mcmc9base_nutsIN34model_Exponential_expert_namespace24model_Exponential_expertENS0_13unit_e_metricENS0_13expl_leapfrogEN5boost6random23additive_combine_engineINS7_26linear_congruential_engineIjLj40014ELj0ELj2147483563EEENS9_IjLj40692ELj0ELj2147483399EEEEEEE"
 "_ZTSN4stan4mcmc9base_nutsIN34model_Exponential_expert_namespace24model_Exponential_expertENS0_14dense_e_metricENS0_13expl_leapfrogEN5boost6random23additive_combine_engineINS7_26linear_congruential_engineIjLj40014ELj0ELj2147483563EEENS9_IjLj40692ELj0ELj2147483399EEEEEEE"
 "_ZTSN4stan5model10model_baseE"
 "_ZTSN4stan5model15model_base_crtpIN34model_Exponential_expert_namespace24model_Exponential_expertEEE"
 "_ZTSN4stan5model9prob_gradE"
 "_ZTSN4stan9callbacks13stream_loggerE"
 "_ZTSN4stan9callbacks13stream_writerE"
 "_ZTSN4stan9callbacks27stream_logger_with_chain_idE"
 "_ZTSN4stan9callbacks6loggerE"
 "_ZTSN4stan9callbacks6writerE"
 "_ZTSN4stan9callbacks9interruptE"
 "_ZTSN5boost10error_infoINS_27tag_original_exception_typeEPKSt9type_infoEE"
 "_ZTSN5boost10wrapexceptINS_16bad_lexical_castEEE"
 "_ZTSN5boost10wrapexceptINS_4math14rounding_errorEEE"
 "_ZTSN5boost10wrapexceptINS_4math16evaluation_errorEEE"
 "_ZTSN5boost10wrapexceptISt11logic_errorEE"
 "_ZTSN5boost10wrapexceptISt12domain_errorEE"
 "_ZTSN5boost10wrapexceptISt12length_errorEE"
 "_ZTSN5boost10wrapexceptISt14overflow_errorEE"
 "_ZTSN5boost10wrapexceptISt16invalid_argumentEE"
 "_ZTSN5boost16bad_lexical_castE"
 "_ZTSN5boost16exception_detail10bad_alloc_E"
 "_ZTSN5boost16exception_detail10clone_baseE"
 "_ZTSN5boost16exception_detail10clone_implINS0_10bad_alloc_EEE"
 "_ZTSN5boost16exception_detail10clone_implINS0_14bad_exception_EEE"
 "_ZTSN5boost16exception_detail14bad_exception_E"
 "_ZTSN5boost16exception_detail15error_info_baseE"
 "_ZTSN5boost16exception_detail20error_info_containerE"
 "_ZTSN5boost16exception_detail25error_info_container_implE"
 "_ZTSN5boost4math14rounding_errorE"
 "_ZTSN5boost4math16evaluation_errorE"
 "_ZTSN5boost6detail15sp_counted_baseE"
 "_ZTSN5boost6detail16basic_pointerbufIcSt15basic_streambufIcSt11char_traitsIcEEEE"
 "_ZTSN5boost6detail17basic_unlockedbufISt15basic_streambufIcSt11char_traitsIcEEcEE"
 "_ZTSN5boost6detail17sp_counted_impl_pINS_16exception_detail10clone_implINS2_10bad_alloc_EEEEE"
 "_ZTSN5boost6detail17sp_counted_impl_pINS_16exception_detail10clone_implINS2_14bad_exception_EEEEE"
 "_ZTSN5boost6detail17sp_counted_impl_pINS_16exception_detail15error_info_baseEEE"
 "_ZTSN5boost9exceptionE"
 "_ZTSN5rstan10sum_valuesE"
 "_ZTSN5rstan14comment_writerE"
 "_ZTSN5rstan15filtered_valuesIN4Rcpp6VectorILi14ENS1_15PreserveStorageEEEEE"
 "_ZTSN5rstan19rstan_sample_writerE"
 "_ZTSN5rstan2io16r_cerr_streambufE"
 "_ZTSN5rstan2io16r_cout_streambufE"
 "_ZTSN5rstan2io21rlist_ref_var_contextE"
 "_ZTSN5rstan2io9r_ostreamINS0_16r_cerr_streambufEEE"
 "_ZTSN5rstan2io9r_ostreamINS0_16r_cout_streambufEEE"
 "_ZTSN5rstan5valueE"
 "_ZTSN5rstan6valuesIN4Rcpp6VectorILi14ENS1_15PreserveStorageEEEEE"
 "_ZTSN5rstan8stan_fitIN34model_Exponential_expert_namespace24model_Exponential_expertEN5boost6random23additive_combine_engineINS4_26linear_congruential_engineIjLj40014ELj0ELj2147483563EEENS6_IjLj40692ELj0ELj2147483399EEEEEEE"
 "_ZTSNSt7__cxx1112basic_stringIcSt11char_traitsIcESaIcEEE"
 "_ZTSNSt8ios_base7failureB5cxx11E"
 "_ZTSSt10bad_typeid"
 "_ZTSSt11logic_error"
 "_ZTSSt11range_error"
 "_ZTSSt12domain_error"
 "_ZTSSt12length_error"
 "_ZTSSt12out_of_range"
 "_ZTSSt12system_error"
 "_ZTSSt13bad_exception"
 "_ZTSSt13runtime_error"
 "_ZTSSt14overflow_error"
 "_ZTSSt15underflow_error"
 "_ZTSSt16invalid_argument"
 "_ZTSSt8bad_cast"
 "_ZTSSt9bad_alloc"
 "_ZTSSt9exception"
 "_ZTTN4Rcpp8RostreamILb0EEE"
 "_ZTTN4Rcpp8RostreamILb1EEE"
 "_ZTTN5boost16exception_detail10clone_implINS0_10bad_alloc_EEE"
 "_ZTTN5boost16exception_detail10clone_implINS0_14bad_exception_EEE"
 "_ZTTN5rstan2io9r_ostreamINS0_16r_cerr_streambufEEE"
 "_ZTTN5rstan2io9r_ostreamINS0_16r_cout_streambufEEE"
 "_ZTVN34model_Exponential_expert_namespace24model_Exponential_expertE"
 "_ZTVN3tbb10interface623task_scheduler_observerE"
 "_ZTVN3tbb8internal26task_scheduler_observer_v3E"
 "_ZTVN4Rcpp10CppMethod0IN5rstan8stan_fitIN34model_Exponential_expert_namespace24model_Exponential_expertEN5boost6random23additive_combine_engineINS6_26linear_congruential_engineIjLj40014ELj0ELj2147483563EEENS8_IjLj40692ELj0ELj2147483399EEEEEEEP7SEXPRECEE"
 "_ZTVN4Rcpp10CppMethod1IN5rstan8stan_fitIN34model_Exponential_expert_namespace24model_Exponential_expertEN5boost6random23additive_combine_engineINS6_26linear_congruential_engineIjLj40014ELj0ELj2147483563EEENS8_IjLj40692ELj0ELj2147483399EEEEEEEP7SEXPRECSE_EE"
 "_ZTVN4Rcpp10CppMethod2IN5rstan8stan_fitIN34model_Exponential_expert_namespace24model_Exponential_expertEN5boost6random23additive_combine_engineINS6_26linear_congruential_engineIjLj40014ELj0ELj2147483563EEENS8_IjLj40692ELj0ELj2147483399EEEEEEEP7SEXPRECSE_SE_EE"
 "_ZTVN4Rcpp10CppMethod3IN5rstan8stan_fitIN34model_Exponential_expert_namespace24model_Exponential_expertEN5boost6random23additive_combine_engineINS6_26linear_congruential_engineIjLj40014ELj0ELj2147483563EEENS8_IjLj40692ELj0ELj2147483399EEEEEEEP7SEXPRECSE_SE_SE_EE"
 "_ZTVN4Rcpp10RstreambufILb0EEE"
 "_ZTVN4Rcpp10RstreambufILb1EEE"
 "_ZTVN4Rcpp10class_BaseE"
 "_ZTVN4Rcpp10eval_errorE"
 "_ZTVN4Rcpp11CppPropertyIN5rstan8stan_fitIN34model_Exponential_expert_namespace24model_Exponential_expertEN5boost6random23additive_combine_engineINS6_26linear_congruential_engineIjLj40014ELj0ELj2147483563EEENS8_IjLj40692ELj0ELj2147483399EEEEEEEEE"
 "_ZTVN4Rcpp12CppFinalizerIN5rstan8stan_fitIN34model_Exponential_expert_namespace24model_Exponential_expertEN5boost6random23additive_combine_engineINS6_26linear_congruential_engineIjLj40014ELj0ELj2147483563EEENS8_IjLj40692ELj0ELj2147483399EEEEEEEEE"
 "_ZTVN4Rcpp13Constructor_3IN5rstan8stan_fitIN34model_Exponential_expert_namespace24model_Exponential_expertEN5boost6random23additive_combine_engineINS6_26linear_congruential_engineIjLj40014ELj0ELj2147483563EEENS8_IjLj40692ELj0ELj2147483399EEEEEEEP7SEXPRECSE_SE_EE"
 "_ZTVN4Rcpp13not_referenceE"
 "_ZTVN4Rcpp14not_compatibleE"
 "_ZTVN4Rcpp16const_CppMethod0IN5rstan8stan_fitIN34model_Exponential_expert_namespace24model_Exponential_expertEN5boost6random23additive_combine_engineINS6_26linear_congruential_engineIjLj40014ELj0ELj2147483563EEENS8_IjLj40692ELj0ELj2147483399EEEEEEEP7SEXPRECEE"
 "_ZTVN4Rcpp19index_out_of_boundsE"
 "_ZTVN4Rcpp6class_IN5rstan8stan_fitIN34model_Exponential_expert_namespace24model_Exponential_expertEN5boost6random23additive_combine_engineINS6_26linear_congruential_engineIjLj40014ELj0ELj2147483563EEENS8_IjLj40692ELj0ELj2147483399EEEEEEEEE"
 "_ZTVN4Rcpp8RostreamILb0EEE"
 "_ZTVN4Rcpp8RostreamILb1EEE"
 "_ZTVN4Rcpp9exceptionE"
 "_ZTVN4stan11variational15normal_fullrankE"
 "_ZTVN4stan11variational16normal_meanfieldE"
 "_ZTVN4stan2io17array_var_contextE"
 "_ZTVN4stan2io17empty_var_contextE"
 "_ZTVN4stan2io18random_var_contextE"
 "_ZTVN4stan2io19chained_var_contextE"
 "_ZTVN4stan2io4dumpE"
 "_ZTVN4stan4lang17located_exceptionISt10bad_typeidEE"
 "_ZTVN4stan4lang17located_exceptionISt13bad_exceptionEE"
 "_ZTVN4stan4lang17located_exceptionISt8bad_castEE"
 "_ZTVN4stan4lang17located_exceptionISt9bad_allocEE"
 "_ZTVN4stan4lang17located_exceptionISt9exceptionEE"
 "_ZTVN4stan4math10sum_v_variE"
 "_ZTVN4stan4math16ad_tape_observerE"
 "_ZTVN4stan4math17multiply_mat_variIdLin1ELin1ENS0_3varELi1EEE"
 "_ZTVN4stan4math26precomputed_gradients_variE"
 "_ZTVN4stan4math4variE"
 "_ZTVN4stan4math8internal11add_vv_variE"
 "_ZTVN4stan4math8internal11pow_vd_variE"
 "_ZTVN4stan4math8internal11square_variE"
 "_ZTVN4stan4math8internal13inv_sqrt_variE"
 "_ZTVN4stan4math8internal14divide_dv_variE"
 "_ZTVN4stan4math8internal15inv_square_variE"
 "_ZTVN4stan4math8internal16dot_product_variINS0_3varEdEE"
 "_ZTVN4stan4math8internal16multiply_vd_variE"
 "_ZTVN4stan4math8internal16multiply_vv_variE"
 "_ZTVN4stan4math8internal16subtract_vv_variE"
 "_ZTVN4stan4math8internal8exp_variE"
 "_ZTVN4stan4math8internal8inv_variE"
 "_ZTVN4stan4math8internal8log_variE"
 "_ZTVN4stan4math8internal8neg_variE"
 "_ZTVN4stan4math8internal9sqrt_variE"
 "_ZTVN4stan4mcmc11diag_e_nutsIN34model_Exponential_expert_namespace24model_Exponential_expertEN5boost6random23additive_combine_engineINS5_26linear_congruential_engineIjLj40014ELj0ELj2147483563EEENS7_IjLj40692ELj0ELj2147483399EEEEEEE"
 "_ZTVN4stan4mcmc11unit_e_nutsIN34model_Exponential_expert_namespace24model_Exponential_expertEN5boost6random23additive_combine_engineINS5_26linear_congruential_engineIjLj40014ELj0ELj2147483563EEENS7_IjLj40692ELj0ELj2147483399EEEEEEE"
 "_ZTVN4stan4mcmc12dense_e_nutsIN34model_Exponential_expert_namespace24model_Exponential_expertEN5boost6random23additive_combine_engineINS5_26linear_congruential_engineIjLj40014ELj0ELj2147483563EEENS7_IjLj40692ELj0ELj2147483399EEEEEEE"
 "_ZTVN4stan4mcmc12diag_e_pointE"
 "_ZTVN4stan4mcmc12unit_e_pointE"
 "_ZTVN4stan4mcmc13dense_e_pointE"
 "_ZTVN4stan4mcmc13diag_e_metricIN34model_Exponential_expert_namespace24model_Exponential_expertEN5boost6random23additive_combine_engineINS5_26linear_congruential_engineIjLj40014ELj0ELj2147483563EEENS7_IjLj40692ELj0ELj2147483399EEEEEEE"
 "_ZTVN4stan4mcmc13expl_leapfrogINS0_13diag_e_metricIN34model_Exponential_expert_namespace24model_Exponential_expertEN5boost6random23additive_combine_engineINS6_26linear_congruential_engineIjLj40014ELj0ELj2147483563EEENS8_IjLj40692ELj0ELj2147483399EEEEEEEEE"
 "_ZTVN4stan4mcmc13expl_leapfrogINS0_13unit_e_metricIN34model_Exponential_expert_namespace24model_Exponential_expertEN5boost6random23additive_combine_engineINS6_26linear_congruential_engineIjLj40014ELj0ELj2147483563EEENS8_IjLj40692ELj0ELj2147483399EEEEEEEEE"
 "_ZTVN4stan4mcmc13expl_leapfrogINS0_14dense_e_metricIN34model_Exponential_expert_namespace24model_Exponential_expertEN5boost6random23additive_combine_engineINS6_26linear_congruential_engineIjLj40014ELj0ELj2147483563EEENS8_IjLj40692ELj0ELj2147483399EEEEEEEEE"
 "_ZTVN4stan4mcmc13unit_e_metricIN34model_Exponential_expert_namespace24model_Exponential_expertEN5boost6random23additive_combine_engineINS5_26linear_congruential_engineIjLj40014ELj0ELj2147483563EEENS7_IjLj40692ELj0ELj2147483399EEEEEEE"
 "_ZTVN4stan4mcmc14dense_e_metricIN34model_Exponential_expert_namespace24model_Exponential_expertEN5boost6random23additive_combine_engineINS5_26linear_congruential_engineIjLj40014ELj0ELj2147483563EEENS7_IjLj40692ELj0ELj2147483399EEEEEEE"
 "_ZTVN4stan4mcmc14var_adaptationE"
 "_ZTVN4stan4mcmc16covar_adaptationE"
 "_ZTVN4stan4mcmc17adapt_diag_e_nutsIN34model_Exponential_expert_namespace24model_Exponential_expertEN5boost6random23additive_combine_engineINS5_26linear_congruential_engineIjLj40014ELj0ELj2147483563EEENS7_IjLj40692ELj0ELj2147483399EEEEEEE"
 "_ZTVN4stan4mcmc17adapt_unit_e_nutsIN34model_Exponential_expert_namespace24model_Exponential_expertEN5boost6random23additive_combine_engineINS5_26linear_congruential_engineIjLj40014ELj0ELj2147483563EEENS7_IjLj40692ELj0ELj2147483399EEEEEEE"
 "_ZTVN4stan4mcmc17diag_e_static_hmcIN34model_Exponential_expert_namespace24model_Exponential_expertEN5boost6random23additive_combine_engineINS5_26linear_congruential_engineIjLj40014ELj0ELj2147483563EEENS7_IjLj40692ELj0ELj2147483399EEEEEEE"
 "_ZTVN4stan4mcmc17unit_e_static_hmcIN34model_Exponential_expert_namespace24model_Exponential_expertEN5boost6random23additive_combine_engineINS5_26linear_congruential_engineIjLj40014ELj0ELj2147483563EEENS7_IjLj40692ELj0ELj2147483399EEEEEEE"
 "_ZTVN4stan4mcmc18adapt_dense_e_nutsIN34model_Exponential_expert_namespace24model_Exponential_expertEN5boost6random23additive_combine_engineINS5_26linear_congruential_engineIjLj40014ELj0ELj2147483563EEENS7_IjLj40692ELj0ELj2147483399EEEEEEE"
 "_ZTVN4stan4mcmc18dense_e_static_hmcIN34model_Exponential_expert_namespace24model_Exponential_expertEN5boost6random23additive_combine_engineINS5_26linear_congruential_engineIjLj40014ELj0ELj2147483563EEENS7_IjLj40692ELj0ELj2147483399EEEEEEE"
 "_ZTVN4stan4mcmc19fixed_param_samplerE"
 "_ZTVN4stan4mcmc19stepsize_adaptationE"
 "_ZTVN4stan4mcmc19windowed_adaptationE"
 "_ZTVN4stan4mcmc20stepsize_var_adapterE"
 "_ZTVN4stan4mcmc22stepsize_covar_adapterE"
 "_ZTVN4stan4mcmc23adapt_diag_e_static_hmcIN34model_Exponential_expert_namespace24model_Exponential_expertEN5boost6random23additive_combine_engineINS5_26linear_congruential_engineIjLj40014ELj0ELj2147483563EEENS7_IjLj40692ELj0ELj2147483399EEEEEEE"
 "_ZTVN4stan4mcmc23adapt_unit_e_static_hmcIN34model_Exponential_expert_namespace24model_Exponential_expertEN5boost6random23additive_combine_engineINS5_26linear_congruential_engineIjLj40014ELj0ELj2147483563EEENS7_IjLj40692ELj0ELj2147483399EEEEEEE"
 "_ZTVN4stan4mcmc24adapt_dense_e_static_hmcIN34model_Exponential_expert_namespace24model_Exponential_expertEN5boost6random23additive_combine_engineINS5_26linear_congruential_engineIjLj40014ELj0ELj2147483563EEENS7_IjLj40692ELj0ELj2147483399EEEEEEE"
 "_ZTVN4stan4mcmc6sampleE"
 "_ZTVN4stan4mcmc8base_hmcIN34model_Exponential_expert_namespace24model_Exponential_expertENS0_13diag_e_metricENS0_13expl_leapfrogEN5boost6random23additive_combine_engineINS7_26linear_congruential_engineIjLj40014ELj0ELj2147483563EEENS9_IjLj40692ELj0ELj2147483399EEEEEEE"
 "_ZTVN4stan4mcmc8base_hmcIN34model_Exponential_expert_namespace24model_Exponential_expertENS0_13unit_e_metricENS0_13expl_leapfrogEN5boost6random23additive_combine_engineINS7_26linear_congruential_engineIjLj40014ELj0ELj2147483563EEENS9_IjLj40692ELj0ELj2147483399EEEEEEE"
 "_ZTVN4stan4mcmc8base_hmcIN34model_Exponential_expert_namespace24model_Exponential_expertENS0_14dense_e_metricENS0_13expl_leapfrogEN5boost6random23additive_combine_engineINS7_26linear_congruential_engineIjLj40014ELj0ELj2147483563EEENS9_IjLj40692ELj0ELj2147483399EEEEEEE"
 "_ZTVN4stan4mcmc8ps_pointE"
 "_ZTVN4stan5model9prob_gradE"
 "_ZTVN4stan9callbacks13stream_loggerE"
 "_ZTVN4stan9callbacks13stream_writerE"
 "_ZTVN4stan9callbacks27stream_logger_with_chain_idE"
 "_ZTVN4stan9callbacks6writerE"
 "_ZTVN5boost10error_infoINS_27tag_original_exception_typeEPKSt9type_infoEE"
 "_ZTVN5boost10wrapexceptINS_16bad_lexical_castEEE"
 "_ZTVN5boost10wrapexceptINS_4math14rounding_errorEEE"
 "_ZTVN5boost10wrapexceptINS_4math16evaluation_errorEEE"
 "_ZTVN5boost10wrapexceptISt11logic_errorEE"
 "_ZTVN5boost10wrapexceptISt12domain_errorEE"
 "_ZTVN5boost10wrapexceptISt12length_errorEE"
 "_ZTVN5boost10wrapexceptISt14overflow_errorEE"
 "_ZTVN5boost10wrapexceptISt16invalid_argumentEE"
 "_ZTVN5boost16bad_lexical_castE"
 "_ZTVN5boost16exception_detail10bad_alloc_E"
 "_ZTVN5boost16exception_detail10clone_baseE"
 "_ZTVN5boost16exception_detail10clone_implINS0_10bad_alloc_EEE"
 "_ZTVN5boost16exception_detail10clone_implINS0_14bad_exception_EEE"
 "_ZTVN5boost16exception_detail14bad_exception_E"
 "_ZTVN5boost16exception_detail25error_info_container_implE"
 "_ZTVN5boost4math14rounding_errorE"
 "_ZTVN5boost4math16evaluation_errorE"
 "_ZTVN5boost6detail17basic_unlockedbufISt15basic_streambufIcSt11char_traitsIcEEcEE"
 "_ZTVN5boost6detail17sp_counted_impl_pINS_16exception_detail10clone_implINS2_10bad_alloc_EEEEE"
 "_ZTVN5boost6detail17sp_counted_impl_pINS_16exception_detail10clone_implINS2_14bad_exception_EEEEE"
 "_ZTVN5boost6detail17sp_counted_impl_pINS_16exception_detail15error_info_baseEEE"
 "_ZTVN5boost9exceptionE"
 "_ZTVN5rstan10sum_valuesE"
 "_ZTVN5rstan14comment_writerE"
 "_ZTVN5rstan15filtered_valuesIN4Rcpp6VectorILi14ENS1_15PreserveStorageEEEEE"
 "_ZTVN5rstan19rstan_sample_writerE"
 "_ZTVN5rstan2io16r_cerr_streambufE"
 "_ZTVN5rstan2io16r_cout_streambufE"
 "_ZTVN5rstan2io21rlist_ref_var_contextE"
 "_ZTVN5rstan2io9r_ostreamINS0_16r_cerr_streambufEEE"
 "_ZTVN5rstan2io9r_ostreamINS0_16r_cout_streambufEEE"
 "_ZTVN5rstan5valueE"
 "_ZTVN5rstan6valuesIN4Rcpp6VectorILi14ENS1_15PreserveStorageEEEEE"
 "_ZThn168_N4stan4mcmc23adapt_unit_e_static_hmcIN34model_Exponential_expert_namespace24model_Exponential_expertEN5boost6random23additive_combine_engineINS5_26linear_congruential_engineIjLj40014ELj0ELj2147483563EEENS7_IjLj40692ELj0ELj2147483399EEEEEE20disengage_adaptationEv"
 "_ZThn176_N4stan4mcmc17adapt_unit_e_nutsIN34model_Exponential_expert_namespace24model_Exponential_expertEN5boost6random23additive_combine_engineINS5_26linear_congruential_engineIjLj40014ELj0ELj2147483563EEENS7_IjLj40692ELj0ELj2147483399EEEEEE20disengage_adaptationEv"
 "_ZThn184_N4stan4mcmc23adapt_diag_e_static_hmcIN34model_Exponential_expert_namespace24model_Exponential_expertEN5boost6random23additive_combine_engineINS5_26linear_congruential_engineIjLj40014ELj0ELj2147483563EEENS7_IjLj40692ELj0ELj2147483399EEEEEE20disengage_adaptationEv"
 "_ZThn192_N4stan4mcmc17adapt_diag_e_nutsIN34model_Exponential_expert_namespace24model_Exponential_expertEN5boost6random23additive_combine_engineINS5_26linear_congruential_engineIjLj40014ELj0ELj2147483563EEENS7_IjLj40692ELj0ELj2147483399EEEEEE20disengage_adaptationEv"
 "_ZThn192_N4stan4mcmc24adapt_dense_e_static_hmcIN34model_Exponential_expert_namespace24model_Exponential_expertEN5boost6random23additive_combine_engineINS5_26linear_congruential_engineIjLj40014ELj0ELj2147483563EEENS7_IjLj40692ELj0ELj2147483399EEEEEE20disengage_adaptationEv"
 "_ZThn200_N4stan4mcmc18adapt_dense_e_nutsIN34model_Exponential_expert_namespace24model_Exponential_expertEN5boost6random23additive_combine_engineINS5_26linear_congruential_engineIjLj40014ELj0ELj2147483563EEENS7_IjLj40692ELj0ELj2147483399EEEEEE20disengage_adaptationEv"
 "_ZThn24_N5boost10wrapexceptINS_4math14rounding_errorEED0Ev"
 "_ZThn24_N5boost10wrapexceptINS_4math14rounding_errorEED1Ev"
 "_ZThn24_N5boost10wrapexceptINS_4math16evaluation_errorEED0Ev"
 "_ZThn24_N5boost10wrapexceptINS_4math16evaluation_errorEED1Ev"
 "_ZThn24_N5boost10wrapexceptISt11logic_errorED0Ev"
 "_ZThn24_N5boost10wrapexceptISt11logic_errorED1Ev"
 "_ZThn24_N5boost10wrapexceptISt12domain_errorED0Ev"
 "_ZThn24_N5boost10wrapexceptISt12domain_errorED1Ev"
 "_ZThn24_N5boost10wrapexceptISt12length_errorED0Ev"
 "_ZThn24_N5boost10wrapexceptISt12length_errorED1Ev"
 "_ZThn24_N5boost10wrapexceptISt14overflow_errorED0Ev"
 "_ZThn24_N5boost10wrapexceptISt14overflow_errorED1Ev"
 "_ZThn24_N5boost10wrapexceptISt16invalid_argumentED0Ev"
 "_ZThn24_N5boost10wrapexceptISt16invalid_argumentED1Ev"
 "_ZThn32_N5boost10wrapexceptINS_16bad_lexical_castEED0Ev"
 "_ZThn32_N5boost10wrapexceptINS_16bad_lexical_castEED1Ev"
 "_ZThn40_N5boost16exception_detail10bad_alloc_D0Ev"
 "_ZThn40_N5boost16exception_detail10bad_alloc_D1Ev"
 "_ZThn40_N5boost16exception_detail10clone_implINS0_10bad_alloc_EED0Ev"
 "_ZThn40_N5boost16exception_detail10clone_implINS0_10bad_alloc_EED1Ev"
 "_ZThn40_N5boost16exception_detail10clone_implINS0_14bad_exception_EED0Ev"
 "_ZThn40_N5boost16exception_detail10clone_implINS0_14bad_exception_EED1Ev"
 "_ZThn40_N5boost16exception_detail14bad_exception_D0Ev"
 "_ZThn40_N5boost16exception_detail14bad_exception_D1Ev"
 "_ZThn8_N5boost10wrapexceptINS_16bad_lexical_castEED0Ev"
 "_ZThn8_N5boost10wrapexceptINS_16bad_lexical_castEED1Ev"
 "_ZThn8_N5boost10wrapexceptINS_4math14rounding_errorEED0Ev"
 "_ZThn8_N5boost10wrapexceptINS_4math14rounding_errorEED1Ev"
 "_ZThn8_N5boost10wrapexceptINS_4math16evaluation_errorEED0Ev"
 "_ZThn8_N5boost10wrapexceptINS_4math16evaluation_errorEED1Ev"
 "_ZThn8_N5boost10wrapexceptISt11logic_errorED0Ev"
 "_ZThn8_N5boost10wrapexceptISt11logic_errorED1Ev"
 "_ZThn8_N5boost10wrapexceptISt12domain_errorED0Ev"
 "_ZThn8_N5boost10wrapexceptISt12domain_errorED1Ev"
 "_ZThn8_N5boost10wrapexceptISt12length_errorED0Ev"
 "_ZThn8_N5boost10wrapexceptISt12length_errorED1Ev"
 "_ZThn8_N5boost10wrapexceptISt14overflow_errorED0Ev"
 "_ZThn8_N5boost10wrapexceptISt14overflow_errorED1Ev"
 "_ZThn8_N5boost10wrapexceptISt16invalid_argumentED0Ev"
 "_ZThn8_N5boost10wrapexceptISt16invalid_argumentED1Ev"
 "_ZTv0_n24_N4Rcpp8RostreamILb0EED0Ev"
 "_ZTv0_n24_N4Rcpp8RostreamILb0EED1Ev"
 "_ZTv0_n24_N4Rcpp8RostreamILb1EED0Ev"
 "_ZTv0_n24_N4Rcpp8RostreamILb1EED1Ev"
 "_ZTv0_n24_N5rstan2io9r_ostreamINS0_16r_cerr_streambufEED0Ev"
 "_ZTv0_n24_N5rstan2io9r_ostreamINS0_16r_cerr_streambufEED1Ev"
 "_ZTv0_n24_N5rstan2io9r_ostreamINS0_16r_cout_streambufEED0Ev"
 "_ZTv0_n24_N5rstan2io9r_ostreamINS0_16r_cout_streambufEED1Ev"
 "_ZTv0_n24_NK5boost16exception_detail10clone_implINS0_10bad_alloc_EE5cloneEv"
 "_ZTv0_n24_NK5boost16exception_detail10clone_implINS0_14bad_exception_EE5cloneEv"
 "_ZTv0_n32_NK5boost16exception_detail10clone_implINS0_10bad_alloc_EE7rethrowEv"
 "_ZTv0_n32_NK5boost16exception_detail10clone_implINS0_14bad_exception_EE7rethrowEv"
 "_ZTv0_n40_N5boost16exception_detail10clone_implINS0_10bad_alloc_EED0Ev"
 "_ZTv0_n40_N5boost16exception_detail10clone_implINS0_10bad_alloc_EED1Ev"
 "_ZTv0_n40_N5boost16exception_detail10clone_implINS0_14bad_exception_EED0Ev"
 "_ZTv0_n40_N5boost16exception_detail10clone_implINS0_14bad_exception_EED1Ev"
 "_ZZ15getCurrentScopevE3fun"
 "_ZZ15setCurrentScopePN4Rcpp6ModuleEE3fun"
 "_ZZ19char_get_string_eltP7SEXPRECxE3fun"
 "_ZZ20rcpp_get_stack_tracevE3fun"
 "_ZZ20rcpp_set_stack_traceP7SEXPRECE3fun"
 "_ZZ7dataptrP7SEXPRECE3fun"
 "_ZZ8demangleRKNSt7__cxx1112basic_stringIcSt11char_traitsIcESaIcEEEE3funB5cxx11"
 "_ZZN34model_Exponential_expert_namespace24model_Exponential_expert9ctor_bodyERN4stan2io11var_contextEjPSoE10function__"
 "_ZZN4Rcpp20Rcpp_precious_removeEP7SEXPRECE3fun"
 "_ZZN4Rcpp22Rcpp_precious_preserveEP7SEXPRECE3fun"
 "_ZZN4Rcpp6class_IN5rstan8stan_fitIN34model_Exponential_expert_namespace24model_Exponential_expertEN5boost6random23additive_combine_engineINS6_26linear_congruential_engineIjLj40014ELj0ELj2147483563EEENS8_IjLj40692ELj0ELj2147483399EEEEEEEE11getPropertyEP7SEXPRECSF_E8stop_sym"
 "_ZZN4Rcpp6class_IN5rstan8stan_fitIN34model_Exponential_expert_namespace24model_Exponential_expertEN5boost6random23additive_combine_engineINS6_26linear_congruential_engineIjLj40014ELj0ELj2147483563EEENS8_IjLj40692ELj0ELj2147483399EEEEEEEE11invoke_voidEP7SEXPRECSF_PSF_iE8stop_sym"
 "_ZZN4Rcpp6class_IN5rstan8stan_fitIN34model_Exponential_expert_namespace24model_Exponential_expertEN5boost6random23additive_combine_engineINS6_26linear_congruential_engineIjLj40014ELj0ELj2147483563EEENS8_IjLj40692ELj0ELj2147483399EEEEEEEE11newInstanceEPP7SEXPRECiE8stop_sym"
 "_ZZN4Rcpp6class_IN5rstan8stan_fitIN34model_Exponential_expert_namespace24model_Exponential_expertEN5boost6random23additive_combine_engineINS6_26linear_congruential_engineIjLj40014ELj0ELj2147483563EEENS8_IjLj40692ELj0ELj2147483399EEEEEEEE11setPropertyEP7SEXPRECSF_SF_E8stop_sym"
 "_ZZN4Rcpp6class_IN5rstan8stan_fitIN34model_Exponential_expert_namespace24model_Exponential_expertEN5boost6random23additive_combine_engineINS6_26linear_congruential_engineIjLj40014ELj0ELj2147483563EEENS8_IjLj40692ELj0ELj2147483399EEEEEEEE14invoke_notvoidEP7SEXPRECSF_PSF_iE8stop_sym"
 "_ZZN4Rcpp6class_IN5rstan8stan_fitIN34model_Exponential_expert_namespace24model_Exponential_expertEN5boost6random23additive_combine_engineINS6_26linear_congruential_engineIjLj40014ELj0ELj2147483563EEENS8_IjLj40692ELj0ELj2147483399EEEEEEEE6invokeEP7SEXPRECSF_PSF_iE8stop_sym"
 "_ZZN4Rcpp8internal18get_Rcpp_namespaceEvE3fun"
 "_ZZN4stan11variational14print_progressEiiiibRKNSt7__cxx1112basic_stringIcSt11char_traitsIcESaIcEEES8_RNS_9callbacks6loggerEE8function"
 "_ZZN4stan11variational15normal_fullrank10set_L_cholERKN5Eigen6MatrixIdLin1ELin1ELi0ELin1ELin1EEEE8function"
 "_ZZN4stan11variational15normal_fullrank6set_muERKN5Eigen6MatrixIdLin1ELi1ELi0ELin1ELi1EEEE8function"
 "_ZZN4stan11variational15normal_fullrankC4ERKN5Eigen6MatrixIdLin1ELi1ELi0ELin1ELi1EEERKNS3_IdLin1ELin1ELi0ELin1ELin1EEEE8function"
 "_ZZN4stan11variational15normal_fullrankaSERKS1_E8function"
 "_ZZN4stan11variational15normal_fullrankdVERKS1_E8function"
 "_ZZN4stan11variational15normal_fullrankpLERKS1_E8function"
 "_ZZN4stan11variational16normal_meanfield6set_muERKN5Eigen6MatrixIdLin1ELi1ELi0ELin1ELi1EEEE8function"
 "_ZZN4stan11variational16normal_meanfield9set_omegaERKN5Eigen6MatrixIdLin1ELi1ELi0ELin1ELi1EEEE8function"
 "_ZZN4stan11variational16normal_meanfieldC4ERKN5Eigen6MatrixIdLin1ELi1ELi0ELin1ELi1EEES6_E8function"
 "_ZZN4stan11variational16normal_meanfieldaSERKS1_E8function"
 "_ZZN4stan11variational16normal_meanfielddVERKS1_E8function"
 "_ZZN4stan11variational16normal_meanfieldpLERKS1_E8function"
 "_ZZN4stan11variational4adviIN34model_Exponential_expert_namespace24model_Exponential_expertENS0_15normal_fullrankEN5boost6random23additive_combine_engineINS6_26linear_congruential_engineIjLj40014ELj0ELj2147483563EEENS8_IjLj40692ELj0ELj2147483399EEEEEEC4ERS3_RN5Eigen6MatrixIdLin1ELi1ELi0ELin1ELi1EEERSB_iiiiE8function"
 "_ZZN4stan11variational4adviIN34model_Exponential_expert_namespace24model_Exponential_expertENS0_16normal_meanfieldEN5boost6random23additive_combine_engineINS6_26linear_congruential_engineIjLj40014ELj0ELj2147483563EEENS8_IjLj40692ELj0ELj2147483399EEEEEEC4ERS3_RN5Eigen6MatrixIdLin1ELi1ELi0ELin1ELi1EEERSB_iiiiE8function"
 "_ZZN4stan4math10gamma_lpdfILb0ENS0_3varEddEENS_11return_typeIT0_JT1_T2_EE4typeERKS4_RKS5_RKS6_E8function"
 "_ZZN4stan4math10gamma_lpdfILb0EdddEENS_11return_typeIT0_JT1_T2_EE4typeERKS3_RKS4_RKS5_E8function"
 "_ZZN4stan4math11normal_lpdfILb0EN5Eigen6MatrixINS0_3varELin1ELi1ELi0ELin1ELi1EEENS3_IdLin1ELi1ELi0ELin1ELi1EEES6_EENS_11return_typeIT0_JT1_T2_EE4typeERKS8_RKS9_RKSA_E13NEGATIVE_HALF"
 "_ZZN4stan4math11normal_lpdfILb0EN5Eigen6MatrixINS0_3varELin1ELi1ELi0ELin1ELi1EEENS3_IdLin1ELi1ELi0ELin1ELi1EEES6_EENS_11return_typeIT0_JT1_T2_EE4typeERKS8_RKS9_RKSA_E8function"
 "_ZZN4stan4math11normal_lpdfILb0EN5Eigen6MatrixIdLin1ELi1ELi0ELin1ELi1EEES4_S4_EENS_11return_typeIT0_JT1_T2_EE4typeERKS6_RKS7_RKS8_E13NEGATIVE_HALF"
 "_ZZN4stan4math11normal_lpdfILb0EN5Eigen6MatrixIdLin1ELi1ELi0ELin1ELi1EEES4_S4_EENS_11return_typeIT0_JT1_T2_EE4typeERKS6_RKS7_RKS8_E8function"
 "_ZZN4stan4math11normal_lpdfILb0ENS0_3varEddEENS_11return_typeIT0_JT1_T2_EE4typeERKS4_RKS5_RKS6_E13NEGATIVE_HALF"
 "_ZZN4stan4math11normal_lpdfILb0ENS0_3varEddEENS_11return_typeIT0_JT1_T2_EE4typeERKS4_RKS5_RKS6_E8function"
 "_ZZN4stan4math11normal_lpdfILb0EdddEENS_11return_typeIT0_JT1_T2_EE4typeERKS3_RKS4_RKS5_E13NEGATIVE_HALF"
 "_ZZN4stan4math11normal_lpdfILb0EdddEENS_11return_typeIT0_JT1_T2_EE4typeERKS3_RKS4_RKS5_E8function"
 "_ZZN4stan4math11normal_lpdfILb1EN5Eigen6MatrixINS0_3varELin1ELi1ELi0ELin1ELi1EEENS3_IdLin1ELi1ELi0ELin1ELi1EEES6_EENS_11return_typeIT0_JT1_T2_EE4typeERKS8_RKS9_RKSA_E13NEGATIVE_HALF"
 "_ZZN4stan4math11normal_lpdfILb1EN5Eigen6MatrixINS0_3varELin1ELi1ELi0ELin1ELi1EEENS3_IdLin1ELi1ELi0ELin1ELi1EEES6_EENS_11return_typeIT0_JT1_T2_EE4typeERKS8_RKS9_RKSA_E8function"
 "_ZZN4stan4math11normal_lpdfILb1EN5Eigen6MatrixIdLin1ELi1ELi0ELin1ELi1EEES4_S4_EENS_11return_typeIT0_JT1_T2_EE4typeERKS6_RKS7_RKS8_E8function"
 "_ZZN4stan4math14lognormal_lpdfILb0ENS0_3varEddEENS_11return_typeIT0_JT1_T2_EE4typeERKS4_RKS5_RKS6_E8function"
 "_ZZN4stan4math14lognormal_lpdfILb0EdddEENS_11return_typeIT0_JT1_T2_EE4typeERKS3_RKS4_RKS5_E8function"
 "_ZZN4stan4math14student_t_lpdfILb0ENS0_3varEdddEENS_11return_typeIT0_JT1_T2_T3_EE4typeERKS4_RKS5_RKS6_RKS7_E8function"
 "_ZZN4stan4math14student_t_lpdfILb0EddddEENS_11return_typeIT0_JT1_T2_T3_EE4typeERKS3_RKS4_RKS5_RKS6_E8function"
 "_ZZN4stan4math9beta_lpdfILb0ENS0_3varEddEENS_11return_typeIT0_JT1_T2_EE4typeERKS4_RKS5_RKS6_E8function"
 "_ZZN4stan4math9beta_lpdfILb0EdddEENS_11return_typeIT0_JT1_T2_EE4typeERKS3_RKS4_RKS5_E8function"
 "_ZZN4stan4math9to_matrixIdEEN5Eigen6MatrixIT_Lin1ELin1ELi0ELin1ELin1EEERKSt6vectorIS4_SaIS4_EEiiE8function"
 "_ZZN4stan5model18grad_hess_log_probILb1ELb0EN34model_Exponential_expert_namespace24model_Exponential_expertEEEdRKT1_RSt6vectorIdSaIdEERS7_IiSaIiEESA_SA_PSoE13perturbations"
 "_ZZN4stan5model18grad_hess_log_probILb1ELb0EN34model_Exponential_expert_namespace24model_Exponential_expertEEEdRKT1_RSt6vectorIdSaIdEERS7_IiSaIiEESA_SA_PSoE18half_epsilon_coeff"
 "_ZZN4stan8services4util10create_rngEjjE14DISCARD_STRIDE"
 "_ZZN5Eigen8internal20manage_caching_sizesENS_6ActionEPxS2_S2_E12m_cacheSizes"
 "_ZZN5Eigen8internal4pexpIDv2_dEET_RKS3_E10p4i_1023_0"
 "_ZZN5boost16exception_detail27get_static_exception_objectINS0_10bad_alloc_EEENS_13exception_ptrEvE2ep"
 "_ZZN5boost16exception_detail27get_static_exception_objectINS0_14bad_exception_EEENS_13exception_ptrEvE2ep"
 "_ZZN5boost4math6detail10lgamma_impIeNS0_8policies6policyINS3_13promote_floatILb0EEENS3_14promote_doubleILb0EEENS3_14default_policyES9_S9_S9_S9_S9_S9_S9_S9_S9_S9_EENS0_7lanczos12lanczos17m64EEET_SD_RKT0_RKT1_PiE8function"
 "_ZZN5boost4math6detail13bessel_i0_impIeEET_RKS3_RKNS_17integral_constantIiLi64EEEE1P_0"
 "_ZZN5boost4math6detail13bessel_i1_impIeEET_RKS3_RKNS_17integral_constantIiLi64EEEE1P_0"
 "_ZZN5boost4math6detail13bessel_i1_impIeEET_RKS3_RKNS_17integral_constantIiLi64EEEE1P_1"
 "_ZZN5boost4math6detail13bessel_k0_impIeEET_RKS3_RKNS_17integral_constantIiLi64EEEE1P_0"
 "_ZZN5boost4math6detail13bessel_k0_impIeEET_RKS3_RKNS_17integral_constantIiLi64EEEE1Q_0"
 "_ZZN5boost4math6detail13bessel_k0_impIeEET_RKS3_RKNS_17integral_constantIiLi64EEEE2P2"
 "_ZZN5boost4math6detail13bessel_k0_impIeEET_RKS3_RKNS_17integral_constantIiLi64EEEE2Q2"
 "_ZZN5boost4math6detail13bessel_k1_impIeEET_RKS3_RKNS_17integral_constantIiLi64EEEE1P"
 "_ZZN5boost4math6detail13bessel_k1_impIeEET_RKS3_RKNS_17integral_constantIiLi64EEEE1Q"
 "_ZZN5boost4math6detail13bessel_k1_impIeEET_RKS3_RKNS_17integral_constantIiLi64EEEE1Q_0"
 "_ZZN5boost4math6detail13bessel_k1_impIeEET_RKS3_RKNS_17integral_constantIiLi64EEEE2P2"
 "_ZZN5boost4math6detail13bessel_k1_impIeEET_RKS3_RKNS_17integral_constantIiLi64EEEE2Q2"
 "_ZZN5boost4math6detail14owens_t_T3_impIeNS0_8policies6policyINS3_14default_policyES5_S5_S5_S5_S5_S5_S5_S5_S5_S5_S5_S5_EEEET_S7_S7_S7_RKNS_17integral_constantIiLi64EEERKT0_E2c2"
 "_ZZN5boost4math6detail14owens_t_T5_impIeEET_S3_S3_RKNS_17integral_constantIiLi64EEEE3pts"
 "_ZZN5boost4math6detail14owens_t_T5_impIeEET_S3_S3_RKNS_17integral_constantIiLi64EEEE3wts"
 "_ZZN5boost4math6detail16lgamma_small_impIeNS0_8policies6policyINS3_13promote_floatILb0EEENS3_14promote_doubleILb0EEENS3_14default_policyES9_S9_S9_S9_S9_S9_S9_S9_S9_S9_EENS0_7lanczos12lanczos17m64EEET_SD_SD_SD_RKNS_17integral_constantIiLi64EEERKT0_RKT1_E1Q"
 "_ZZN5boost4math6detail16owens_t_dispatchIeNS0_8policies6policyINS3_14default_policyES5_S5_S5_S5_S5_S5_S5_S5_S5_S5_S5_S5_EEEET_S7_S7_S7_RKT0_RKNS_17integral_constantIiLi64EEEE4meth"
 "_ZZN5boost4math6detail17digamma_imp_largeIeEET_S3_PKNS_17integral_constantIiLi64EEEE1P"
 "_ZZN5boost4math6detail18igamma_temme_largeIeNS0_8policies6policyINS3_13promote_floatILb0EEENS3_14promote_doubleILb0EEENS3_14default_policyES9_S9_S9_S9_S9_S9_S9_S9_S9_S9_EEEET_SB_SB_RKT0_PKNS_17integral_constantIiLi64EEEE2C3"
 "_ZZN5boost4math6detail18igamma_temme_largeIeNS0_8policies6policyINS3_13promote_floatILb0EEENS3_14promote_doubleILb0EEENS3_14default_policyES9_S9_S9_S9_S9_S9_S9_S9_S9_S9_EEEET_SB_SB_RKT0_PKNS_17integral_constantIiLi64EEEE2C4"
 "_ZZN5boost4math6detail18igamma_temme_largeIeNS0_8policies6policyINS3_13promote_floatILb0EEENS3_14promote_doubleILb0EEENS3_14default_policyES9_S9_S9_S9_S9_S9_S9_S9_S9_S9_EEEET_SB_SB_RKT0_PKNS_17integral_constantIiLi64EEEE2C6"
 "_ZZN5boost4math6detail20gamma_incomplete_impIeNS0_8policies6policyINS3_13promote_floatILb0EEENS3_14promote_doubleILb0EEENS3_14default_policyES9_S9_S9_S9_S9_S9_S9_S9_S9_S9_EEEET_SB_SB_bbRKT0_PSB_E8function"
 "_ZZN5boost4math6detail20owens_t_compute_codeIeEEtT_S3_E6arange"
 "_ZZN5boost4math6detail20owens_t_compute_codeIeEEtT_S3_E6hrange"
 "_ZZN5boost4math6detail20owens_t_compute_codeIeEEtT_S3_E6select"
 "_ZZN5boost4math6detail21owens_t_get_order_impIeEEttT_RKNS_17integral_constantIiLi64EEEE3ord"
 "_ZZN5boost4math6detail7erf_impIeNS0_8policies6policyINS3_13promote_floatILb0EEENS3_14promote_doubleILb0EEENS3_14default_policyES9_S9_S9_S9_S9_S9_S9_S9_S9_S9_EEEET_SB_bRKT0_RKNS_17integral_constantIiLi64EEEE1P_0"
 "_ZZN5boost4math6detail7erf_impIeNS0_8policies6policyINS3_13promote_floatILb0EEENS3_14promote_doubleILb0EEENS3_14default_policyES9_S9_S9_S9_S9_S9_S9_S9_S9_S9_EEEET_SB_bRKT0_RKNS_17integral_constantIiLi64EEEE1P_3"
 "_ZZN5boost4math6detail7erf_impIeNS0_8policies6policyINS3_13promote_floatILb0EEENS3_14promote_doubleILb0EEENS3_14default_policyES9_S9_S9_S9_S9_S9_S9_S9_S9_S9_EEEET_SB_bRKT0_RKNS_17integral_constantIiLi64EEEE1Q_3"
 "_ZZN5boost4math6detail9bessel_j0IeEET_S3_E2P1"
 "_ZZN5boost4math6detail9bessel_j0IeEET_S3_E2P2"
 "_ZZN5boost4math6detail9bessel_j0IeEET_S3_E2PC"
 "_ZZN5boost4math6detail9bessel_j0IeEET_S3_E2PS"
 "_ZZN5boost4math6detail9bessel_j0IeEET_S3_E2Q1"
 "_ZZN5boost4math6detail9bessel_j0IeEET_S3_E2Q2"
 "_ZZN5boost4math6detail9bessel_j0IeEET_S3_E2QC"
 "_ZZN5boost4math6detail9bessel_j0IeEET_S3_E2QS"
 "_ZZN5boost4math6detail9bessel_j1IeEET_S3_E2P1"
 "_ZZN5boost4math6detail9bessel_j1IeEET_S3_E2P2"
 "_ZZN5boost4math6detail9bessel_j1IeEET_S3_E2PC"
 "_ZZN5boost4math6detail9bessel_j1IeEET_S3_E2PS"
 "_ZZN5boost4math6detail9bessel_j1IeEET_S3_E2Q1"
 "_ZZN5boost4math6detail9bessel_j1IeEET_S3_E2Q2"
 "_ZZN5boost4math6detail9bessel_j1IeEET_S3_E2QC"
 "_ZZN5boost4math6detail9bessel_j1IeEET_S3_E2QS"
 "_ZZN5boost4math6detail9bessel_y1IeNS0_8policies6policyINS3_13promote_floatILb0EEENS3_14promote_doubleILb0EEENS3_14default_policyES9_S9_S9_S9_S9_S9_S9_S9_S9_S9_EEEET_SB_RKT0_E2P1"
 "_ZZN5boost4math6detail9bessel_y1IeNS0_8policies6policyINS3_13promote_floatILb0EEENS3_14promote_doubleILb0EEENS3_14default_policyES9_S9_S9_S9_S9_S9_S9_S9_S9_S9_EEEET_SB_RKT0_E2PC"
 "_ZZN5boost4math6detail9bessel_y1IeNS0_8policies6policyINS3_13promote_floatILb0EEENS3_14promote_doubleILb0EEENS3_14default_policyES9_S9_S9_S9_S9_S9_S9_S9_S9_S9_EEEET_SB_RKT0_E2PS"
 "_ZZN5boost4math6detail9bessel_y1IeNS0_8policies6policyINS3_13promote_floatILb0EEENS3_14promote_doubleILb0EEENS3_14default_policyES9_S9_S9_S9_S9_S9_S9_S9_S9_S9_EEEET_SB_RKT0_E2Q1"
 "_ZZN5boost4math6detail9bessel_y1IeNS0_8policies6policyINS3_13promote_floatILb0EEENS3_14promote_doubleILb0EEENS3_14default_policyES9_S9_S9_S9_S9_S9_S9_S9_S9_S9_EEEET_SB_RKT0_E2QC"
 "_ZZN5boost4math6detail9bessel_y1IeNS0_8policies6policyINS3_13promote_floatILb0EEENS3_14promote_doubleILb0EEENS3_14default_policyES9_S9_S9_S9_S9_S9_S9_S9_S9_S9_EEEET_SB_RKT0_E2QS"
 "_ZZN5boost4math6detail9gamma_impIeNS0_8policies6policyINS3_13promote_floatILb0EEENS3_14promote_doubleILb0EEENS3_14default_policyES9_S9_S9_S9_S9_S9_S9_S9_S9_S9_EENS0_7lanczos12lanczos17m64EEET_SD_RKT0_RKT1_E8function"
 "_ZZN5boost4math6detail9log1p_impIeNS0_8policies6policyINS3_13promote_floatILb0EEENS3_14promote_doubleILb0EEENS3_14default_policyES9_S9_S9_S9_S9_S9_S9_S9_S9_S9_EEEET_RKSB_RKT0_RKNS_17integral_constantIiLi64EEEE8function"
 "_ZZN5boost4math6detail9powm1_impIeNS0_8policies6policyINS3_13promote_floatILb0EEENS3_14promote_doubleILb0EEENS3_14default_policyES9_S9_S9_S9_S9_S9_S9_S9_S9_S9_EEEET_SB_SB_RKT0_E8function"
 "_ZZN5boost4math7lanczos12lanczos13m5311lanczos_sumIdEET_RKS4_E5coeff"
 "_ZZN5boost4math7lanczos12lanczos13m5323lanczos_sum_expG_scaledIdEET_RKS4_E5coeff"
 "_ZZN5boost4math7lanczos12lanczos17m6411lanczos_sumIeEET_RKS4_E3num"
 "_ZZN5boost4math7lanczos12lanczos17m6411lanczos_sumIeEET_RKS4_E5denom"
 "_ZZN5boost4math7lanczos12lanczos17m6423lanczos_sum_expG_scaledIeEET_RKS4_E3num"
 "_ZZN5boost4math7lanczos12lanczos17m6423lanczos_sum_expG_scaledIeEET_RKS4_E5denom"
 "_ZZN5boost4math7log1pmxIeNS0_8policies6policyINS2_13promote_floatILb0EEENS2_14promote_doubleILb0EEENS2_14default_policyES8_S8_S8_S8_S8_S8_S8_S8_S8_S8_EEEENS0_5tools12promote_argsIT_fffffE4typeESC_RKT0_E8function"
 "_ZZN5rstan8stan_fitIN34model_Exponential_expert_namespace24model_Exponential_expertEN5boost6random23additive_combine_engineINS4_26linear_congruential_engineIjLj40014ELj0ELj2147483563EEENS6_IjLj40692ELj0ELj2147483399EEEEEE12call_samplerEP7SEXPRECE8stop_sym"
 "_ZZN5rstan8stan_fitIN34model_Exponential_expert_namespace24model_Exponential_expertEN5boost6random23additive_combine_engineINS4_26linear_congruential_engineIjLj40014ELj0ELj2147483563EEENS6_IjLj40692ELj0ELj2147483399EEEEEE13grad_log_probEP7SEXPRECSC_E8stop_sym"
 "_ZZN5rstan8stan_fitIN34model_Exponential_expert_namespace24model_Exponential_expertEN5boost6random23additive_combine_engineINS4_26linear_congruential_engineIjLj40014ELj0ELj2147483563EEENS6_IjLj40692ELj0ELj2147483399EEEEEE13param_oi_tidxEP7SEXPRECE8stop_sym"
 "_ZZN5rstan8stan_fitIN34model_Exponential_expert_namespace24model_Exponential_expertEN5boost6random23additive_combine_engineINS4_26linear_congruential_engineIjLj40014ELj0ELj2147483563EEENS6_IjLj40692ELj0ELj2147483399EEEEEE14constrain_parsEP7SEXPRECE8stop_sym"
 "_ZZN5rstan8stan_fitIN34model_Exponential_expert_namespace24model_Exponential_expertEN5boost6random23additive_combine_engineINS4_26linear_congruential_engineIjLj40014ELj0ELj2147483563EEENS6_IjLj40692ELj0ELj2147483399EEEEEE14standalone_gqsEP7SEXPRECSC_E8stop_sym"
 "_ZZN5rstan8stan_fitIN34model_Exponential_expert_namespace24model_Exponential_expertEN5boost6random23additive_combine_engineINS4_26linear_congruential_engineIjLj40014ELj0ELj2147483563EEENS6_IjLj40692ELj0ELj2147483399EEEEEE16unconstrain_parsEP7SEXPRECE8stop_sym"
 "_ZZN5rstan8stan_fitIN34model_Exponential_expert_namespace24model_Exponential_expertEN5boost6random23additive_combine_engineINS4_26linear_congruential_engineIjLj40014ELj0ELj2147483563EEENS6_IjLj40692ELj0ELj2147483399EEEEEE22num_pars_unconstrainedEvE8stop_sym"
 "_ZZN5rstan8stan_fitIN34model_Exponential_expert_namespace24model_Exponential_expertEN5boost6random23additive_combine_engineINS4_26linear_congruential_engineIjLj40014ELj0ELj2147483563EEENS6_IjLj40692ELj0ELj2147483399EEEEEE23constrained_param_namesEP7SEXPRECSC_E8stop_sym"
 "_ZZN5rstan8stan_fitIN34model_Exponential_expert_namespace24model_Exponential_expertEN5boost6random23additive_combine_engineINS4_26linear_congruential_engineIjLj40014ELj0ELj2147483563EEENS6_IjLj40692ELj0ELj2147483399EEEEEE25unconstrained_param_namesEP7SEXPRECSC_E8stop_sym"
 "_ZZN5rstan8stan_fitIN34model_Exponential_expert_namespace24model_Exponential_expertEN5boost6random23additive_combine_engineINS4_26linear_congruential_engineIjLj40014ELj0ELj2147483563EEENS6_IjLj40692ELj0ELj2147483399EEEEEE8log_probEP7SEXPRECSC_SC_E8stop_sym"
 "_ZZNK4stan11variational15normal_fullrank7entropyEvE4mult"
 "_ZZNK4stan11variational15normal_fullrank9calc_gradIN34model_Exponential_expert_namespace24model_Exponential_expertEN5boost6random23additive_combine_engineINS6_26linear_congruential_engineIjLj40014ELj0ELj2147483563EEENS8_IjLj40692ELj0ELj2147483399EEEEEEEvRS1_RT_RN5Eigen6MatrixIdLin1ELi1ELi0ELin1ELi1EEEiRT0_RNS_9callbacks6loggerEE8function"
 "_ZZNK4stan11variational15normal_fullrank9transformERKN5Eigen6MatrixIdLin1ELi1ELi0ELin1ELi1EEEE8function"
 "_ZZNK4stan11variational16normal_meanfield9calc_gradIN34model_Exponential_expert_namespace24model_Exponential_expertEN5boost6random23additive_combine_engineINS6_26linear_congruential_engineIjLj40014ELj0ELj2147483563EEENS8_IjLj40692ELj0ELj2147483399EEEEEEEvRS1_RT_RN5Eigen6MatrixIdLin1ELi1ELi0ELin1ELi1EEEiRT0_RNS_9callbacks6loggerEE8function"
 "_ZZNK4stan11variational16normal_meanfield9transformERKN5Eigen6MatrixIdLin1ELi1ELi0ELin1ELi1EEEE8function"
 "_ZZNK4stan11variational4adviIN34model_Exponential_expert_namespace24model_Exponential_expertENS0_15normal_fullrankEN5boost6random23additive_combine_engineINS6_26linear_congruential_engineIjLj40014ELj0ELj2147483563EEENS8_IjLj40692ELj0ELj2147483399EEEEEE14calc_ELBO_gradERKS4_RS4_RNS_9callbacks6loggerEE8function"
 "_ZZNK4stan11variational4adviIN34model_Exponential_expert_namespace24model_Exponential_expertENS0_15normal_fullrankEN5boost6random23additive_combine_engineINS6_26linear_congruential_engineIjLj40014ELj0ELj2147483563EEENS8_IjLj40692ELj0ELj2147483399EEEEEE26stochastic_gradient_ascentERS4_ddiRNS_9callbacks6loggerERNSE_6writerEE8function"
 "_ZZNK4stan11variational4adviIN34model_Exponential_expert_namespace24model_Exponential_expertENS0_15normal_fullrankEN5boost6random23additive_combine_engineINS6_26linear_congruential_engineIjLj40014ELj0ELj2147483563EEENS8_IjLj40692ELj0ELj2147483399EEEEEE9adapt_etaERS4_iRNS_9callbacks6loggerEE8function"
 "_ZZNK4stan11variational4adviIN34model_Exponential_expert_namespace24model_Exponential_expertENS0_15normal_fullrankEN5boost6random23additive_combine_engineINS6_26linear_congruential_engineIjLj40014ELj0ELj2147483563EEENS8_IjLj40692ELj0ELj2147483399EEEEEE9calc_ELBOERKS4_RNS_9callbacks6loggerEE8function"
 "_ZZNK4stan11variational4adviIN34model_Exponential_expert_namespace24model_Exponential_expertENS0_16normal_meanfieldEN5boost6random23additive_combine_engineINS6_26linear_congruential_engineIjLj40014ELj0ELj2147483563EEENS8_IjLj40692ELj0ELj2147483399EEEEEE14calc_ELBO_gradERKS4_RS4_RNS_9callbacks6loggerEE8function"
 "_ZZNK4stan11variational4adviIN34model_Exponential_expert_namespace24model_Exponential_expertENS0_16normal_meanfieldEN5boost6random23additive_combine_engineINS6_26linear_congruential_engineIjLj40014ELj0ELj2147483563EEENS8_IjLj40692ELj0ELj2147483399EEEEEE26stochastic_gradient_ascentERS4_ddiRNS_9callbacks6loggerERNSE_6writerEE8function"
 "_ZZNK4stan11variational4adviIN34model_Exponential_expert_namespace24model_Exponential_expertENS0_16normal_meanfieldEN5boost6random23additive_combine_engineINS6_26linear_congruential_engineIjLj40014ELj0ELj2147483563EEENS8_IjLj40692ELj0ELj2147483399EEEEEE9adapt_etaERS4_iRNS_9callbacks6loggerEE8function"
 "_ZZNK4stan11variational4adviIN34model_Exponential_expert_namespace24model_Exponential_expertENS0_16normal_meanfieldEN5boost6random23additive_combine_engineINS6_26linear_congruential_engineIjLj40014ELj0ELj2147483563EEENS8_IjLj40692ELj0ELj2147483399EEEEEE9calc_ELBOERKS4_RNS_9callbacks6loggerEE8function"
 "_ZZNK5rstan8stan_fitIN34model_Exponential_expert_namespace24model_Exponential_expertEN5boost6random23additive_combine_engineINS4_26linear_congruential_engineIjLj40014ELj0ELj2147483563EEENS6_IjLj40692ELj0ELj2147483399EEEEEE10param_dimsEvE8stop_sym"
 "_ZZNK5rstan8stan_fitIN34model_Exponential_expert_namespace24model_Exponential_expertEN5boost6random23additive_combine_engineINS4_26linear_congruential_engineIjLj40014ELj0ELj2147483563EEENS6_IjLj40692ELj0ELj2147483399EEEEEE11param_namesEvE8stop_sym"
 "_ZZNK5rstan8stan_fitIN34model_Exponential_expert_namespace24model_Exponential_expertEN5boost6random23additive_combine_engineINS4_26linear_congruential_engineIjLj40014ELj0ELj2147483563EEENS6_IjLj40692ELj0ELj2147483399EEEEEE13param_dims_oiEvE8stop_sym"
 "_ZZNK5rstan8stan_fitIN34model_Exponential_expert_namespace24model_Exponential_expertEN5boost6random23additive_combine_engineINS4_26linear_congruential_engineIjLj40014ELj0ELj2147483563EEENS6_IjLj40692ELj0ELj2147483399EEEEEE14param_names_oiEvE8stop_sym"
 "_ZZNK5rstan8stan_fitIN34model_Exponential_expert_namespace24model_Exponential_expertEN5boost6random23additive_combine_engineINS4_26linear_congruential_engineIjLj40014ELj0ELj2147483563EEENS6_IjLj40692ELj0ELj2147483399EEEEEE15param_fnames_oiEvE8stop_sym"
 "__emutls_t._ZZN4stan4math22AutodiffStackSingletonINS0_4variENS0_15chainable_allocEE4initEvE14is_initialized"
 "__emutls_v._ZN4stan4math22AutodiffStackSingletonINS0_4variENS0_15chainable_allocEE9instance_E"
 "__emutls_v._ZZN4stan4math22AutodiffStackSingletonINS0_4variENS0_15chainable_allocEE4initEvE14is_initialized"
 "_rcpp_module_boot_stan_fit4Exponential_expert_mod"
 "_Z13get_last_callv"
 "_Z14make_conditionRKNSt7__cxx1112basic_stringIcSt11char_traitsIcESaIcEEEP7SEXPRECS8_S8_"
 "_Z19string_to_try_errorRKNSt7__cxx1112basic_stringIcSt11char_traitsIcESaIcEEE"
 "_Z20rcpp_set_stack_traceP7SEXPREC"
 "_Z21get_exception_classesRKNSt7__cxx1112basic_stringIcSt11char_traitsIcESaIcEEE"
 "_Z31exception_to_condition_templateIN4Rcpp9exceptionEEP7SEXPRECRKT_b"
 "_Z31exception_to_condition_templateISt9exceptionEP7SEXPRECRKT_b"
 "_Z40_rcpp_module_stan_fit4RP_expert_mod_initv"
 "_Z7dataptrP7SEXPREC"
 "_ZGVN5boost16exception_detail37exception_ptr_static_exception_objectINS0_10bad_alloc_EE1eE"
 "_ZGVN5boost16exception_detail37exception_ptr_static_exception_objectINS0_14bad_exception_EE1eE"
 "_ZGVN5boost4math6detail15erf_initializerIdNS0_8policies6policyINS3_10pole_errorILNS3_17error_policy_typeE1EEENS3_14overflow_errorILS6_1EEENS3_13promote_floatILb0EEENS3_14promote_doubleILb0EEENS3_14default_policyESE_SE_SE_SE_SE_SE_SE_SE_EENS_17integral_constantIiLi53EEEE11initializerE"
 "_ZGVN5boost4math6detail15erf_initializerIeNS0_8policies6policyINS3_13promote_floatILb0EEENS3_14promote_doubleILb0EEENS3_14default_policyES9_S9_S9_S9_S9_S9_S9_S9_S9_S9_EENS_17integral_constantIiLi64EEEE11initializerE"
 "_ZGVN5boost4math6detail17expm1_initializerIdNS0_8policies6policyINS3_10pole_errorILNS3_17error_policy_typeE1EEENS3_14overflow_errorILS6_1EEENS3_13promote_floatILb0EEENS3_14promote_doubleILb0EEENS3_14default_policyESE_SE_SE_SE_SE_SE_SE_SE_EENS_17integral_constantIiLi53EEEE11initializerE"
 "_ZGVN5boost4math6detail17expm1_initializerIeNS0_8policies6policyINS3_13promote_floatILb0EEENS3_14promote_doubleILb0EEENS3_14default_policyES9_S9_S9_S9_S9_S9_S9_S9_S9_S9_EENS_17integral_constantIiLi64EEEE11initializerE"
 "_ZGVN5boost4math6detail17log1p_initializerIdNS0_8policies6policyINS3_10pole_errorILNS3_17error_policy_typeE1EEENS3_14overflow_errorILS6_1EEENS3_13promote_floatILb0EEENS3_14promote_doubleILb0EEENS3_14default_policyESE_SE_SE_SE_SE_SE_SE_SE_EENS_17integral_constantIiLi53EEEE11initializerE"
 "_ZGVN5boost4math6detail17log1p_initializerIdNS0_8policies6policyINS3_13promote_floatILb0EEENS3_14promote_doubleILb0EEENS3_14default_policyES9_S9_S9_S9_S9_S9_S9_S9_S9_S9_EENS_17integral_constantIiLi53EEEE11initializerE"
 "_ZGVN5boost4math6detail17log1p_initializerIeNS0_8policies6policyINS3_13promote_floatILb0EEENS3_14promote_doubleILb0EEENS3_14default_policyES9_S9_S9_S9_S9_S9_S9_S9_S9_S9_EENS_17integral_constantIiLi64EEEE11initializerE"
 "_ZGVN5boost4math6detail18igamma_initializerIdNS0_8policies6policyINS3_10pole_errorILNS3_17error_policy_typeE1EEENS3_14overflow_errorILS6_1EEENS3_13promote_floatILb0EEENS3_14promote_doubleILb0EEENS3_14default_policyESE_SE_SE_SE_SE_SE_SE_SE_EEE11initializerE"
 "_ZGVN5boost4math6detail18igamma_initializerIeNS0_8policies6policyINS3_13promote_floatILb0EEENS3_14promote_doubleILb0EEENS3_14default_policyES9_S9_S9_S9_S9_S9_S9_S9_S9_S9_EEE11initializerE"
 "_ZGVN5boost4math6detail18lgamma_initializerIdNS0_8policies6policyINS3_10pole_errorILNS3_17error_policy_typeE1EEENS3_14overflow_errorILS6_1EEENS3_13promote_floatILb0EEENS3_14promote_doubleILb0EEENS3_14default_policyESE_SE_SE_SE_SE_SE_SE_SE_EEE11initializerE"
 "_ZGVN5boost4math6detail18lgamma_initializerIeNS0_8policies6policyINS3_13promote_floatILb0EEENS3_14promote_doubleILb0EEENS3_14default_policyES9_S9_S9_S9_S9_S9_S9_S9_S9_S9_EEE11initializerE"
 "_ZGVN5boost4math6detail19digamma_initializerIdNS0_8policies6policyINS3_10pole_errorILNS3_17error_policy_typeE1EEENS3_14overflow_errorILS6_1EEENS3_13promote_floatILb0EEENS3_14promote_doubleILb0EEENS3_14default_policyESE_SE_SE_SE_SE_SE_SE_SE_EEE11initializerE"
 "_ZGVN5boost4math6detail19digamma_initializerIeNS0_8policies6policyINS3_13promote_floatILb0EEENS3_14promote_doubleILb0EEENS3_14default_policyES9_S9_S9_S9_S9_S9_S9_S9_S9_S9_EEE11initializerE"
 "_ZGVN5boost4math6detail19owens_t_initializerIdNS0_8policies6policyINS3_14default_policyES5_S5_S5_S5_S5_S5_S5_S5_S5_S5_S5_S5_EENS_17integral_constantIiLi64EEEE11initializerE"
 "_ZGVN5boost4math6detail21bessel_i0_initializerIeNS_17integral_constantIiLi64EEEE11initializerE"
 "_ZGVN5boost4math6detail21bessel_i1_initializerIeNS_17integral_constantIiLi64EEEE11initializerE"
 "_ZGVN5boost4math6detail21bessel_j0_initializerIeE11initializerE"
 "_ZGVN5boost4math6detail21bessel_j1_initializerIeE11initializerE"
 "_ZGVN5boost4math6detail21bessel_k0_initializerIeNS_17integral_constantIiLi64EEEE11initializerE"
 "_ZGVN5boost4math6detail21bessel_k1_initializerIeNS_17integral_constantIiLi64EEEE11initializerE"
 "_ZGVN5boost4math6detail21bessel_y0_initializerIeNS0_8policies6policyINS3_13promote_floatILb0EEENS3_14promote_doubleILb0EEENS3_14default_policyES9_S9_S9_S9_S9_S9_S9_S9_S9_S9_EEE11initializerE"
 "_ZGVN5boost4math6detail21bessel_y1_initializerIeNS0_8policies6policyINS3_13promote_floatILb0EEENS3_14promote_doubleILb0EEENS3_14default_policyES9_S9_S9_S9_S9_S9_S9_S9_S9_S9_EEE11initializerE"
 "_ZGVN5boost4math7lanczos19lanczos_initializerINS1_12lanczos17m64EeE11initializerE"
 "_ZGVZ15getCurrentScopevE3fun"
 "_ZGVZ15setCurrentScopePN4Rcpp6ModuleEE3fun"
 "_ZGVZ19char_get_string_eltP7SEXPRECxE3fun"
 "_ZGVZ20rcpp_get_stack_tracevE3fun"
 "_ZGVZ20rcpp_set_stack_traceP7SEXPRECE3fun"
 "_ZGVZ7dataptrP7SEXPRECE3fun"
 "_ZGVZ8demangleRKNSt7__cxx1112basic_stringIcSt11char_traitsIcESaIcEEEE3funB5cxx11"
 "_ZGVZN4Rcpp20Rcpp_precious_removeEP7SEXPRECE3fun"
 "_ZGVZN4Rcpp22Rcpp_precious_preserveEP7SEXPRECE3fun"
 "_ZGVZN4Rcpp6class_IN5rstan8stan_fitIN25model_RP_expert_namespace15model_RP_expertEN5boost6random23additive_combine_engineINS6_26linear_congruential_engineIjLj40014ELj0ELj2147483563EEENS8_IjLj40692ELj0ELj2147483399EEEEEEEE11getPropertyEP7SEXPRECSF_E8stop_sym"
 "_ZGVZN4Rcpp6class_IN5rstan8stan_fitIN25model_RP_expert_namespace15model_RP_expertEN5boost6random23additive_combine_engineINS6_26linear_congruential_engineIjLj40014ELj0ELj2147483563EEENS8_IjLj40692ELj0ELj2147483399EEEEEEEE11invoke_voidEP7SEXPRECSF_PSF_iE8stop_sym"
 "_ZGVZN4Rcpp6class_IN5rstan8stan_fitIN25model_RP_expert_namespace15model_RP_expertEN5boost6random23additive_combine_engineINS6_26linear_congruential_engineIjLj40014ELj0ELj2147483563EEENS8_IjLj40692ELj0ELj2147483399EEEEEEEE11newInstanceEPP7SEXPRECiE8stop_sym"
 "_ZGVZN4Rcpp6class_IN5rstan8stan_fitIN25model_RP_expert_namespace15model_RP_expertEN5boost6random23additive_combine_engineINS6_26linear_congruential_engineIjLj40014ELj0ELj2147483563EEENS8_IjLj40692ELj0ELj2147483399EEEEEEEE11setPropertyEP7SEXPRECSF_SF_E8stop_sym"
 "_ZGVZN4Rcpp6class_IN5rstan8stan_fitIN25model_RP_expert_namespace15model_RP_expertEN5boost6random23additive_combine_engineINS6_26linear_congruential_engineIjLj40014ELj0ELj2147483563EEENS8_IjLj40692ELj0ELj2147483399EEEEEEEE14invoke_notvoidEP7SEXPRECSF_PSF_iE8stop_sym"
 "_ZGVZN4Rcpp6class_IN5rstan8stan_fitIN25model_RP_expert_namespace15model_RP_expertEN5boost6random23additive_combine_engineINS6_26linear_congruential_engineIjLj40014ELj0ELj2147483563EEENS8_IjLj40692ELj0ELj2147483399EEEEEEEE6invokeEP7SEXPRECSF_PSF_iE8stop_sym"
 "_ZGVZN4Rcpp8internal18get_Rcpp_namespaceEvE3fun"
 "_ZGVZN5Eigen8internal20manage_caching_sizesENS_6ActionEPxS2_S2_E12m_cacheSizes"
 "_ZGVZN5Eigen8internal4pexpIDv2_dEET_RKS3_E10p4i_1023_0"
 "_ZGVZN5boost16exception_detail27get_static_exception_objectINS0_10bad_alloc_EEENS_13exception_ptrEvE2ep"
 "_ZGVZN5boost16exception_detail27get_static_exception_objectINS0_14bad_exception_EEENS_13exception_ptrEvE2ep"
 "_ZGVZN5rstan8stan_fitIN25model_RP_expert_namespace15model_RP_expertEN5boost6random23additive_combine_engineINS4_26linear_congruential_engineIjLj40014ELj0ELj2147483563EEENS6_IjLj40692ELj0ELj2147483399EEEEEE12call_samplerEP7SEXPRECE8stop_sym"
 "_ZGVZN5rstan8stan_fitIN25model_RP_expert_namespace15model_RP_expertEN5boost6random23additive_combine_engineINS4_26linear_congruential_engineIjLj40014ELj0ELj2147483563EEENS6_IjLj40692ELj0ELj2147483399EEEEEE13grad_log_probEP7SEXPRECSC_E8stop_sym"
 "_ZGVZN5rstan8stan_fitIN25model_RP_expert_namespace15model_RP_expertEN5boost6random23additive_combine_engineINS4_26linear_congruential_engineIjLj40014ELj0ELj2147483563EEENS6_IjLj40692ELj0ELj2147483399EEEEEE13param_oi_tidxEP7SEXPRECE8stop_sym"
 "_ZGVZN5rstan8stan_fitIN25model_RP_expert_namespace15model_RP_expertEN5boost6random23additive_combine_engineINS4_26linear_congruential_engineIjLj40014ELj0ELj2147483563EEENS6_IjLj40692ELj0ELj2147483399EEEEEE14constrain_parsEP7SEXPRECE8stop_sym"
 "_ZGVZN5rstan8stan_fitIN25model_RP_expert_namespace15model_RP_expertEN5boost6random23additive_combine_engineINS4_26linear_congruential_engineIjLj40014ELj0ELj2147483563EEENS6_IjLj40692ELj0ELj2147483399EEEEEE14standalone_gqsEP7SEXPRECSC_E8stop_sym"
 "_ZGVZN5rstan8stan_fitIN25model_RP_expert_namespace15model_RP_expertEN5boost6random23additive_combine_engineINS4_26linear_congruential_engineIjLj40014ELj0ELj2147483563EEENS6_IjLj40692ELj0ELj2147483399EEEEEE16unconstrain_parsEP7SEXPRECE8stop_sym"
 "_ZGVZN5rstan8stan_fitIN25model_RP_expert_namespace15model_RP_expertEN5boost6random23additive_combine_engineINS4_26linear_congruential_engineIjLj40014ELj0ELj2147483563EEENS6_IjLj40692ELj0ELj2147483399EEEEEE22num_pars_unconstrainedEvE8stop_sym"
 "_ZGVZN5rstan8stan_fitIN25model_RP_expert_namespace15model_RP_expertEN5boost6random23additive_combine_engineINS4_26linear_congruential_engineIjLj40014ELj0ELj2147483563EEENS6_IjLj40692ELj0ELj2147483399EEEEEE23constrained_param_namesEP7SEXPRECSC_E8stop_sym"
 "_ZGVZN5rstan8stan_fitIN25model_RP_expert_namespace15model_RP_expertEN5boost6random23additive_combine_engineINS4_26linear_congruential_engineIjLj40014ELj0ELj2147483563EEENS6_IjLj40692ELj0ELj2147483399EEEEEE25unconstrained_param_namesEP7SEXPRECSC_E8stop_sym"
 "_ZGVZN5rstan8stan_fitIN25model_RP_expert_namespace15model_RP_expertEN5boost6random23additive_combine_engineINS4_26linear_congruential_engineIjLj40014ELj0ELj2147483563EEENS6_IjLj40692ELj0ELj2147483399EEEEEE8log_probEP7SEXPRECSC_SC_E8stop_sym"
 "_ZGVZNK4stan11variational15normal_fullrank7entropyEvE4mult"
 "_ZGVZNK5rstan8stan_fitIN25model_RP_expert_namespace15model_RP_expertEN5boost6random23additive_combine_engineINS4_26linear_congruential_engineIjLj40014ELj0ELj2147483563EEENS6_IjLj40692ELj0ELj2147483399EEEEEE10param_dimsEvE8stop_sym"
 "_ZGVZNK5rstan8stan_fitIN25model_RP_expert_namespace15model_RP_expertEN5boost6random23additive_combine_engineINS4_26linear_congruential_engineIjLj40014ELj0ELj2147483563EEENS6_IjLj40692ELj0ELj2147483399EEEEEE11param_namesEvE8stop_sym"
 "_ZGVZNK5rstan8stan_fitIN25model_RP_expert_namespace15model_RP_expertEN5boost6random23additive_combine_engineINS4_26linear_congruential_engineIjLj40014ELj0ELj2147483563EEENS6_IjLj40692ELj0ELj2147483399EEEEEE13param_dims_oiEvE8stop_sym"
 "_ZGVZNK5rstan8stan_fitIN25model_RP_expert_namespace15model_RP_expertEN5boost6random23additive_combine_engineINS4_26linear_congruential_engineIjLj40014ELj0ELj2147483563EEENS6_IjLj40692ELj0ELj2147483399EEEEEE14param_names_oiEvE8stop_sym"
 "_ZGVZNK5rstan8stan_fitIN25model_RP_expert_namespace15model_RP_expertEN5boost6random23additive_combine_engineINS4_26linear_congruential_engineIjLj40014ELj0ELj2147483563EEENS6_IjLj40692ELj0ELj2147483399EEEEEE15param_fnames_oiEvE8stop_sym"
 "_ZN10tinyformat6detail10formatImplERSoPKcPKNS0_9FormatArgEi"
 "_ZN10tinyformat6detail15formatTruncatedINSt7__cxx1112basic_stringIcSt11char_traitsIcESaIcEEEEEvRSoRKT_i"
 "_ZN10tinyformat6detail15formatTruncatedIiEEvRSoRKT_i"
 "_ZN10tinyformat6detail21streamStateFromFormatERSoRbRiPKcPKNS0_9FormatArgES3_i"
 "_ZN10tinyformat6detail9FormatArg10formatImplINSt7__cxx1112basic_stringIcSt11char_traitsIcESaIcEEEEEvRSoPKcSB_iPKv"
 "_ZN10tinyformat6detail9FormatArg10formatImplIPKcEEvRSoS4_S4_iPKv"
 "_ZN10tinyformat6detail9FormatArg10formatImplIiEEvRSoPKcS5_iPKv"
 "_ZN10tinyformat6detail9FormatArg9toIntImplINSt7__cxx1112basic_stringIcSt11char_traitsIcESaIcEEEEEiPKv"
 "_ZN10tinyformat6detail9FormatArg9toIntImplIPKcEEiPKv"
 "_ZN10tinyformat6detail9FormatArg9toIntImplIiEEiPKv"
 "_ZN10tinyformat6formatIJEEENSt7__cxx1112basic_stringIcSt11char_traitsIcESaIcEEEPKcDpRKT_"
 "_ZN10tinyformat6formatIJNSt7__cxx1112basic_stringIcSt11char_traitsIcESaIcEEEEEES6_PKcDpRKT_"
 "_ZN10tinyformat6formatIJPKcEEENSt7__cxx1112basic_stringIcSt11char_traitsIcESaIcEEES2_DpRKT_"
 "_ZN10tinyformat6formatIJPKcS2_EEENSt7__cxx1112basic_stringIcSt11char_traitsIcESaIcEEES2_DpRKT_"
 "_ZN10tinyformat6formatIJPKciEEENSt7__cxx1112basic_stringIcSt11char_traitsIcESaIcEEES2_DpRKT_"
 "_ZN10tinyformat6formatIJiEEENSt7__cxx1112basic_stringIcSt11char_traitsIcESaIcEEEPKcDpRKT_"
 "_ZN25model_RP_expert_namespace13prog_reader__Ev"
 "_ZN25model_RP_expert_namespace15model_RP_expert9ctor_bodyERN4stan2io11var_contextEjPSo"
 "_ZN25model_RP_expert_namespace15model_RP_expertD0Ev"
 "_ZN25model_RP_expert_namespace15model_RP_expertD1Ev"
 "_ZN25model_RP_expert_namespace16log_density_distIdN4stan4math3varEEEN5boost4math5tools12promote_argsIT_T0_ffffE4typeERKSt6vectorISC_IS8_SaIS8_EESaISE_EERKS9_RKiSM_PSo"
 "_ZN25model_RP_expert_namespace16log_density_distIddEEN5boost4math5tools12promote_argsIT_T0_ffffE4typeERKSt6vectorIS9_IS5_SaIS5_EESaISB_EERKS6_RKiSJ_PSo"
 "_ZN25model_RP_expert_namespace4SindIN4stan4math3varEdS3_EEN5boost4math5tools12promote_argsIT_T0_T1_fffE4typeERKN5Eigen6MatrixIS8_Lin1ELi1ELi0ELin1ELi1EEERKNSE_IS9_Li1ELin1ELi1ELi1ELin1EEERKSA_PSo"
 "_ZN25model_RP_expert_namespace4SindIdddEEN5boost4math5tools12promote_argsIT_T0_T1_fffE4typeERKN5Eigen6MatrixIS5_Lin1ELi1ELi0ELin1ELi1EEERKNSB_IS6_Li1ELin1ELi1ELi1ELin1EEERKS7_PSo"
 "_ZN25model_RP_expert_namespace8rps_lpdfILb0EddN4stan4math3varEddS3_dEEN5boost4math5tools12promote_argsIT0_T1_T2_T3_NS7_IT4_T5_T6_fffE4typeEfE4typeERKN5Eigen6MatrixIS8_Lin1ELi1ELi0ELin1ELi1EEERKNSK_IS9_Lin1ELi1ELi0ELin1ELi1EEERKNSK_ISA_Lin1ELi1ELi0ELin1ELi1EEERKNSK_ISB_Lin1ELin1ELi0ELin1ELin1EEERKNSK_ISC_Lin1ELin1ELi0ELin1ELin1EEERKNSK_ISD_Lin1ELi1ELi0ELin1ELi1EEERKNSK_ISE_Lin1ELi1ELi0ELin1ELi1EEEPSo"
 "_ZN25model_RP_expert_namespace8rps_lpdfILb0EdddddddEEN5boost4math5tools12promote_argsIT0_T1_T2_T3_NS4_IT4_T5_T6_fffE4typeEfE4typeERKN5Eigen6MatrixIS5_Lin1ELi1ELi0ELin1ELi1EEERKNSH_IS6_Lin1ELi1ELi0ELin1ELi1EEERKNSH_IS7_Lin1ELi1ELi0ELin1ELi1EEERKNSH_IS8_Lin1ELin1ELi0ELin1ELin1EEERKNSH_IS9_Lin1ELin1ELi0ELin1ELin1EEERKNSH_ISA_Lin1ELi1ELi0ELin1ELi1EEERKNSH_ISB_Lin1ELi1ELi0ELin1ELi1EEEPSo"
 "_ZN25model_RP_expert_namespace8rps_lpdfILb1EddN4stan4math3varEddS3_dEEN5boost4math5tools12promote_argsIT0_T1_T2_T3_NS7_IT4_T5_T6_fffE4typeEfE4typeERKN5Eigen6MatrixIS8_Lin1ELi1ELi0ELin1ELi1EEERKNSK_IS9_Lin1ELi1ELi0ELin1ELi1EEERKNSK_ISA_Lin1ELi1ELi0ELin1ELi1EEERKNSK_ISB_Lin1ELin1ELi0ELin1ELin1EEERKNSK_ISC_Lin1ELin1ELi0ELin1ELin1EEERKNSK_ISD_Lin1ELi1ELi0ELin1ELi1EEERKNSK_ISE_Lin1ELi1ELi0ELin1ELi1EEEPSo"
 "_ZN25model_RP_expert_namespace8rps_lpdfILb1EdddddddEEN5boost4math5tools12promote_argsIT0_T1_T2_T3_NS4_IT4_T5_T6_fffE4typeEfE4typeERKN5Eigen6MatrixIS5_Lin1ELi1ELi0ELin1ELi1EEERKNSH_IS6_Lin1ELi1ELi0ELin1ELi1EEERKNSH_IS7_Lin1ELi1ELi0ELin1ELi1EEERKNSH_IS8_Lin1ELin1ELi0ELin1ELin1EEERKNSH_IS9_Lin1ELin1ELi0ELin1ELin1EEERKNSH_ISA_Lin1ELi1ELi0ELin1ELi1EEERKNSH_ISB_Lin1ELi1ELi0ELin1ELi1EEEPSo"
 "_ZN3tbb10interface623task_scheduler_observerD0Ev"
 "_ZN3tbb10interface623task_scheduler_observerD1Ev"
 "_ZN3tbb8internal26task_scheduler_observer_v317on_scheduler_exitEb"
 "_ZN3tbb8internal26task_scheduler_observer_v318on_scheduler_entryEb"
 "_ZN3tbb8internal26task_scheduler_observer_v3D0Ev"
 "_ZN3tbb8internal26task_scheduler_observer_v3D1Ev"
 "_ZN4Rcpp10CppMethod0IN5rstan8stan_fitIN25model_RP_expert_namespace15model_RP_expertEN5boost6random23additive_combine_engineINS6_26linear_congruential_engineIjLj40014ELj0ELj2147483563EEENS8_IjLj40692ELj0ELj2147483399EEEEEEEP7SEXPRECE5nargsEv"
 "_ZN4Rcpp10CppMethod0IN5rstan8stan_fitIN25model_RP_expert_namespace15model_RP_expertEN5boost6random23additive_combine_engineINS6_26linear_congruential_engineIjLj40014ELj0ELj2147483563EEENS8_IjLj40692ELj0ELj2147483399EEEEEEEP7SEXPRECE7is_voidEv"
 "_ZN4Rcpp10CppMethod0IN5rstan8stan_fitIN25model_RP_expert_namespace15model_RP_expertEN5boost6random23additive_combine_engineINS6_26linear_congruential_engineIjLj40014ELj0ELj2147483563EEENS8_IjLj40692ELj0ELj2147483399EEEEEEEP7SEXPRECE8is_constEv"
 "_ZN4Rcpp10CppMethod0IN5rstan8stan_fitIN25model_RP_expert_namespace15model_RP_expertEN5boost6random23additive_combine_engineINS6_26linear_congruential_engineIjLj40014ELj0ELj2147483563EEENS8_IjLj40692ELj0ELj2147483399EEEEEEEP7SEXPRECE9signatureERNSt7__cxx1112basic_stringIcSt11char_traitsIcESaIcEEEPKc"
 "_ZN4Rcpp10CppMethod0IN5rstan8stan_fitIN25model_RP_expert_namespace15model_RP_expertEN5boost6random23additive_combine_engineINS6_26linear_congruential_engineIjLj40014ELj0ELj2147483563EEENS8_IjLj40692ELj0ELj2147483399EEEEEEEP7SEXPRECED0Ev"
 "_ZN4Rcpp10CppMethod0IN5rstan8stan_fitIN25model_RP_expert_namespace15model_RP_expertEN5boost6random23additive_combine_engineINS6_26linear_congruential_engineIjLj40014ELj0ELj2147483563EEENS8_IjLj40692ELj0ELj2147483399EEEEEEEP7SEXPRECED1Ev"
 "_ZN4Rcpp10CppMethod0IN5rstan8stan_fitIN25model_RP_expert_namespace15model_RP_expertEN5boost6random23additive_combine_engineINS6_26linear_congruential_engineIjLj40014ELj0ELj2147483563EEENS8_IjLj40692ELj0ELj2147483399EEEEEEEP7SEXPRECEclEPSC_PSE_"
 "_ZN4Rcpp10CppMethod1IN5rstan8stan_fitIN25model_RP_expert_namespace15model_RP_expertEN5boost6random23additive_combine_engineINS6_26linear_congruential_engineIjLj40014ELj0ELj2147483563EEENS8_IjLj40692ELj0ELj2147483399EEEEEEEP7SEXPRECSE_E5nargsEv"
 "_ZN4Rcpp10CppMethod1IN5rstan8stan_fitIN25model_RP_expert_namespace15model_RP_expertEN5boost6random23additive_combine_engineINS6_26linear_congruential_engineIjLj40014ELj0ELj2147483563EEENS8_IjLj40692ELj0ELj2147483399EEEEEEEP7SEXPRECSE_E7is_voidEv"
 "_ZN4Rcpp10CppMethod1IN5rstan8stan_fitIN25model_RP_expert_namespace15model_RP_expertEN5boost6random23additive_combine_engineINS6_26linear_congruential_engineIjLj40014ELj0ELj2147483563EEENS8_IjLj40692ELj0ELj2147483399EEEEEEEP7SEXPRECSE_E8is_constEv"
 "_ZN4Rcpp10CppMethod1IN5rstan8stan_fitIN25model_RP_expert_namespace15model_RP_expertEN5boost6random23additive_combine_engineINS6_26linear_congruential_engineIjLj40014ELj0ELj2147483563EEENS8_IjLj40692ELj0ELj2147483399EEEEEEEP7SEXPRECSE_E9signatureERNSt7__cxx1112basic_stringIcSt11char_traitsIcESaIcEEEPKc"
 "_ZN4Rcpp10CppMethod1IN5rstan8stan_fitIN25model_RP_expert_namespace15model_RP_expertEN5boost6random23additive_combine_engineINS6_26linear_congruential_engineIjLj40014ELj0ELj2147483563EEENS8_IjLj40692ELj0ELj2147483399EEEEEEEP7SEXPRECSE_ED0Ev"
 "_ZN4Rcpp10CppMethod1IN5rstan8stan_fitIN25model_RP_expert_namespace15model_RP_expertEN5boost6random23additive_combine_engineINS6_26linear_congruential_engineIjLj40014ELj0ELj2147483563EEENS8_IjLj40692ELj0ELj2147483399EEEEEEEP7SEXPRECSE_ED1Ev"
 "_ZN4Rcpp10CppMethod1IN5rstan8stan_fitIN25model_RP_expert_namespace15model_RP_expertEN5boost6random23additive_combine_engineINS6_26linear_congruential_engineIjLj40014ELj0ELj2147483563EEENS8_IjLj40692ELj0ELj2147483399EEEEEEEP7SEXPRECSE_EclEPSC_PSE_"
 "_ZN4Rcpp10CppMethod2IN5rstan8stan_fitIN25model_RP_expert_namespace15model_RP_expertEN5boost6random23additive_combine_engineINS6_26linear_congruential_engineIjLj40014ELj0ELj2147483563EEENS8_IjLj40692ELj0ELj2147483399EEEEEEEP7SEXPRECSE_SE_E5nargsEv"
 "_ZN4Rcpp10CppMethod2IN5rstan8stan_fitIN25model_RP_expert_namespace15model_RP_expertEN5boost6random23additive_combine_engineINS6_26linear_congruential_engineIjLj40014ELj0ELj2147483563EEENS8_IjLj40692ELj0ELj2147483399EEEEEEEP7SEXPRECSE_SE_E7is_voidEv"
 "_ZN4Rcpp10CppMethod2IN5rstan8stan_fitIN25model_RP_expert_namespace15model_RP_expertEN5boost6random23additive_combine_engineINS6_26linear_congruential_engineIjLj40014ELj0ELj2147483563EEENS8_IjLj40692ELj0ELj2147483399EEEEEEEP7SEXPRECSE_SE_E8is_constEv"
 "_ZN4Rcpp10CppMethod2IN5rstan8stan_fitIN25model_RP_expert_namespace15model_RP_expertEN5boost6random23additive_combine_engineINS6_26linear_congruential_engineIjLj40014ELj0ELj2147483563EEENS8_IjLj40692ELj0ELj2147483399EEEEEEEP7SEXPRECSE_SE_E9signatureERNSt7__cxx1112basic_stringIcSt11char_traitsIcESaIcEEEPKc"
 "_ZN4Rcpp10CppMethod2IN5rstan8stan_fitIN25model_RP_expert_namespace15model_RP_expertEN5boost6random23additive_combine_engineINS6_26linear_congruential_engineIjLj40014ELj0ELj2147483563EEENS8_IjLj40692ELj0ELj2147483399EEEEEEEP7SEXPRECSE_SE_ED0Ev"
 "_ZN4Rcpp10CppMethod2IN5rstan8stan_fitIN25model_RP_expert_namespace15model_RP_expertEN5boost6random23additive_combine_engineINS6_26linear_congruential_engineIjLj40014ELj0ELj2147483563EEENS8_IjLj40692ELj0ELj2147483399EEEEEEEP7SEXPRECSE_SE_ED1Ev"
 "_ZN4Rcpp10CppMethod2IN5rstan8stan_fitIN25model_RP_expert_namespace15model_RP_expertEN5boost6random23additive_combine_engineINS6_26linear_congruential_engineIjLj40014ELj0ELj2147483563EEENS8_IjLj40692ELj0ELj2147483399EEEEEEEP7SEXPRECSE_SE_EclEPSC_PSE_"
 "_ZN4Rcpp10CppMethod3IN5rstan8stan_fitIN25model_RP_expert_namespace15model_RP_expertEN5boost6random23additive_combine_engineINS6_26linear_congruential_engineIjLj40014ELj0ELj2147483563EEENS8_IjLj40692ELj0ELj2147483399EEEEEEEP7SEXPRECSE_SE_SE_E5nargsEv"
 "_ZN4Rcpp10CppMethod3IN5rstan8stan_fitIN25model_RP_expert_namespace15model_RP_expertEN5boost6random23additive_combine_engineINS6_26linear_congruential_engineIjLj40014ELj0ELj2147483563EEENS8_IjLj40692ELj0ELj2147483399EEEEEEEP7SEXPRECSE_SE_SE_E7is_voidEv"
 "_ZN4Rcpp10CppMethod3IN5rstan8stan_fitIN25model_RP_expert_namespace15model_RP_expertEN5boost6random23additive_combine_engineINS6_26linear_congruential_engineIjLj40014ELj0ELj2147483563EEENS8_IjLj40692ELj0ELj2147483399EEEEEEEP7SEXPRECSE_SE_SE_E8is_constEv"
 "_ZN4Rcpp10CppMethod3IN5rstan8stan_fitIN25model_RP_expert_namespace15model_RP_expertEN5boost6random23additive_combine_engineINS6_26linear_congruential_engineIjLj40014ELj0ELj2147483563EEENS8_IjLj40692ELj0ELj2147483399EEEEEEEP7SEXPRECSE_SE_SE_E9signatureERNSt7__cxx1112basic_stringIcSt11char_traitsIcESaIcEEEPKc"
 "_ZN4Rcpp10CppMethod3IN5rstan8stan_fitIN25model_RP_expert_namespace15model_RP_expertEN5boost6random23additive_combine_engineINS6_26linear_congruential_engineIjLj40014ELj0ELj2147483563EEENS8_IjLj40692ELj0ELj2147483399EEEEEEEP7SEXPRECSE_SE_SE_ED0Ev"
 "_ZN4Rcpp10CppMethod3IN5rstan8stan_fitIN25model_RP_expert_namespace15model_RP_expertEN5boost6random23additive_combine_engineINS6_26linear_congruential_engineIjLj40014ELj0ELj2147483563EEENS8_IjLj40692ELj0ELj2147483399EEEEEEEP7SEXPRECSE_SE_SE_ED1Ev"
 "_ZN4Rcpp10CppMethod3IN5rstan8stan_fitIN25model_RP_expert_namespace15model_RP_expertEN5boost6random23additive_combine_engineINS6_26linear_congruential_engineIjLj40014ELj0ELj2147483563EEENS8_IjLj40692ELj0ELj2147483399EEEEEEEP7SEXPRECSE_SE_SE_EclEPSC_PSE_"
 "_ZN4Rcpp10RstreambufILb0EE4syncEv"
 "_ZN4Rcpp10RstreambufILb0EE6xsputnEPKcx"
 "_ZN4Rcpp10RstreambufILb0EE8overflowEi"
 "_ZN4Rcpp10RstreambufILb0EED0Ev"
 "_ZN4Rcpp10RstreambufILb0EED1Ev"
 "_ZN4Rcpp10RstreambufILb1EE4syncEv"
 "_ZN4Rcpp10RstreambufILb1EE6xsputnEPKcx"
 "_ZN4Rcpp10RstreambufILb1EE8overflowEi"
 "_ZN4Rcpp10RstreambufILb1EED0Ev"
 "_ZN4Rcpp10RstreambufILb1EED1Ev"
 "_ZN4Rcpp10class_Base10getMethodsERKNS_4XPtrIS0_NS_15PreserveStorageEXadL_ZNS_25standard_delete_finalizerIS0_EEvPT_EELb0EEERNSt7__cxx1112basic_stringIcSt11char_traitsIcESaIcEEE"
 "_ZN4Rcpp10class_Base10has_methodERKNSt7__cxx1112basic_stringIcSt11char_traitsIcESaIcEEE"
 "_ZN4Rcpp10class_Base11getPropertyEP7SEXPRECS2_"
 "_ZN4Rcpp10class_Base11invoke_voidEP7SEXPRECS2_PS2_i"
 "_ZN4Rcpp10class_Base11newInstanceEPP7SEXPRECi"
 "_ZN4Rcpp10class_Base11setPropertyEP7SEXPRECS2_S2_"
 "_ZN4Rcpp10class_Base12has_propertyERKNSt7__cxx1112basic_stringIcSt11char_traitsIcESaIcEEE"
 "_ZN4Rcpp10class_Base12method_namesEv"
 "_ZN4Rcpp10class_Base13methods_arityEv"
 "_ZN4Rcpp10class_Base13run_finalizerEP7SEXPREC"
 "_ZN4Rcpp10class_Base14invoke_notvoidEP7SEXPRECS2_PS2_i"
 "_ZN4Rcpp10class_Base14property_classERKNSt7__cxx1112basic_stringIcSt11char_traitsIcESaIcEEE"
 "_ZN4Rcpp10class_Base14property_namesEv"
 "_ZN4Rcpp10class_Base15getConstructorsERKNS_4XPtrIS0_NS_15PreserveStorageEXadL_ZNS_25standard_delete_finalizerIS0_EEvPT_EELb0EEERNSt7__cxx1112basic_stringIcSt11char_traitsIcESaIcEEE"
 "_ZN4Rcpp10class_Base16methods_voidnessEv"
 "_ZN4Rcpp10class_Base16property_classesEv"
 "_ZN4Rcpp10class_Base17get_typeinfo_nameB5cxx11Ev"
 "_ZN4Rcpp10class_Base20property_is_readonlyERKNSt7__cxx1112basic_stringIcSt11char_traitsIcESaIcEEE"
 "_ZN4Rcpp10class_Base23has_default_constructorEv"
 "_ZN4Rcpp10class_Base6fieldsERKNS_4XPtrIS0_NS_15PreserveStorageEXadL_ZNS_25standard_delete_finalizerIS0_EEvPT_EELb0EEE"
 "_ZN4Rcpp10class_Base6invokeEP7SEXPRECS2_PS2_i"
 "_ZN4Rcpp10class_Base8completeEv"
 "_ZN4Rcpp10class_BaseD0Ev"
 "_ZN4Rcpp10class_BaseD1Ev"
 "_ZN4Rcpp10eval_errorD0Ev"
 "_ZN4Rcpp10eval_errorD1Ev"
 "_ZN4Rcpp11CppPropertyIN5rstan8stan_fitIN25model_RP_expert_namespace15model_RP_expertEN5boost6random23additive_combine_engineINS6_26linear_congruential_engineIjLj40014ELj0ELj2147483563EEENS8_IjLj40692ELj0ELj2147483399EEEEEEEE11is_readonlyEv"
 "_ZN4Rcpp11CppPropertyIN5rstan8stan_fitIN25model_RP_expert_namespace15model_RP_expertEN5boost6random23additive_combine_engineINS6_26linear_congruential_engineIjLj40014ELj0ELj2147483563EEENS8_IjLj40692ELj0ELj2147483399EEEEEEEE3getEPSC_"
 "_ZN4Rcpp11CppPropertyIN5rstan8stan_fitIN25model_RP_expert_namespace15model_RP_expertEN5boost6random23additive_combine_engineINS6_26linear_congruential_engineIjLj40014ELj0ELj2147483563EEENS8_IjLj40692ELj0ELj2147483399EEEEEEEE3setEPSC_P7SEXPREC"
 "_ZN4Rcpp11CppPropertyIN5rstan8stan_fitIN25model_RP_expert_namespace15model_RP_expertEN5boost6random23additive_combine_engineINS6_26linear_congruential_engineIjLj40014ELj0ELj2147483563EEENS8_IjLj40692ELj0ELj2147483399EEEEEEEE9get_classB5cxx11Ev"
 "_ZN4Rcpp11CppPropertyIN5rstan8stan_fitIN25model_RP_expert_namespace15model_RP_expertEN5boost6random23additive_combine_engineINS6_26linear_congruential_engineIjLj40014ELj0ELj2147483563EEENS8_IjLj40692ELj0ELj2147483399EEEEEEEED0Ev"
 "_ZN4Rcpp11CppPropertyIN5rstan8stan_fitIN25model_RP_expert_namespace15model_RP_expertEN5boost6random23additive_combine_engineINS6_26linear_congruential_engineIjLj40014ELj0ELj2147483563EEENS8_IjLj40692ELj0ELj2147483399EEEEEEEED1Ev"
 "_ZN4Rcpp12CppFinalizerIN5rstan8stan_fitIN25model_RP_expert_namespace15model_RP_expertEN5boost6random23additive_combine_engineINS6_26linear_congruential_engineIjLj40014ELj0ELj2147483563EEENS8_IjLj40692ELj0ELj2147483399EEEEEEEE3runEPSC_"
 "_ZN4Rcpp13Constructor_3IN5rstan8stan_fitIN25model_RP_expert_namespace15model_RP_expertEN5boost6random23additive_combine_engineINS6_26linear_congruential_engineIjLj40014ELj0ELj2147483563EEENS8_IjLj40692ELj0ELj2147483399EEEEEEEP7SEXPRECSE_SE_E5nargsEv"
 "_ZN4Rcpp13Constructor_3IN5rstan8stan_fitIN25model_RP_expert_namespace15model_RP_expertEN5boost6random23additive_combine_engineINS6_26linear_congruential_engineIjLj40014ELj0ELj2147483563EEENS8_IjLj40692ELj0ELj2147483399EEEEEEEP7SEXPRECSE_SE_E7get_newEPSE_i"
 "_ZN4Rcpp13Constructor_3IN5rstan8stan_fitIN25model_RP_expert_namespace15model_RP_expertEN5boost6random23additive_combine_engineINS6_26linear_congruential_engineIjLj40014ELj0ELj2147483563EEENS8_IjLj40692ELj0ELj2147483399EEEEEEEP7SEXPRECSE_SE_E9signatureERNSt7__cxx1112basic_stringIcSt11char_traitsIcESaIcEEERKSL_"
 "_ZN4Rcpp13not_referenceD0Ev"
 "_ZN4Rcpp13not_referenceD1Ev"
 "_ZN4Rcpp14Reference_ImplINS_15PreserveStorageEEC2ERKNSt7__cxx1112basic_stringIcSt11char_traitsIcESaIcEEE"
 "_ZN4Rcpp14not_compatibleC1IJPKcEEES3_DpOT_"
 "_ZN4Rcpp14not_compatibleC1IJPKcS3_EEES3_DpOT_"
 "_ZN4Rcpp14not_compatibleC1IJiEEEPKcDpOT_"
 "_ZN4Rcpp14not_compatibleD0Ev"
 "_ZN4Rcpp14not_compatibleD1Ev"
 "_ZN4Rcpp15PreserveStorageINS_6VectorILi19ES0_EEE5set__EP7SEXPREC"
 "_ZN4Rcpp16FieldProxyPolicyINS_14Reference_ImplINS_15PreserveStorageEEEE10FieldProxy3setEP7SEXPREC"
 "_ZN4Rcpp16FieldProxyPolicyINS_14Reference_ImplINS_15PreserveStorageEEEE10FieldProxyaSINS_4XPtrINS_10class_BaseES2_XadL_ZNS_25standard_delete_finalizerIS8_EEvPT_EELb0EEEEERS5_RKSA_"
 "_ZN4Rcpp16FieldProxyPolicyINS_14Reference_ImplINS_15PreserveStorageEEEE10FieldProxyaSINS_6VectorILi10ES2_EEEERS5_RKT_"
 "_ZN4Rcpp16FieldProxyPolicyINS_14Reference_ImplINS_15PreserveStorageEEEE10FieldProxyaSINS_6VectorILi16ES2_EEEERS5_RKT_"
 "_ZN4Rcpp16FieldProxyPolicyINS_14Reference_ImplINS_15PreserveStorageEEEE10FieldProxyaSINSt7__cxx1112basic_stringIcSt11char_traitsIcESaIcEEEEERS5_RKT_"
 "_ZN4Rcpp16FieldProxyPolicyINS_14Reference_ImplINS_15PreserveStorageEEEE10FieldProxyaSIiEERS5_RKT_"
 "_ZN4Rcpp16NamesProxyPolicyINS_6VectorILi19ENS_15PreserveStorageEEEE10NamesProxy3setEP7SEXPREC"
 "_ZN4Rcpp16NamesProxyPolicyINS_6VectorILi19ENS_15PreserveStorageEEEE10NamesProxyaSINS1_ILi16ES2_EEEERS5_RKT_"
 "_ZN4Rcpp16NamesProxyPolicyINS_6VectorILi19ENS_15PreserveStorageEEEE10NamesProxyaSISt6vectorINSt7__cxx1112basic_stringIcSt11char_traitsIcESaIcEEESaISD_EEEERS5_RKT_"
 "_ZN4Rcpp16const_CppMethod0IN5rstan8stan_fitIN25model_RP_expert_namespace15model_RP_expertEN5boost6random23additive_combine_engineINS6_26linear_congruential_engineIjLj40014ELj0ELj2147483563EEENS8_IjLj40692ELj0ELj2147483399EEEEEEEP7SEXPRECE5nargsEv"
 "_ZN4Rcpp16const_CppMethod0IN5rstan8stan_fitIN25model_RP_expert_namespace15model_RP_expertEN5boost6random23additive_combine_engineINS6_26linear_congruential_engineIjLj40014ELj0ELj2147483563EEENS8_IjLj40692ELj0ELj2147483399EEEEEEEP7SEXPRECE7is_voidEv"
 "_ZN4Rcpp16const_CppMethod0IN5rstan8stan_fitIN25model_RP_expert_namespace15model_RP_expertEN5boost6random23additive_combine_engineINS6_26linear_congruential_engineIjLj40014ELj0ELj2147483563EEENS8_IjLj40692ELj0ELj2147483399EEEEEEEP7SEXPRECE8is_constEv"
 "_ZN4Rcpp16const_CppMethod0IN5rstan8stan_fitIN25model_RP_expert_namespace15model_RP_expertEN5boost6random23additive_combine_engineINS6_26linear_congruential_engineIjLj40014ELj0ELj2147483563EEENS8_IjLj40692ELj0ELj2147483399EEEEEEEP7SEXPRECE9signatureERNSt7__cxx1112basic_stringIcSt11char_traitsIcESaIcEEEPKc"
 "_ZN4Rcpp16const_CppMethod0IN5rstan8stan_fitIN25model_RP_expert_namespace15model_RP_expertEN5boost6random23additive_combine_engineINS6_26linear_congruential_engineIjLj40014ELj0ELj2147483563EEENS8_IjLj40692ELj0ELj2147483399EEEEEEEP7SEXPRECED0Ev"
 "_ZN4Rcpp16const_CppMethod0IN5rstan8stan_fitIN25model_RP_expert_namespace15model_RP_expertEN5boost6random23additive_combine_engineINS6_26linear_congruential_engineIjLj40014ELj0ELj2147483563EEENS8_IjLj40692ELj0ELj2147483399EEEEEEEP7SEXPRECED1Ev"
 "_ZN4Rcpp16const_CppMethod0IN5rstan8stan_fitIN25model_RP_expert_namespace15model_RP_expertEN5boost6random23additive_combine_engineINS6_26linear_congruential_engineIjLj40014ELj0ELj2147483563EEENS8_IjLj40692ELj0ELj2147483399EEEEEEEP7SEXPRECEclEPSC_PSE_"
 "_ZN4Rcpp17S4_CppConstructorIN5rstan8stan_fitIN25model_RP_expert_namespace15model_RP_expertEN5boost6random23additive_combine_engineINS6_26linear_congruential_engineIjLj40014ELj0ELj2147483563EEENS8_IjLj40692ELj0ELj2147483399EEEEEEEEC1EPNS_17SignedConstructorISC_EERKNS_4XPtrINS_10class_BaseENS_15PreserveStorageEXadL_ZNS_25standard_delete_finalizerISI_EEvPT_EELb0EEERKNSt7__cxx1112basic_stringIcSt11char_traitsIcESaIcEEERSV_"
 "_ZN4Rcpp17finalizer_wrapperIN5rstan8stan_fitIN25model_RP_expert_namespace15model_RP_expertEN5boost6random23additive_combine_engineINS6_26linear_congruential_engineIjLj40014ELj0ELj2147483563EEENS8_IjLj40692ELj0ELj2147483399EEEEEEEXadL_ZNS_25standard_delete_finalizerISC_EEvPT_EEEEvP7SEXPREC"
 "_ZN4Rcpp17finalizer_wrapperINS_11CppPropertyIN5rstan8stan_fitIN25model_RP_expert_namespace15model_RP_expertEN5boost6random23additive_combine_engineINS7_26linear_congruential_engineIjLj40014ELj0ELj2147483563EEENS9_IjLj40692ELj0ELj2147483399EEEEEEEEEXadL_ZNS_25standard_delete_finalizerISE_EEvPT_EEEEvP7SEXPREC"
 "_ZN4Rcpp17finalizer_wrapperINS_17SignedConstructorIN5rstan8stan_fitIN25model_RP_expert_namespace15model_RP_expertEN5boost6random23additive_combine_engineINS7_26linear_congruential_engineIjLj40014ELj0ELj2147483563EEENS9_IjLj40692ELj0ELj2147483399EEEEEEEEEXadL_ZNS_25standard_delete_finalizerISE_EEvPT_EEEEvP7SEXPREC"
 "_ZN4Rcpp17finalizer_wrapperINS_6ModuleEXadL_ZNS_25standard_delete_finalizerIS1_EEvPT_EEEEvP7SEXPREC"
 "_ZN4Rcpp17finalizer_wrapperISt6vectorIPNS_12SignedMethodIN5rstan8stan_fitIN25model_RP_expert_namespace15model_RP_expertEN5boost6random23additive_combine_engineINS8_26linear_congruential_engineIjLj40014ELj0ELj2147483563EEENSA_IjLj40692ELj0ELj2147483399EEEEEEEEESaISG_EEXadL_ZNS_25standard_delete_finalizerISI_EEvPT_EEEEvP7SEXPREC"
 "_ZN4Rcpp19index_out_of_boundsD0Ev"
 "_ZN4Rcpp19index_out_of_boundsD1Ev"
 "_ZN4Rcpp20AttributeProxyPolicyINS_6VectorILi19ENS_15PreserveStorageEEEE14AttributeProxy3setEP7SEXPREC"
 "_ZN4Rcpp20AttributeProxyPolicyINS_6VectorILi19ENS_15PreserveStorageEEEE14AttributeProxyaSISt6vectorIdSaIdEEEERS5_RKT_"
 "_ZN4Rcpp20Rcpp_precious_removeEP7SEXPREC"
 "_ZN4Rcpp22Rcpp_precious_preserveEP7SEXPREC"
 "_ZN4Rcpp23S4_CppOverloadedMethodsIN5rstan8stan_fitIN25model_RP_expert_namespace15model_RP_expertEN5boost6random23additive_combine_engineINS6_26linear_congruential_engineIjLj40014ELj0ELj2147483563EEENS8_IjLj40692ELj0ELj2147483399EEEEEEEEC1EPSt6vectorIPNS_12SignedMethodISC_EESaISH_EERKNS_4XPtrINS_10class_BaseENS_15PreserveStorageEXadL_ZNS_25standard_delete_finalizerISM_EEvPT_EELb0EEEPKcRNSt7__cxx1112basic_stringIcSt11char_traitsIcESaIcEEE"
 "_ZN4Rcpp3yesEPP7SEXPRECi"
 "_ZN4Rcpp4XPtrIN5rstan8stan_fitIN25model_RP_expert_namespace15model_RP_expertEN5boost6random23additive_combine_engineINS6_26linear_congruential_engineIjLj40014ELj0ELj2147483563EEENS8_IjLj40692ELj0ELj2147483399EEEEEEENS_15PreserveStorageEXadL_ZNS_25standard_delete_finalizerISC_EEvPT_EELb0EEC1EP7SEXPREC"
 "_ZN4Rcpp4stopERKNSt7__cxx1112basic_stringIcSt11char_traitsIcESaIcEEE"
 "_ZN4Rcpp4stopIJEEEvPKcDpOT_"
 "_ZN4Rcpp6VectorILi14ENS_15PreserveStorageEE16create__dispatchINS_6traits12named_objectIdEES6_EES2_NS4_17integral_constantIbLb1EEERKT_RKT0_"
 "_ZN4Rcpp6VectorILi14ENS_15PreserveStorageEEC1EP7SEXPREC"
 "_ZN4Rcpp6VectorILi19ENS_15PreserveStorageEEC1EP7SEXPREC"
 "_ZN4Rcpp6VectorILi19ENS_15PreserveStorageEEC1IN9__gnu_cxx17__normal_iteratorIPKNS0_ILi14ES1_EESt6vectorIS6_SaIS6_EEEEEET_SD_"
 "_ZN4Rcpp6class_IN5rstan8stan_fitIN25model_RP_expert_namespace15model_RP_expertEN5boost6random23additive_combine_engineINS6_26linear_congruential_engineIjLj40014ELj0ELj2147483563EEENS8_IjLj40692ELj0ELj2147483399EEEEEEEE10getMethodsERKNS_4XPtrINS_10class_BaseENS_15PreserveStorageEXadL_ZNS_25standard_delete_finalizerISF_EEvPT_EELb0EEERNSt7__cxx1112basic_stringIcSt11char_traitsIcESaIcEEE"
 "_ZN4Rcpp6class_IN5rstan8stan_fitIN25model_RP_expert_namespace15model_RP_expertEN5boost6random23additive_combine_engineINS6_26linear_congruential_engineIjLj40014ELj0ELj2147483563EEENS8_IjLj40692ELj0ELj2147483399EEEEEEEE10has_methodERKNSt7__cxx1112basic_stringIcSt11char_traitsIcESaIcEEE"
 "_ZN4Rcpp6class_IN5rstan8stan_fitIN25model_RP_expert_namespace15model_RP_expertEN5boost6random23additive_combine_engineINS6_26linear_congruential_engineIjLj40014ELj0ELj2147483563EEENS8_IjLj40692ELj0ELj2147483399EEEEEEEE11getPropertyEP7SEXPRECSF_"
 "_ZN4Rcpp6class_IN5rstan8stan_fitIN25model_RP_expert_namespace15model_RP_expertEN5boost6random23additive_combine_engineINS6_26linear_congruential_engineIjLj40014ELj0ELj2147483563EEENS8_IjLj40692ELj0ELj2147483399EEEEEEEE11invoke_voidEP7SEXPRECSF_PSF_i"
 "_ZN4Rcpp6class_IN5rstan8stan_fitIN25model_RP_expert_namespace15model_RP_expertEN5boost6random23additive_combine_engineINS6_26linear_congruential_engineIjLj40014ELj0ELj2147483563EEENS8_IjLj40692ELj0ELj2147483399EEEEEEEE11newInstanceEPP7SEXPRECi"
 "_ZN4Rcpp6class_IN5rstan8stan_fitIN25model_RP_expert_namespace15model_RP_expertEN5boost6random23additive_combine_engineINS6_26linear_congruential_engineIjLj40014ELj0ELj2147483563EEENS8_IjLj40692ELj0ELj2147483399EEEEEEEE11setPropertyEP7SEXPRECSF_SF_"
 "_ZN4Rcpp6class_IN5rstan8stan_fitIN25model_RP_expert_namespace15model_RP_expertEN5boost6random23additive_combine_engineINS6_26linear_congruential_engineIjLj40014ELj0ELj2147483563EEENS8_IjLj40692ELj0ELj2147483399EEEEEEEE12get_instanceEv"
 "_ZN4Rcpp6class_IN5rstan8stan_fitIN25model_RP_expert_namespace15model_RP_expertEN5boost6random23additive_combine_engineINS6_26linear_congruential_engineIjLj40014ELj0ELj2147483563EEENS8_IjLj40692ELj0ELj2147483399EEEEEEEE12has_propertyERKNSt7__cxx1112basic_stringIcSt11char_traitsIcESaIcEEE"
 "_ZN4Rcpp6class_IN5rstan8stan_fitIN25model_RP_expert_namespace15model_RP_expertEN5boost6random23additive_combine_engineINS6_26linear_congruential_engineIjLj40014ELj0ELj2147483563EEENS8_IjLj40692ELj0ELj2147483399EEEEEEEE12method_namesEv"
 "_ZN4Rcpp6class_IN5rstan8stan_fitIN25model_RP_expert_namespace15model_RP_expertEN5boost6random23additive_combine_engineINS6_26linear_congruential_engineIjLj40014ELj0ELj2147483563EEENS8_IjLj40692ELj0ELj2147483399EEEEEEEE13methods_arityEv"
 "_ZN4Rcpp6class_IN5rstan8stan_fitIN25model_RP_expert_namespace15model_RP_expertEN5boost6random23additive_combine_engineINS6_26linear_congruential_engineIjLj40014ELj0ELj2147483563EEENS8_IjLj40692ELj0ELj2147483399EEEEEEEE13run_finalizerEP7SEXPREC"
 "_ZN4Rcpp6class_IN5rstan8stan_fitIN25model_RP_expert_namespace15model_RP_expertEN5boost6random23additive_combine_engineINS6_26linear_congruential_engineIjLj40014ELj0ELj2147483563EEENS8_IjLj40692ELj0ELj2147483399EEEEEEEE14invoke_notvoidEP7SEXPRECSF_PSF_i"
 "_ZN4Rcpp6class_IN5rstan8stan_fitIN25model_RP_expert_namespace15model_RP_expertEN5boost6random23additive_combine_engineINS6_26linear_congruential_engineIjLj40014ELj0ELj2147483563EEENS8_IjLj40692ELj0ELj2147483399EEEEEEEE14property_classERKNSt7__cxx1112basic_stringIcSt11char_traitsIcESaIcEEE"
 "_ZN4Rcpp6class_IN5rstan8stan_fitIN25model_RP_expert_namespace15model_RP_expertEN5boost6random23additive_combine_engineINS6_26linear_congruential_engineIjLj40014ELj0ELj2147483563EEENS8_IjLj40692ELj0ELj2147483399EEEEEEEE14property_namesEv"
 "_ZN4Rcpp6class_IN5rstan8stan_fitIN25model_RP_expert_namespace15model_RP_expertEN5boost6random23additive_combine_engineINS6_26linear_congruential_engineIjLj40014ELj0ELj2147483563EEENS8_IjLj40692ELj0ELj2147483399EEEEEEEE15getConstructorsERKNS_4XPtrINS_10class_BaseENS_15PreserveStorageEXadL_ZNS_25standard_delete_finalizerISF_EEvPT_EELb0EEERNSt7__cxx1112basic_stringIcSt11char_traitsIcESaIcEEE"
 "_ZN4Rcpp6class_IN5rstan8stan_fitIN25model_RP_expert_namespace15model_RP_expertEN5boost6random23additive_combine_engineINS6_26linear_congruential_engineIjLj40014ELj0ELj2147483563EEENS8_IjLj40692ELj0ELj2147483399EEEEEEEE16methods_voidnessEv"
 "_ZN4Rcpp6class_IN5rstan8stan_fitIN25model_RP_expert_namespace15model_RP_expertEN5boost6random23additive_combine_engineINS6_26linear_congruential_engineIjLj40014ELj0ELj2147483563EEENS8_IjLj40692ELj0ELj2147483399EEEEEEEE16property_classesEv"
 "_ZN4Rcpp6class_IN5rstan8stan_fitIN25model_RP_expert_namespace15model_RP_expertEN5boost6random23additive_combine_engineINS6_26linear_congruential_engineIjLj40014ELj0ELj2147483563EEENS8_IjLj40692ELj0ELj2147483399EEEEEEEE17get_typeinfo_nameB5cxx11Ev"
 "_ZN4Rcpp6class_IN5rstan8stan_fitIN25model_RP_expert_namespace15model_RP_expertEN5boost6random23additive_combine_engineINS6_26linear_congruential_engineIjLj40014ELj0ELj2147483563EEENS8_IjLj40692ELj0ELj2147483399EEEEEEEE20property_is_readonlyERKNSt7__cxx1112basic_stringIcSt11char_traitsIcESaIcEEE"
 "_ZN4Rcpp6class_IN5rstan8stan_fitIN25model_RP_expert_namespace15model_RP_expertEN5boost6random23additive_combine_engineINS6_26linear_congruential_engineIjLj40014ELj0ELj2147483563EEENS8_IjLj40692ELj0ELj2147483399EEEEEEEE23has_default_constructorEv"
 "_ZN4Rcpp6class_IN5rstan8stan_fitIN25model_RP_expert_namespace15model_RP_expertEN5boost6random23additive_combine_engineINS6_26linear_congruential_engineIjLj40014ELj0ELj2147483563EEENS8_IjLj40692ELj0ELj2147483399EEEEEEEE6fieldsERKNS_4XPtrINS_10class_BaseENS_15PreserveStorageEXadL_ZNS_25standard_delete_finalizerISF_EEvPT_EELb0EEE"
 "_ZN4Rcpp6class_IN5rstan8stan_fitIN25model_RP_expert_namespace15model_RP_expertEN5boost6random23additive_combine_engineINS6_26linear_congruential_engineIjLj40014ELj0ELj2147483563EEENS8_IjLj40692ELj0ELj2147483399EEEEEEEE6invokeEP7SEXPRECSF_PSF_i"
 "_ZN4Rcpp6class_IN5rstan8stan_fitIN25model_RP_expert_namespace15model_RP_expertEN5boost6random23additive_combine_engineINS6_26linear_congruential_engineIjLj40014ELj0ELj2147483563EEENS8_IjLj40692ELj0ELj2147483399EEEEEEEE8completeEv"
 "_ZN4Rcpp6class_IN5rstan8stan_fitIN25model_RP_expert_namespace15model_RP_expertEN5boost6random23additive_combine_engineINS6_26linear_congruential_engineIjLj40014ELj0ELj2147483563EEENS8_IjLj40692ELj0ELj2147483399EEEEEEEE9AddMethodEPKcPNS_9CppMethodISC_EEPFbPP7SEXPRECiESF_"
 "_ZN4Rcpp6class_IN5rstan8stan_fitIN25model_RP_expert_namespace15model_RP_expertEN5boost6random23additive_combine_engineINS6_26linear_congruential_engineIjLj40014ELj0ELj2147483563EEENS8_IjLj40692ELj0ELj2147483399EEEEEEEED0Ev"
 "_ZN4Rcpp6class_IN5rstan8stan_fitIN25model_RP_expert_namespace15model_RP_expertEN5boost6random23additive_combine_engineINS6_26linear_congruential_engineIjLj40014ELj0ELj2147483563EEENS8_IjLj40692ELj0ELj2147483399EEEEEEEED1Ev"
 "_ZN4Rcpp6r_castILi13EEEP7SEXPRECS2_"
 "_ZN4Rcpp6r_castILi14EEEP7SEXPRECS2_"
 "_ZN4Rcpp6r_castILi19EEEP7SEXPRECS2_"
 "_ZN4Rcpp6traits17ContainerExporterISt6vectordE3getEv"
 "_ZN4Rcpp8RostreamILb0EED0Ev"
 "_ZN4Rcpp8RostreamILb0EED1Ev"
 "_ZN4Rcpp8RostreamILb1EED0Ev"
 "_ZN4Rcpp8RostreamILb1EED1Ev"
 "_ZN4Rcpp8internal10basic_castILi10EEEP7SEXPRECS3_"
 "_ZN4Rcpp8internal10basic_castILi13EEEP7SEXPRECS3_"
 "_ZN4Rcpp8internal10basic_castILi14EEEP7SEXPRECS3_"
 "_ZN4Rcpp8internal10resumeJumpEP7SEXPREC"
 "_ZN4Rcpp8internal12primitive_asIbEET_P7SEXPREC"
 "_ZN4Rcpp8internal12primitive_asIdEET_P7SEXPREC"
 "_ZN4Rcpp8internal12primitive_asIiEET_P7SEXPREC"
 "_ZN4Rcpp8internal12primitive_asIjEET_P7SEXPREC"
 "_ZN4Rcpp8internal13r_init_vectorILi14EEEvP7SEXPREC"
 "_ZN4Rcpp8internal19check_single_stringEP7SEXPREC"
 "_ZN4Rcpp8internal20primitive_wrap__implINSt7__cxx1112basic_stringIcSt11char_traitsIcESaIcEEEEEP7SEXPRECRKT_NS_6traits17r_type_string_tagE"
 "_ZN4Rcpp8internal22export_range__dispatchIN9__gnu_cxx17__normal_iteratorIPNSt7__cxx1112basic_stringIcSt11char_traitsIcESaIcEEESt6vectorIS9_SaIS9_EEEES9_EEvP7SEXPRECT_NS_6traits17r_type_string_tagE"
 "_ZN4Rcpp8internal26primitive_wrap__impl__castIbEEP7SEXPRECRKT_NS_6traits17integral_constantIbLb1EEE"
 "_ZN4Rcpp8internal26primitive_wrap__impl__castIiEEP7SEXPRECRKT_NS_6traits17integral_constantIbLb0EEE"
 "_ZN4Rcpp8internal26primitive_wrap__impl__castIjEEP7SEXPRECRKT_NS_6traits17integral_constantIbLb1EEE"
 "_ZN4Rcpp8internal26range_wrap_dispatch___implIN9__gnu_cxx17__normal_iteratorIPKNSt7__cxx1112basic_stringIcSt11char_traitsIcESaIcEEESt6vectorIS9_SaIS9_EEEES9_EEP7SEXPRECT_SI_NS_6traits17r_type_string_tagE"
 "_ZN4Rcpp8internal26range_wrap_dispatch___implISt23_Rb_tree_const_iteratorISt4pairIKNSt7__cxx1112basic_stringIcSt11char_traitsIcESaIcEEEP7SEXPRECEESD_EESC_T_SF_NS_6traits29r_type_pairstring_generic_tagE"
 "_ZN4Rcpp8internal29range_wrap_dispatch___genericIN9__gnu_cxx17__normal_iteratorIPKSt6vectorIjSaIjEES4_IS6_SaIS6_EEEES6_EEP7SEXPRECT_SE_"
 "_ZN4Rcpp8internal34primitive_range_wrap__impl__nocastIN9__gnu_cxx17__normal_iteratorIPKdSt6vectorIdSaIdEEEEdEEP7SEXPRECT_SC_St26random_access_iterator_tag"
 "_ZN4Rcpp8internal3nthEP7SEXPRECi"
 "_ZN4Rcpp9Rcpp_evalEP7SEXPRECS1_"
 "_ZN4Rcpp9exceptionC1EPKcb"
 "_ZN4Rcpp9exceptionD0Ev"
 "_ZN4Rcpp9exceptionD1Ev"
 "_ZN4Rcpp9yes_arityILi1EEEbPP7SEXPRECi"
 "_ZN4Rcpp9yes_arityILi2EEEbPP7SEXPRECi"
 "_ZN4Rcpp9yes_arityILi3EEEbPP7SEXPRECi"
 "_ZN4stan11variational14print_progressEiiiibRKNSt7__cxx1112basic_stringIcSt11char_traitsIcESaIcEEES8_RNS_9callbacks6loggerE"
 "_ZN4stan11variational15normal_fullrank11set_to_zeroEv"
 "_ZN4stan11variational15normal_fullrankC1ERKS1_"
 "_ZN4stan11variational15normal_fullrankC1Ey"
 "_ZN4stan11variational15normal_fullrankmLEd"
 "_ZN4stan11variational15normal_fullrankpLERKS1_"
 "_ZN4stan11variational16normal_meanfield11set_to_zeroEv"
 "_ZN4stan11variational16normal_meanfieldC1ERKS1_"
 "_ZN4stan11variational16normal_meanfieldC1Ey"
 "_ZN4stan11variational16normal_meanfieldpLERKS1_"
 "_ZN4stan12optimization10WolfLSZoomINS0_12ModelAdaptorIN25model_RP_expert_namespace15model_RP_expertEEEdN5Eigen6MatrixIdLin1ELi1ELi0ELin1ELi1EEEEEiRT0_RT1_SA_SC_RT_RKSB_RKS9_SI_SI_SI_SG_S9_S9_S9_S9_S9_S9_SI_"
 "_ZN4stan12optimization11CubicInterpIdEET_RKS2_S4_S4_S4_S4_S4_"
 "_ZN4stan12optimization11LBFGSUpdateIdLin1EE6updateERKN5Eigen6MatrixIdLin1ELi1ELi0ELin1ELi1EEES7_b"
 "_ZN4stan12optimization11newton_stepIN25model_RP_expert_namespace15model_RP_expertEEEdRT_RSt6vectorIdSaIdEERS6_IiSaIiEEPSo"
 "_ZN4stan12optimization12ModelAdaptorIN25model_RP_expert_namespace15model_RP_expertEED1Ev"
 "_ZN4stan12optimization12ModelAdaptorIN25model_RP_expert_namespace15model_RP_expertEEclERKN5Eigen6MatrixIdLin1ELi1ELi0ELin1ELi1EEERdRS7_"
 "_ZN4stan12optimization13BFGSMinimizerINS0_12ModelAdaptorIN25model_RP_expert_namespace15model_RP_expertEEENS0_11LBFGSUpdateIdLin1EEEdLin1EED2Ev"
 "_ZN4stan12optimization13BFGSMinimizerINS0_12ModelAdaptorIN25model_RP_expert_namespace15model_RP_expertEEENS0_15BFGSUpdate_HInvIdLin1EEEdLin1EED2Ev"
 "_ZN4stan12optimization15BFGSUpdate_HInvIdLin1EE6updateERKN5Eigen6MatrixIdLin1ELi1ELi0ELin1ELi1EEES7_b"
 "_ZN4stan12optimization15WolfeLineSearchINS0_12ModelAdaptorIN25model_RP_expert_namespace15model_RP_expertEEEdN5Eigen6MatrixIdLin1ELi1ELi0ELin1ELi1EEEEEiRT_RT0_RT1_SC_SE_RKSD_SG_RKSB_SG_SI_SI_SI_SI_SI_"
 "_ZN4stan2io11dump_reader10scan_charsEPKcb"
 "_ZN4stan2io11dump_reader11scan_doubleEv"
 "_ZN4stan2io11dump_reader11scan_numberEv"
 "_ZN4stan2io11dump_reader14scan_seq_valueEv"
 "_ZN4stan2io11dump_reader17scan_struct_valueEv"
 "_ZN4stan2io11dump_reader18scan_name_unquotedEv"
 "_ZN4stan2io11dump_reader7get_intEv"
 "_ZN4stan2io11dump_reader8scan_dimEv"
 "_ZN4stan2io11dump_reader8scan_intEv"
 "_ZN4stan2io11dump_reader9scan_charEc"
 "_ZN4stan2io13preproc_eventD1Ev"
 "_ZN4stan2io17array_var_contextD0Ev"
 "_ZN4stan2io17array_var_contextD1Ev"
 "_ZN4stan2io17empty_var_contextD0Ev"
 "_ZN4stan2io17empty_var_contextD1Ev"
 "_ZN4stan2io18random_var_contextC1IN25model_RP_expert_namespace15model_RP_expertEN5boost6random23additive_combine_engineINS6_26linear_congruential_engineIjLj40014ELj0ELj2147483563EEENS8_IjLj40692ELj0ELj2147483399EEEEEEERT_RT0_db"
 "_ZN4stan2io18random_var_contextD0Ev"
 "_ZN4stan2io18random_var_contextD1Ev"
 "_ZN4stan2io19chained_var_contextD0Ev"
 "_ZN4stan2io19chained_var_contextD1Ev"
 "_ZN4stan2io4dumpC1ERSi"
 "_ZN4stan2io4dumpD0Ev"
 "_ZN4stan2io4dumpD1Ev"
 "_ZN4stan4lang15rethrow_locatedERKSt9exceptionNSt7__cxx1112basic_stringIcSt11char_traitsIcESaIcEEE"
 "_ZN4stan4lang15rethrow_locatedERKSt9exceptioniRKNS_2io14program_readerE"
 "_ZN4stan4lang17located_exceptionISt10bad_typeidEC1ERKNSt7__cxx1112basic_stringIcSt11char_traitsIcESaIcEEESB_"
 "_ZN4stan4lang17located_exceptionISt10bad_typeidED0Ev"
 "_ZN4stan4lang17located_exceptionISt10bad_typeidED1Ev"
 "_ZN4stan4lang17located_exceptionISt13bad_exceptionEC1ERKNSt7__cxx1112basic_stringIcSt11char_traitsIcESaIcEEESB_"
 "_ZN4stan4lang17located_exceptionISt13bad_exceptionED0Ev"
 "_ZN4stan4lang17located_exceptionISt13bad_exceptionED1Ev"
 "_ZN4stan4lang17located_exceptionISt8bad_castEC1ERKNSt7__cxx1112basic_stringIcSt11char_traitsIcESaIcEEESB_"
 "_ZN4stan4lang17located_exceptionISt8bad_castED0Ev"
 "_ZN4stan4lang17located_exceptionISt8bad_castED1Ev"
 "_ZN4stan4lang17located_exceptionISt9bad_allocEC1ERKNSt7__cxx1112basic_stringIcSt11char_traitsIcESaIcEEESB_"
 "_ZN4stan4lang17located_exceptionISt9bad_allocED0Ev"
 "_ZN4stan4lang17located_exceptionISt9bad_allocED1Ev"
 "_ZN4stan4lang17located_exceptionISt9exceptionEC1ERKNSt7__cxx1112basic_stringIcSt11char_traitsIcESaIcEEESB_"
 "_ZN4stan4lang17located_exceptionISt9exceptionED0Ev"
 "_ZN4stan4lang17located_exceptionISt9exceptionED1Ev"
 "_ZN4stan4math10gamma_lpdfILb0ENS0_3varEddEENS_11return_typeIT0_JT1_T2_EE4typeERKS4_RKS5_RKS6_"
 "_ZN4stan4math10gamma_lpdfILb0EdddEENS_11return_typeIT0_JT1_T2_EE4typeERKS3_RKS4_RKS5_"
 "_ZN4stan4math10sum_v_vari5chainEv"
 "_ZN4stan4math10sum_v_variD0Ev"
 "_ZN4stan4math10sum_v_variD1Ev"
 "_ZN4stan4math11log_sum_expIddEENS_11return_typeIT_JT0_EE4typeERKS4_RKS3_"
 "_ZN4stan4math11normal_lpdfILb0EN5Eigen6MatrixINS0_3varELin1ELi1ELi0ELin1ELi1EEENS3_IdLin1ELi1ELi0ELin1ELi1EEES6_EENS_11return_typeIT0_JT1_T2_EE4typeERKS8_RKS9_RKSA_"
 "_ZN4stan4math11normal_lpdfILb0EN5Eigen6MatrixIdLin1ELi1ELi0ELin1ELi1EEES4_S4_EENS_11return_typeIT0_JT1_T2_EE4typeERKS6_RKS7_RKS8_"
 "_ZN4stan4math11normal_lpdfILb0ENS0_3varEddEENS_11return_typeIT0_JT1_T2_EE4typeERKS4_RKS5_RKS6_"
 "_ZN4stan4math11normal_lpdfILb0EdddEENS_11return_typeIT0_JT1_T2_EE4typeERKS3_RKS4_RKS5_"
 "_ZN4stan4math11normal_lpdfILb1EN5Eigen6MatrixINS0_3varELin1ELi1ELi0ELin1ELi1EEENS3_IdLin1ELi1ELi0ELin1ELi1EEES6_EENS_11return_typeIT0_JT1_T2_EE4typeERKS8_RKS9_RKSA_"
 "_ZN4stan4math11stack_alloc18move_to_next_blockEy"
 "_ZN4stan4math12domain_errorIA1_cEEvPKcS4_RKT_S4_S4_"
 "_ZN4stan4math12domain_errorIA26_cEEvPKcS4_RKT_S4_S4_"
 "_ZN4stan4math12domain_errorINS0_3varEEEvPKcS4_RKT_S4_S4_"
 "_ZN4stan4math12domain_errorIdEEvPKcS3_RKT_S3_S3_"
 "_ZN4stan4math12domain_errorIiEEvPKcS3_RKT_S3_S3_"
 "_ZN4stan4math12domain_errorIyEEvPKcS3_RKT_S3_S3_"
 "_ZN4stan4math12elt_multiplyIdNS0_3varELin1ELi1EEEN5Eigen6MatrixINS_11return_typeIT_JT0_EE4typeEXT1_EXT2_EXorLNS3_14StorageOptionsE0EquaaeqT1_Li1EneT2_Li1ELSA_1EquaaeqT2_Li1EneT1_Li1ELSA_0ELSA_0EEXT1_EXT2_EEERKNS4_IS6_XT1_EXT2_EXorLSA_0EquaaeqT1_Li1EneT2_Li1ELSA_1EquaaeqT2_Li1EneT1_Li1ELSA_0ELSA_0EEXT1_EXT2_EEERKNS4_IS7_XT1_EXT2_EXorLSA_0EquaaeqT1_Li1EneT2_Li1ELSA_1EquaaeqT2_Li1EneT1_Li1ELSA_0ELSA_0EEXT1_EXT2_EEE"
 "_ZN4stan4math12elt_multiplyIddLin1ELi1EEEN5Eigen6MatrixINS_11return_typeIT_JT0_EE4typeEXT1_EXT2_EXorLNS2_14StorageOptionsE0EquaaeqT1_Li1EneT2_Li1ELS9_1EquaaeqT2_Li1EneT1_Li1ELS9_0ELS9_0EEXT1_EXT2_EEERKNS3_IS5_XT1_EXT2_EXorLS9_0EquaaeqT1_Li1EneT2_Li1ELS9_1EquaaeqT2_Li1EneT1_Li1ELS9_0ELS9_0EEXT1_EXT2_EEERKNS3_IS6_XT1_EXT2_EXorLS9_0EquaaeqT1_Li1EneT2_Li1ELS9_1EquaaeqT2_Li1EneT1_Li1ELS9_0ELS9_0EEXT1_EXT2_EEE"
 "_ZN4stan4math12out_of_rangeEPKciiS2_S2_"
 "_ZN4stan4math14check_positiveEPKcS2_S2_i"
 "_ZN4stan4math14lognormal_lpdfILb0ENS0_3varEddEENS_11return_typeIT0_JT1_T2_EE4typeERKS4_RKS5_RKS6_"
 "_ZN4stan4math14lognormal_lpdfILb0EdddEENS_11return_typeIT0_JT1_T2_EE4typeERKS3_RKS4_RKS5_"
 "_ZN4stan4math14student_t_lpdfILb0ENS0_3varEdddEENS_11return_typeIT0_JT1_T2_T3_EE4typeERKS4_RKS5_RKS6_RKS7_"
 "_ZN4stan4math14student_t_lpdfILb0EddddEENS_11return_typeIT0_JT1_T2_T3_EE4typeERKS3_RKS4_RKS5_RKS6_"
 "_ZN4stan4math15chainable_allocD0Ev"
 "_ZN4stan4math16ad_tape_observer17on_scheduler_exitEb"
 "_ZN4stan4math16ad_tape_observer18on_scheduler_entryEb"
 "_ZN4stan4math16ad_tape_observerD0Ev"
 "_ZN4stan4math16ad_tape_observerD1Ev"
 "_ZN4stan4math16check_size_matchIiiEEvPKcS3_T_S3_T0_"
 "_ZN4stan4math16check_size_matchIixEEvPKcS3_T_S3_T0_"
 "_ZN4stan4math16check_size_matchIxiEEvPKcS3_T_S3_T0_"
 "_ZN4stan4math16check_size_matchIxxEEvPKcS3_S3_T_S3_S3_T0_"
 "_ZN4stan4math16domain_error_vecIN5Eigen6MatrixINS0_3varELin1ELi1ELi0ELin1ELi1EEEEEvPKcS7_RKT_yS7_S7_"
 "_ZN4stan4math16domain_error_vecIN5Eigen6MatrixIdLi1ELin1ELi1ELi1ELin1EEEEEvPKcS6_RKT_yS6_S6_"
 "_ZN4stan4math16domain_error_vecIN5Eigen6MatrixIdLin1ELi1ELi0ELin1ELi1EEEEEvPKcS6_RKT_yS6_S6_"
 "_ZN4stan4math16domain_error_vecIN5Eigen6MatrixIdLin1ELin1ELi0ELin1ELin1EEEEEvPKcS6_RKT_yS6_S6_"
 "_ZN4stan4math16invalid_argumentIiEEvPKcS3_RKT_S3_S3_"
 "_ZN4stan4math16invalid_argumentIxEEvPKcS3_RKT_S3_S3_"
 "_ZN4stan4math16invalid_argumentIyEEvPKcS3_RKT_S3_S3_"
 "_ZN4stan4math17multiply_mat_variIdLi1ELin1ENS0_3varELi1EE5chainEv"
 "_ZN4stan4math17multiply_mat_variIdLi1ELin1ENS0_3varELi1EED0Ev"
 "_ZN4stan4math17multiply_mat_variIdLi1ELin1ENS0_3varELi1EED1Ev"
 "_ZN4stan4math17multiply_mat_variIdLin1ELin1ENS0_3varELi1EE5chainEv"
 "_ZN4stan4math17multiply_mat_variIdLin1ELin1ENS0_3varELi1EEC1ERKN5Eigen6MatrixIdLin1ELin1ELi0ELin1ELin1EEERKNS5_IS2_Lin1ELi1ELi0ELin1ELi1EEE"
 "_ZN4stan4math17multiply_mat_variIdLin1ELin1ENS0_3varELi1EED0Ev"
 "_ZN4stan4math17multiply_mat_variIdLin1ELin1ENS0_3varELi1EED1Ev"
 "_ZN4stan4math21check_consistent_sizeIN5Eigen6MatrixIdLin1ELi1ELi0ELin1ELi1EEEEEvPKcS6_RKT_y"
 "_ZN4stan4math21check_positive_finiteIdEEvPKcS3_RKT_"
 "_ZN4stan4math21operands_and_partialsIN5Eigen6MatrixINS0_3varELin1ELi1ELi0ELin1ELi1EEENS3_IdLin1ELi1ELi0ELin1ELi1EEES6_ddS4_E5buildEd"
 "_ZN4stan4math21operands_and_partialsINS0_3varEddddS2_E5buildEd"
 "_ZN4stan4math22AutodiffStackSingletonINS0_4variENS0_15chainable_allocEE20AutodiffStackStorageC1Ev"
 "_ZN4stan4math23welford_covar_estimator10add_sampleERKN5Eigen6MatrixIdLin1ELi1ELi0ELin1ELi1EEE"
 "_ZN4stan4math26precomputed_gradients_vari5chainEv"
 "_ZN4stan4math26precomputed_gradients_variD0Ev"
 "_ZN4stan4math26precomputed_gradients_variD1Ev"
 "_ZN4stan4math27validate_non_negative_indexEPKcS2_i"
 "_ZN4stan4math3maxERKSt6vectorIiSaIiEE"
 "_ZN4stan4math3powERKNS0_3varEd"
 "_ZN4stan4math3rowIdEEN5Eigen6MatrixIT_Li1ELin1ELi1ELi1ELin1EEERKNS3_IS4_Lin1ELin1ELi0ELin1ELin1EEEy"
 "_ZN4stan4math3sumERKSt6vectorINS0_3varESaIS2_EE"
 "_ZN4stan4math3varC1Ed"
 "_ZN4stan4math4vari5chainEv"
 "_ZN4stan4math4variD0Ev"
 "_ZN4stan4math4variD1Ev"
 "_ZN4stan4math4varinwEy"
 "_ZN4stan4math6assignINS0_3varES2_Lin1ELi1EEEvRN5Eigen6MatrixIT_XT1_EXT2_EXorLNS3_14StorageOptionsE0EquaaeqT1_Li1EneT2_Li1ELS6_1EquaaeqT2_Li1EneT1_Li1ELS6_0ELS6_0EEXT1_EXT2_EEERKNS4_IT0_XT1_EXT2_EXorLS6_0EquaaeqT1_Li1EneT2_Li1ELS6_1EquaaeqT2_Li1EneT1_Li1ELS6_0ELS6_0EEXT1_EXT2_EEE"
 "_ZN4stan4math6assignIddLin1ELi1EEEvRN5Eigen6MatrixIT_XT1_EXT2_EXorLNS2_14StorageOptionsE0EquaaeqT1_Li1EneT2_Li1ELS5_1EquaaeqT2_Li1EneT1_Li1ELS5_0ELS5_0EEXT1_EXT2_EEERKNS3_IT0_XT1_EXT2_EXorLS5_0EquaaeqT1_Li1EneT2_Li1ELS5_1EquaaeqT2_Li1EneT1_Li1ELS5_0ELS5_0EEXT1_EXT2_EEE"
 "_ZN4stan4math8gradientINS_5model16model_functionalIN25model_RP_expert_namespace15model_RP_expertEEEEEvRKT_RKN5Eigen6MatrixIdLin1ELi1ELi0ELin1ELi1EEERdRSC_"
 "_ZN4stan4math8internal11add_vd_vari5chainEv"
 "_ZN4stan4math8internal11add_vd_variD0Ev"
 "_ZN4stan4math8internal11add_vd_variD1Ev"
 "_ZN4stan4math8internal11add_vv_vari5chainEv"
 "_ZN4stan4math8internal11add_vv_variD0Ev"
 "_ZN4stan4math8internal11add_vv_variD1Ev"
 "_ZN4stan4math8internal11pow_vd_vari5chainEv"
 "_ZN4stan4math8internal11pow_vd_variD0Ev"
 "_ZN4stan4math8internal11pow_vd_variD1Ev"
 "_ZN4stan4math8internal11square_vari5chainEv"
 "_ZN4stan4math8internal11square_variD0Ev"
 "_ZN4stan4math8internal11square_variD1Ev"
 "_ZN4stan4math8internal13inv_sqrt_vari5chainEv"
 "_ZN4stan4math8internal13inv_sqrt_variD0Ev"
 "_ZN4stan4math8internal13inv_sqrt_variD1Ev"
 "_ZN4stan4math8internal13less_or_equalIdiLb0EE5checkEPKcS5_RKdRKi"
 "_ZN4stan4math8internal15inv_square_vari5chainEv"
 "_ZN4stan4math8internal15inv_square_variD0Ev"
 "_ZN4stan4math8internal15inv_square_variD1Ev"
 "_ZN4stan4math8internal16dot_product_variINS0_3varEdE5chainEv"
 "_ZN4stan4math8internal16dot_product_variINS0_3varEdED0Ev"
 "_ZN4stan4math8internal16dot_product_variINS0_3varEdED1Ev"
 "_ZN4stan4math8internal16greater_or_equalIN5Eigen6MatrixIdLin1ELi1ELi0ELin1ELi1EEEiLb1EE5checkEPKcS8_RKS5_RKi"
 "_ZN4stan4math8internal16greater_or_equalIddLb0EE5checkEPKcS5_RKdS7_"
 "_ZN4stan4math8internal16greater_or_equalIiiLb0EE5checkEPKcS5_RKiS7_"
 "_ZN4stan4math8internal16multiply_vd_vari5chainEv"
 "_ZN4stan4math8internal16multiply_vd_variD0Ev"
 "_ZN4stan4math8internal16multiply_vd_variD1Ev"
 "_ZN4stan4math8internal16multiply_vv_vari5chainEv"
 "_ZN4stan4math8internal16multiply_vv_variD0Ev"
 "_ZN4stan4math8internal16multiply_vv_variD1Ev"
 "_ZN4stan4math8internal16subtract_vv_vari5chainEv"
 "_ZN4stan4math8internal16subtract_vv_variD0Ev"
 "_ZN4stan4math8internal16subtract_vv_variD1Ev"
 "_ZN4stan4math8internal6finiteIN5Eigen6MatrixIdLin1ELi1ELi0ELin1ELi1EEELb1EE5checkEPKcS8_RKS5_"
 "_ZN4stan4math8internal7not_nanIN5Eigen6MatrixINS0_3varELin1ELi1ELi0ELin1ELi1EEELb1EE5checkEPKcS9_RKS6_"
 "_ZN4stan4math8internal7not_nanIN5Eigen6MatrixIdLin1ELi1ELi0ELin1ELi1EEELb1EE5checkEPKcS8_RKS5_"
 "_ZN4stan4math8internal8exp_vari5chainEv"
 "_ZN4stan4math8internal8exp_variD0Ev"
 "_ZN4stan4math8internal8exp_variD1Ev"
 "_ZN4stan4math8internal8inv_vari5chainEv"
 "_ZN4stan4math8internal8inv_variD0Ev"
 "_ZN4stan4math8internal8inv_variD1Ev"
 "_ZN4stan4math8internal8log_vari5chainEv"
 "_ZN4stan4math8internal8log_variD0Ev"
 "_ZN4stan4math8internal8log_variD1Ev"
 "_ZN4stan4math8internal8neg_vari5chainEv"
 "_ZN4stan4math8internal8neg_variD0Ev"
 "_ZN4stan4math8internal8neg_variD1Ev"
 "_ZN4stan4math8internal9sqrt_vari5chainEv"
 "_ZN4stan4math8internal9sqrt_variD0Ev"
 "_ZN4stan4math8internal9sqrt_variD1Ev"
 "_ZN4stan4math8multiplyILin1ELin1ELin1ELi1EddvEEN5Eigen6MatrixINS_11return_typeIT3_JT4_EE4typeEXT_EXT2_EXorLNS2_14StorageOptionsE0EquaaeqT_Li1EneT2_Li1ELS9_1EquaaeqT2_Li1EneT_Li1ELS9_0ELS9_0EEXT_EXT2_EEERKNS3_IS5_XT_EXT0_EXorLS9_0EquaaeqT_Li1EneT0_Li1ELS9_1EquaaeqT0_Li1EneT_Li1ELS9_0ELS9_0EEXT_EXT0_EEERKNS3_IS6_XT1_EXT2_EXorLS9_0EquaaeqT1_Li1EneT2_Li1ELS9_1EquaaeqT2_Li1EneT1_Li1ELS9_0ELS9_0EEXT1_EXT2_EEE"
 "_ZN4stan4math8multiplyIdLin1ELin1ENS0_3varELi1EvEEN5Eigen6MatrixIS2_XT0_EXT3_EXorLNS3_14StorageOptionsE0EquaaeqT0_Li1EneT3_Li1ELS5_1EquaaeqT3_Li1EneT0_Li1ELS5_0ELS5_0EEXT0_EXT3_EEERKNS4_IT_XT0_EXT1_EXorLS5_0EquaaeqT0_Li1EneT1_Li1ELS5_1EquaaeqT1_Li1EneT0_Li1ELS5_0ELS5_0EEXT0_EXT1_EEERKNS4_IT2_XT1_EXT3_EXorLS5_0EquaaeqT1_Li1EneT3_Li1ELS5_1EquaaeqT3_Li1EneT1_Li1ELS5_0ELS5_0EEXT1_EXT3_EEE"
 "_ZN4stan4math9beta_lpdfILb0ENS0_3varEddEENS_11return_typeIT0_JT1_T2_EE4typeERKS4_RKS5_RKS6_"
 "_ZN4stan4math9beta_lpdfILb0EdddEENS_11return_typeIT0_JT1_T2_EE4typeERKS3_RKS4_RKS5_"
 "_ZN4stan4math9get_base1ISt6vectorIdSaIdEEEERKT_RKS2_IS5_SaIS5_EEyPKcy"
 "_ZN4stan4mcmc11diag_e_nutsIN25model_RP_expert_namespace15model_RP_expertEN5boost6random23additive_combine_engineINS5_26linear_congruential_engineIjLj40014ELj0ELj2147483563EEENS7_IjLj40692ELj0ELj2147483399EEEEEED0Ev"
 "_ZN4stan4mcmc11diag_e_nutsIN25model_RP_expert_namespace15model_RP_expertEN5boost6random23additive_combine_engineINS5_26linear_congruential_engineIjLj40014ELj0ELj2147483563EEENS7_IjLj40692ELj0ELj2147483399EEEEEED1Ev"
 "_ZN4stan4mcmc11unit_e_nutsIN25model_RP_expert_namespace15model_RP_expertEN5boost6random23additive_combine_engineINS5_26linear_congruential_engineIjLj40014ELj0ELj2147483563EEENS7_IjLj40692ELj0ELj2147483399EEEEEED0Ev"
 "_ZN4stan4mcmc11unit_e_nutsIN25model_RP_expert_namespace15model_RP_expertEN5boost6random23additive_combine_engineINS5_26linear_congruential_engineIjLj40014ELj0ELj2147483563EEENS7_IjLj40692ELj0ELj2147483399EEEEEED1Ev"
 "_ZN4stan4mcmc12base_adapter17engage_adaptationEv"
 "_ZN4stan4mcmc12base_adapter20disengage_adaptationEv"
 "_ZN4stan4mcmc12dense_e_nutsIN25model_RP_expert_namespace15model_RP_expertEN5boost6random23additive_combine_engineINS5_26linear_congruential_engineIjLj40014ELj0ELj2147483563EEENS7_IjLj40692ELj0ELj2147483399EEEEEED0Ev"
 "_ZN4stan4mcmc12dense_e_nutsIN25model_RP_expert_namespace15model_RP_expertEN5boost6random23additive_combine_engineINS5_26linear_congruential_engineIjLj40014ELj0ELj2147483563EEENS7_IjLj40692ELj0ELj2147483399EEEEEED1Ev"
 "_ZN4stan4mcmc12diag_e_point12write_metricERNS_9callbacks6writerE"
 "_ZN4stan4mcmc13base_leapfrogINS0_13diag_e_metricIN25model_RP_expert_namespace15model_RP_expertEN5boost6random23additive_combine_engineINS6_26linear_congruential_engineIjLj40014ELj0ELj2147483563EEENS8_IjLj40692ELj0ELj2147483399EEEEEEEE6evolveERNS0_12diag_e_pointERSC_dRNS_9callbacks6loggerE"
 "_ZN4stan4mcmc13base_leapfrogINS0_13unit_e_metricIN25model_RP_expert_namespace15model_RP_expertEN5boost6random23additive_combine_engineINS6_26linear_congruential_engineIjLj40014ELj0ELj2147483563EEENS8_IjLj40692ELj0ELj2147483399EEEEEEEE6evolveERNS0_12unit_e_pointERSC_dRNS_9callbacks6loggerE"
 "_ZN4stan4mcmc13base_leapfrogINS0_14dense_e_metricIN25model_RP_expert_namespace15model_RP_expertEN5boost6random23additive_combine_engineINS6_26linear_congruential_engineIjLj40014ELj0ELj2147483563EEENS8_IjLj40692ELj0ELj2147483399EEEEEEEE6evolveERNS0_13dense_e_pointERSC_dRNS_9callbacks6loggerE"
 "_ZN4stan4mcmc13dense_e_point12write_metricERNS_9callbacks6writerE"
 "_ZN4stan4mcmc13dense_e_pointC1Ei"
 "_ZN4stan4mcmc13diag_e_metricIN25model_RP_expert_namespace15model_RP_expertEN5boost6random23additive_combine_engineINS5_26linear_congruential_engineIjLj40014ELj0ELj2147483563EEENS7_IjLj40692ELj0ELj2147483399EEEEEE1TERNS0_12diag_e_pointE"
 "_ZN4stan4mcmc13diag_e_metricIN25model_RP_expert_namespace15model_RP_expertEN5boost6random23additive_combine_engineINS5_26linear_congruential_engineIjLj40014ELj0ELj2147483563EEENS7_IjLj40692ELj0ELj2147483399EEEEEE3phiERNS0_12diag_e_pointE"
 "_ZN4stan4mcmc13diag_e_metricIN25model_RP_expert_namespace15model_RP_expertEN5boost6random23additive_combine_engineINS5_26linear_congruential_engineIjLj40014ELj0ELj2147483563EEENS7_IjLj40692ELj0ELj2147483399EEEEEE3tauERNS0_12diag_e_pointE"
 "_ZN4stan4mcmc13diag_e_metricIN25model_RP_expert_namespace15model_RP_expertEN5boost6random23additive_combine_engineINS5_26linear_congruential_engineIjLj40014ELj0ELj2147483563EEENS7_IjLj40692ELj0ELj2147483399EEEEEE5dG_dtERNS0_12diag_e_pointERNS_9callbacks6loggerE"
 "_ZN4stan4mcmc13diag_e_metricIN25model_RP_expert_namespace15model_RP_expertEN5boost6random23additive_combine_engineINS5_26linear_congruential_engineIjLj40014ELj0ELj2147483563EEENS7_IjLj40692ELj0ELj2147483399EEEEEE7dphi_dqERNS0_12diag_e_pointERNS_9callbacks6loggerE"
 "_ZN4stan4mcmc13diag_e_metricIN25model_RP_expert_namespace15model_RP_expertEN5boost6random23additive_combine_engineINS5_26linear_congruential_engineIjLj40014ELj0ELj2147483563EEENS7_IjLj40692ELj0ELj2147483399EEEEEE7dtau_dpERNS0_12diag_e_pointE"
 "_ZN4stan4mcmc13diag_e_metricIN25model_RP_expert_namespace15model_RP_expertEN5boost6random23additive_combine_engineINS5_26linear_congruential_engineIjLj40014ELj0ELj2147483563EEENS7_IjLj40692ELj0ELj2147483399EEEEEE7dtau_dqERNS0_12diag_e_pointERNS_9callbacks6loggerE"
 "_ZN4stan4mcmc13diag_e_metricIN25model_RP_expert_namespace15model_RP_expertEN5boost6random23additive_combine_engineINS5_26linear_congruential_engineIjLj40014ELj0ELj2147483563EEENS7_IjLj40692ELj0ELj2147483399EEEEEE8sample_pERNS0_12diag_e_pointERSA_"
 "_ZN4stan4mcmc13expl_leapfrogINS0_13diag_e_metricIN25model_RP_expert_namespace15model_RP_expertEN5boost6random23additive_combine_engineINS6_26linear_congruential_engineIjLj40014ELj0ELj2147483563EEENS8_IjLj40692ELj0ELj2147483399EEEEEEEE12end_update_pERNS0_12diag_e_pointERSC_dRNS_9callbacks6loggerE"
 "_ZN4stan4mcmc13expl_leapfrogINS0_13diag_e_metricIN25model_RP_expert_namespace15model_RP_expertEN5boost6random23additive_combine_engineINS6_26linear_congruential_engineIjLj40014ELj0ELj2147483563EEENS8_IjLj40692ELj0ELj2147483399EEEEEEEE14begin_update_pERNS0_12diag_e_pointERSC_dRNS_9callbacks6loggerE"
 "_ZN4stan4mcmc13expl_leapfrogINS0_13diag_e_metricIN25model_RP_expert_namespace15model_RP_expertEN5boost6random23additive_combine_engineINS6_26linear_congruential_engineIjLj40014ELj0ELj2147483563EEENS8_IjLj40692ELj0ELj2147483399EEEEEEEE8update_qERNS0_12diag_e_pointERSC_dRNS_9callbacks6loggerE"
 "_ZN4stan4mcmc13expl_leapfrogINS0_13unit_e_metricIN25model_RP_expert_namespace15model_RP_expertEN5boost6random23additive_combine_engineINS6_26linear_congruential_engineIjLj40014ELj0ELj2147483563EEENS8_IjLj40692ELj0ELj2147483399EEEEEEEE12end_update_pERNS0_12unit_e_pointERSC_dRNS_9callbacks6loggerE"
 "_ZN4stan4mcmc13expl_leapfrogINS0_13unit_e_metricIN25model_RP_expert_namespace15model_RP_expertEN5boost6random23additive_combine_engineINS6_26linear_congruential_engineIjLj40014ELj0ELj2147483563EEENS8_IjLj40692ELj0ELj2147483399EEEEEEEE14begin_update_pERNS0_12unit_e_pointERSC_dRNS_9callbacks6loggerE"
 "_ZN4stan4mcmc13expl_leapfrogINS0_13unit_e_metricIN25model_RP_expert_namespace15model_RP_expertEN5boost6random23additive_combine_engineINS6_26linear_congruential_engineIjLj40014ELj0ELj2147483563EEENS8_IjLj40692ELj0ELj2147483399EEEEEEEE8update_qERNS0_12unit_e_pointERSC_dRNS_9callbacks6loggerE"
 "_ZN4stan4mcmc13expl_leapfrogINS0_14dense_e_metricIN25model_RP_expert_namespace15model_RP_expertEN5boost6random23additive_combine_engineINS6_26linear_congruential_engineIjLj40014ELj0ELj2147483563EEENS8_IjLj40692ELj0ELj2147483399EEEEEEEE12end_update_pERNS0_13dense_e_pointERSC_dRNS_9callbacks6loggerE"
 "_ZN4stan4mcmc13expl_leapfrogINS0_14dense_e_metricIN25model_RP_expert_namespace15model_RP_expertEN5boost6random23additive_combine_engineINS6_26linear_congruential_engineIjLj40014ELj0ELj2147483563EEENS8_IjLj40692ELj0ELj2147483399EEEEEEEE14begin_update_pERNS0_13dense_e_pointERSC_dRNS_9callbacks6loggerE"
 "_ZN4stan4mcmc13expl_leapfrogINS0_14dense_e_metricIN25model_RP_expert_namespace15model_RP_expertEN5boost6random23additive_combine_engineINS6_26linear_congruential_engineIjLj40014ELj0ELj2147483563EEENS8_IjLj40692ELj0ELj2147483399EEEEEEEE8update_qERNS0_13dense_e_pointERSC_dRNS_9callbacks6loggerE"
 "_ZN4stan4mcmc13unit_e_metricIN25model_RP_expert_namespace15model_RP_expertEN5boost6random23additive_combine_engineINS5_26linear_congruential_engineIjLj40014ELj0ELj2147483563EEENS7_IjLj40692ELj0ELj2147483399EEEEEE1TERNS0_12unit_e_pointE"
 "_ZN4stan4mcmc13unit_e_metricIN25model_RP_expert_namespace15model_RP_expertEN5boost6random23additive_combine_engineINS5_26linear_congruential_engineIjLj40014ELj0ELj2147483563EEENS7_IjLj40692ELj0ELj2147483399EEEEEE3phiERNS0_12unit_e_pointE"
 "_ZN4stan4mcmc13unit_e_metricIN25model_RP_expert_namespace15model_RP_expertEN5boost6random23additive_combine_engineINS5_26linear_congruential_engineIjLj40014ELj0ELj2147483563EEENS7_IjLj40692ELj0ELj2147483399EEEEEE3tauERNS0_12unit_e_pointE"
 "_ZN4stan4mcmc13unit_e_metricIN25model_RP_expert_namespace15model_RP_expertEN5boost6random23additive_combine_engineINS5_26linear_congruential_engineIjLj40014ELj0ELj2147483563EEENS7_IjLj40692ELj0ELj2147483399EEEEEE5dG_dtERNS0_12unit_e_pointERNS_9callbacks6loggerE"
 "_ZN4stan4mcmc13unit_e_metricIN25model_RP_expert_namespace15model_RP_expertEN5boost6random23additive_combine_engineINS5_26linear_congruential_engineIjLj40014ELj0ELj2147483563EEENS7_IjLj40692ELj0ELj2147483399EEEEEE7dphi_dqERNS0_12unit_e_pointERNS_9callbacks6loggerE"
 "_ZN4stan4mcmc13unit_e_metricIN25model_RP_expert_namespace15model_RP_expertEN5boost6random23additive_combine_engineINS5_26linear_congruential_engineIjLj40014ELj0ELj2147483563EEENS7_IjLj40692ELj0ELj2147483399EEEEEE7dtau_dpERNS0_12unit_e_pointE"
 "_ZN4stan4mcmc13unit_e_metricIN25model_RP_expert_namespace15model_RP_expertEN5boost6random23additive_combine_engineINS5_26linear_congruential_engineIjLj40014ELj0ELj2147483563EEENS7_IjLj40692ELj0ELj2147483399EEEEEE7dtau_dqERNS0_12unit_e_pointERNS_9callbacks6loggerE"
 "_ZN4stan4mcmc13unit_e_metricIN25model_RP_expert_namespace15model_RP_expertEN5boost6random23additive_combine_engineINS5_26linear_congruential_engineIjLj40014ELj0ELj2147483563EEENS7_IjLj40692ELj0ELj2147483399EEEEEE8sample_pERNS0_12unit_e_pointERSA_"
 "_ZN4stan4mcmc14dense_e_metricIN25model_RP_expert_namespace15model_RP_expertEN5boost6random23additive_combine_engineINS5_26linear_congruential_engineIjLj40014ELj0ELj2147483563EEENS7_IjLj40692ELj0ELj2147483399EEEEEE1TERNS0_13dense_e_pointE"
 "_ZN4stan4mcmc14dense_e_metricIN25model_RP_expert_namespace15model_RP_expertEN5boost6random23additive_combine_engineINS5_26linear_congruential_engineIjLj40014ELj0ELj2147483563EEENS7_IjLj40692ELj0ELj2147483399EEEEEE3phiERNS0_13dense_e_pointE"
 "_ZN4stan4mcmc14dense_e_metricIN25model_RP_expert_namespace15model_RP_expertEN5boost6random23additive_combine_engineINS5_26linear_congruential_engineIjLj40014ELj0ELj2147483563EEENS7_IjLj40692ELj0ELj2147483399EEEEEE3tauERNS0_13dense_e_pointE"
 "_ZN4stan4mcmc14dense_e_metricIN25model_RP_expert_namespace15model_RP_expertEN5boost6random23additive_combine_engineINS5_26linear_congruential_engineIjLj40014ELj0ELj2147483563EEENS7_IjLj40692ELj0ELj2147483399EEEEEE5dG_dtERNS0_13dense_e_pointERNS_9callbacks6loggerE"
 "_ZN4stan4mcmc14dense_e_metricIN25model_RP_expert_namespace15model_RP_expertEN5boost6random23additive_combine_engineINS5_26linear_congruential_engineIjLj40014ELj0ELj2147483563EEENS7_IjLj40692ELj0ELj2147483399EEEEEE7dphi_dqERNS0_13dense_e_pointERNS_9callbacks6loggerE"
 "_ZN4stan4mcmc14dense_e_metricIN25model_RP_expert_namespace15model_RP_expertEN5boost6random23additive_combine_engineINS5_26linear_congruential_engineIjLj40014ELj0ELj2147483563EEENS7_IjLj40692ELj0ELj2147483399EEEEEE7dtau_dpERNS0_13dense_e_pointE"
 "_ZN4stan4mcmc14dense_e_metricIN25model_RP_expert_namespace15model_RP_expertEN5boost6random23additive_combine_engineINS5_26linear_congruential_engineIjLj40014ELj0ELj2147483563EEENS7_IjLj40692ELj0ELj2147483399EEEEEE7dtau_dqERNS0_13dense_e_pointERNS_9callbacks6loggerE"
 "_ZN4stan4mcmc14dense_e_metricIN25model_RP_expert_namespace15model_RP_expertEN5boost6random23additive_combine_engineINS5_26linear_congruential_engineIjLj40014ELj0ELj2147483563EEENS7_IjLj40692ELj0ELj2147483399EEEEEE8sample_pERNS0_13dense_e_pointERSA_"
 "_ZN4stan4mcmc14var_adaptation14learn_varianceERN5Eigen6MatrixIdLin1ELi1ELi0ELin1ELi1EEERKS4_"
 "_ZN4stan4mcmc15base_static_hmcIN25model_RP_expert_namespace15model_RP_expertENS0_13diag_e_metricENS0_13expl_leapfrogEN5boost6random23additive_combine_engineINS7_26linear_congruential_engineIjLj40014ELj0ELj2147483563EEENS9_IjLj40692ELj0ELj2147483399EEEEEE10transitionERNS0_6sampleERNS_9callbacks6loggerE"
 "_ZN4stan4mcmc15base_static_hmcIN25model_RP_expert_namespace15model_RP_expertENS0_13diag_e_metricENS0_13expl_leapfrogEN5boost6random23additive_combine_engineINS7_26linear_congruential_engineIjLj40014ELj0ELj2147483563EEENS9_IjLj40692ELj0ELj2147483399EEEEEE18get_sampler_paramsERSt6vectorIdSaIdEE"
 "_ZN4stan4mcmc15base_static_hmcIN25model_RP_expert_namespace15model_RP_expertENS0_13diag_e_metricENS0_13expl_leapfrogEN5boost6random23additive_combine_engineINS7_26linear_congruential_engineIjLj40014ELj0ELj2147483563EEENS9_IjLj40692ELj0ELj2147483399EEEEEE20set_nominal_stepsizeEd"
 "_ZN4stan4mcmc15base_static_hmcIN25model_RP_expert_namespace15model_RP_expertENS0_13diag_e_metricENS0_13expl_leapfrogEN5boost6random23additive_combine_engineINS7_26linear_congruential_engineIjLj40014ELj0ELj2147483563EEENS9_IjLj40692ELj0ELj2147483399EEEEEE23get_sampler_param_namesERSt6vectorINSt7__cxx1112basic_stringIcSt11char_traitsIcESaIcEEESaISK_EE"
 "_ZN4stan4mcmc15base_static_hmcIN25model_RP_expert_namespace15model_RP_expertENS0_13unit_e_metricENS0_13expl_leapfrogEN5boost6random23additive_combine_engineINS7_26linear_congruential_engineIjLj40014ELj0ELj2147483563EEENS9_IjLj40692ELj0ELj2147483399EEEEEE10transitionERNS0_6sampleERNS_9callbacks6loggerE"
 "_ZN4stan4mcmc15base_static_hmcIN25model_RP_expert_namespace15model_RP_expertENS0_13unit_e_metricENS0_13expl_leapfrogEN5boost6random23additive_combine_engineINS7_26linear_congruential_engineIjLj40014ELj0ELj2147483563EEENS9_IjLj40692ELj0ELj2147483399EEEEEE18get_sampler_paramsERSt6vectorIdSaIdEE"
 "_ZN4stan4mcmc15base_static_hmcIN25model_RP_expert_namespace15model_RP_expertENS0_13unit_e_metricENS0_13expl_leapfrogEN5boost6random23additive_combine_engineINS7_26linear_congruential_engineIjLj40014ELj0ELj2147483563EEENS9_IjLj40692ELj0ELj2147483399EEEEEE20set_nominal_stepsizeEd"
 "_ZN4stan4mcmc15base_static_hmcIN25model_RP_expert_namespace15model_RP_expertENS0_13unit_e_metricENS0_13expl_leapfrogEN5boost6random23additive_combine_engineINS7_26linear_congruential_engineIjLj40014ELj0ELj2147483563EEENS9_IjLj40692ELj0ELj2147483399EEEEEE23get_sampler_param_namesERSt6vectorINSt7__cxx1112basic_stringIcSt11char_traitsIcESaIcEEESaISK_EE"
 "_ZN4stan4mcmc15base_static_hmcIN25model_RP_expert_namespace15model_RP_expertENS0_14dense_e_metricENS0_13expl_leapfrogEN5boost6random23additive_combine_engineINS7_26linear_congruential_engineIjLj40014ELj0ELj2147483563EEENS9_IjLj40692ELj0ELj2147483399EEEEEE10transitionERNS0_6sampleERNS_9callbacks6loggerE"
 "_ZN4stan4mcmc15base_static_hmcIN25model_RP_expert_namespace15model_RP_expertENS0_14dense_e_metricENS0_13expl_leapfrogEN5boost6random23additive_combine_engineINS7_26linear_congruential_engineIjLj40014ELj0ELj2147483563EEENS9_IjLj40692ELj0ELj2147483399EEEEEE18get_sampler_paramsERSt6vectorIdSaIdEE"
 "_ZN4stan4mcmc15base_static_hmcIN25model_RP_expert_namespace15model_RP_expertENS0_14dense_e_metricENS0_13expl_leapfrogEN5boost6random23additive_combine_engineINS7_26linear_congruential_engineIjLj40014ELj0ELj2147483563EEENS9_IjLj40692ELj0ELj2147483399EEEEEE20set_nominal_stepsizeEd"
 "_ZN4stan4mcmc15base_static_hmcIN25model_RP_expert_namespace15model_RP_expertENS0_14dense_e_metricENS0_13expl_leapfrogEN5boost6random23additive_combine_engineINS7_26linear_congruential_engineIjLj40014ELj0ELj2147483563EEENS9_IjLj40692ELj0ELj2147483399EEEEEE23get_sampler_param_namesERSt6vectorINSt7__cxx1112basic_stringIcSt11char_traitsIcESaIcEEESaISK_EE"
 "_ZN4stan4mcmc16base_hamiltonianIN25model_RP_expert_namespace15model_RP_expertENS0_12diag_e_pointEN5boost6random23additive_combine_engineINS6_26linear_congruential_engineIjLj40014ELj0ELj2147483563EEENS8_IjLj40692ELj0ELj2147483399EEEEEE16write_error_msg_ERKSt9exceptionRNS_9callbacks6loggerE"
 "_ZN4stan4mcmc16base_hamiltonianIN25model_RP_expert_namespace15model_RP_expertENS0_12diag_e_pointEN5boost6random23additive_combine_engineINS6_26linear_congruential_engineIjLj40014ELj0ELj2147483563EEENS8_IjLj40692ELj0ELj2147483399EEEEEE25update_potential_gradientERS4_RNS_9callbacks6loggerE"
 "_ZN4stan4mcmc16base_hamiltonianIN25model_RP_expert_namespace15model_RP_expertENS0_12unit_e_pointEN5boost6random23additive_combine_engineINS6_26linear_congruential_engineIjLj40014ELj0ELj2147483563EEENS8_IjLj40692ELj0ELj2147483399EEEEEE16write_error_msg_ERKSt9exceptionRNS_9callbacks6loggerE"
 "_ZN4stan4mcmc16base_hamiltonianIN25model_RP_expert_namespace15model_RP_expertENS0_12unit_e_pointEN5boost6random23additive_combine_engineINS6_26linear_congruential_engineIjLj40014ELj0ELj2147483563EEENS8_IjLj40692ELj0ELj2147483399EEEEEE25update_potential_gradientERS4_RNS_9callbacks6loggerE"
 "_ZN4stan4mcmc16base_hamiltonianIN25model_RP_expert_namespace15model_RP_expertENS0_13dense_e_pointEN5boost6random23additive_combine_engineINS6_26linear_congruential_engineIjLj40014ELj0ELj2147483563EEENS8_IjLj40692ELj0ELj2147483399EEEEEE16write_error_msg_ERKSt9exceptionRNS_9callbacks6loggerE"
 "_ZN4stan4mcmc16base_hamiltonianIN25model_RP_expert_namespace15model_RP_expertENS0_13dense_e_pointEN5boost6random23additive_combine_engineINS6_26linear_congruential_engineIjLj40014ELj0ELj2147483563EEENS8_IjLj40692ELj0ELj2147483399EEEEEE25update_potential_gradientERS4_RNS_9callbacks6loggerE"
 "_ZN4stan4mcmc17adapt_diag_e_nutsIN25model_RP_expert_namespace15model_RP_expertEN5boost6random23additive_combine_engineINS5_26linear_congruential_engineIjLj40014ELj0ELj2147483563EEENS7_IjLj40692ELj0ELj2147483399EEEEEE10transitionERNS0_6sampleERNS_9callbacks6loggerE"
 "_ZN4stan4mcmc17adapt_diag_e_nutsIN25model_RP_expert_namespace15model_RP_expertEN5boost6random23additive_combine_engineINS5_26linear_congruential_engineIjLj40014ELj0ELj2147483563EEENS7_IjLj40692ELj0ELj2147483399EEEEEE20disengage_adaptationEv"
 "_ZN4stan4mcmc17adapt_diag_e_nutsIN25model_RP_expert_namespace15model_RP_expertEN5boost6random23additive_combine_engineINS5_26linear_congruential_engineIjLj40014ELj0ELj2147483563EEENS7_IjLj40692ELj0ELj2147483399EEEEEED0Ev"
 "_ZN4stan4mcmc17adapt_diag_e_nutsIN25model_RP_expert_namespace15model_RP_expertEN5boost6random23additive_combine_engineINS5_26linear_congruential_engineIjLj40014ELj0ELj2147483563EEENS7_IjLj40692ELj0ELj2147483399EEEEEED1Ev"
 "_ZN4stan4mcmc17adapt_unit_e_nutsIN25model_RP_expert_namespace15model_RP_expertEN5boost6random23additive_combine_engineINS5_26linear_congruential_engineIjLj40014ELj0ELj2147483563EEENS7_IjLj40692ELj0ELj2147483399EEEEEE10transitionERNS0_6sampleERNS_9callbacks6loggerE"
 "_ZN4stan4mcmc17adapt_unit_e_nutsIN25model_RP_expert_namespace15model_RP_expertEN5boost6random23additive_combine_engineINS5_26linear_congruential_engineIjLj40014ELj0ELj2147483563EEENS7_IjLj40692ELj0ELj2147483399EEEEEE20disengage_adaptationEv"
 "_ZN4stan4mcmc17adapt_unit_e_nutsIN25model_RP_expert_namespace15model_RP_expertEN5boost6random23additive_combine_engineINS5_26linear_congruential_engineIjLj40014ELj0ELj2147483563EEENS7_IjLj40692ELj0ELj2147483399EEEEEED0Ev"
 "_ZN4stan4mcmc17adapt_unit_e_nutsIN25model_RP_expert_namespace15model_RP_expertEN5boost6random23additive_combine_engineINS5_26linear_congruential_engineIjLj40014ELj0ELj2147483563EEENS7_IjLj40692ELj0ELj2147483399EEEEEED1Ev"
 "_ZN4stan4mcmc17diag_e_static_hmcIN25model_RP_expert_namespace15model_RP_expertEN5boost6random23additive_combine_engineINS5_26linear_congruential_engineIjLj40014ELj0ELj2147483563EEENS7_IjLj40692ELj0ELj2147483399EEEEEED0Ev"
 "_ZN4stan4mcmc17diag_e_static_hmcIN25model_RP_expert_namespace15model_RP_expertEN5boost6random23additive_combine_engineINS5_26linear_congruential_engineIjLj40014ELj0ELj2147483563EEENS7_IjLj40692ELj0ELj2147483399EEEEEED1Ev"
 "_ZN4stan4mcmc17unit_e_static_hmcIN25model_RP_expert_namespace15model_RP_expertEN5boost6random23additive_combine_engineINS5_26linear_congruential_engineIjLj40014ELj0ELj2147483563EEENS7_IjLj40692ELj0ELj2147483399EEEEEED0Ev"
 "_ZN4stan4mcmc17unit_e_static_hmcIN25model_RP_expert_namespace15model_RP_expertEN5boost6random23additive_combine_engineINS5_26linear_congruential_engineIjLj40014ELj0ELj2147483563EEENS7_IjLj40692ELj0ELj2147483399EEEEEED1Ev"
 "_ZN4stan4mcmc18adapt_dense_e_nutsIN25model_RP_expert_namespace15model_RP_expertEN5boost6random23additive_combine_engineINS5_26linear_congruential_engineIjLj40014ELj0ELj2147483563EEENS7_IjLj40692ELj0ELj2147483399EEEEEE10transitionERNS0_6sampleERNS_9callbacks6loggerE"
 "_ZN4stan4mcmc18adapt_dense_e_nutsIN25model_RP_expert_namespace15model_RP_expertEN5boost6random23additive_combine_engineINS5_26linear_congruential_engineIjLj40014ELj0ELj2147483563EEENS7_IjLj40692ELj0ELj2147483399EEEEEE20disengage_adaptationEv"
 "_ZN4stan4mcmc18adapt_dense_e_nutsIN25model_RP_expert_namespace15model_RP_expertEN5boost6random23additive_combine_engineINS5_26linear_congruential_engineIjLj40014ELj0ELj2147483563EEENS7_IjLj40692ELj0ELj2147483399EEEEEED0Ev"
 "_ZN4stan4mcmc18adapt_dense_e_nutsIN25model_RP_expert_namespace15model_RP_expertEN5boost6random23additive_combine_engineINS5_26linear_congruential_engineIjLj40014ELj0ELj2147483563EEENS7_IjLj40692ELj0ELj2147483399EEEEEED1Ev"
 "_ZN4stan4mcmc18dense_e_static_hmcIN25model_RP_expert_namespace15model_RP_expertEN5boost6random23additive_combine_engineINS5_26linear_congruential_engineIjLj40014ELj0ELj2147483563EEENS7_IjLj40692ELj0ELj2147483399EEEEEED0Ev"
 "_ZN4stan4mcmc18dense_e_static_hmcIN25model_RP_expert_namespace15model_RP_expertEN5boost6random23additive_combine_engineINS5_26linear_congruential_engineIjLj40014ELj0ELj2147483563EEENS7_IjLj40692ELj0ELj2147483399EEEEEED1Ev"
 "_ZN4stan4mcmc19fixed_param_sampler10transitionERNS0_6sampleERNS_9callbacks6loggerE"
 "_ZN4stan4mcmc19fixed_param_samplerD0Ev"
 "_ZN4stan4mcmc19fixed_param_samplerD1Ev"
 "_ZN4stan4mcmc19stepsize_adaptation14learn_stepsizeERdd"
 "_ZN4stan4mcmc19stepsize_adaptation7restartEv"
 "_ZN4stan4mcmc19windowed_adaptation17set_window_paramsEjjjjRNS_9callbacks6loggerE"
 "_ZN4stan4mcmc19windowed_adaptation7restartEv"
 "_ZN4stan4mcmc23adapt_diag_e_static_hmcIN25model_RP_expert_namespace15model_RP_expertEN5boost6random23additive_combine_engineINS5_26linear_congruential_engineIjLj40014ELj0ELj2147483563EEENS7_IjLj40692ELj0ELj2147483399EEEEEE10transitionERNS0_6sampleERNS_9callbacks6loggerE"
 "_ZN4stan4mcmc23adapt_diag_e_static_hmcIN25model_RP_expert_namespace15model_RP_expertEN5boost6random23additive_combine_engineINS5_26linear_congruential_engineIjLj40014ELj0ELj2147483563EEENS7_IjLj40692ELj0ELj2147483399EEEEEE20disengage_adaptationEv"
 "_ZN4stan4mcmc23adapt_diag_e_static_hmcIN25model_RP_expert_namespace15model_RP_expertEN5boost6random23additive_combine_engineINS5_26linear_congruential_engineIjLj40014ELj0ELj2147483563EEENS7_IjLj40692ELj0ELj2147483399EEEEEED0Ev"
 "_ZN4stan4mcmc23adapt_diag_e_static_hmcIN25model_RP_expert_namespace15model_RP_expertEN5boost6random23additive_combine_engineINS5_26linear_congruential_engineIjLj40014ELj0ELj2147483563EEENS7_IjLj40692ELj0ELj2147483399EEEEEED1Ev"
 "_ZN4stan4mcmc23adapt_unit_e_static_hmcIN25model_RP_expert_namespace15model_RP_expertEN5boost6random23additive_combine_engineINS5_26linear_congruential_engineIjLj40014ELj0ELj2147483563EEENS7_IjLj40692ELj0ELj2147483399EEEEEE10transitionERNS0_6sampleERNS_9callbacks6loggerE"
 "_ZN4stan4mcmc23adapt_unit_e_static_hmcIN25model_RP_expert_namespace15model_RP_expertEN5boost6random23additive_combine_engineINS5_26linear_congruential_engineIjLj40014ELj0ELj2147483563EEENS7_IjLj40692ELj0ELj2147483399EEEEEE20disengage_adaptationEv"
 "_ZN4stan4mcmc23adapt_unit_e_static_hmcIN25model_RP_expert_namespace15model_RP_expertEN5boost6random23additive_combine_engineINS5_26linear_congruential_engineIjLj40014ELj0ELj2147483563EEENS7_IjLj40692ELj0ELj2147483399EEEEEED0Ev"
 "_ZN4stan4mcmc23adapt_unit_e_static_hmcIN25model_RP_expert_namespace15model_RP_expertEN5boost6random23additive_combine_engineINS5_26linear_congruential_engineIjLj40014ELj0ELj2147483563EEENS7_IjLj40692ELj0ELj2147483399EEEEEED1Ev"
 "_ZN4stan4mcmc24adapt_dense_e_static_hmcIN25model_RP_expert_namespace15model_RP_expertEN5boost6random23additive_combine_engineINS5_26linear_congruential_engineIjLj40014ELj0ELj2147483563EEENS7_IjLj40692ELj0ELj2147483399EEEEEE10transitionERNS0_6sampleERNS_9callbacks6loggerE"
 "_ZN4stan4mcmc24adapt_dense_e_static_hmcIN25model_RP_expert_namespace15model_RP_expertEN5boost6random23additive_combine_engineINS5_26linear_congruential_engineIjLj40014ELj0ELj2147483563EEENS7_IjLj40692ELj0ELj2147483399EEEEEE20disengage_adaptationEv"
 "_ZN4stan4mcmc24adapt_dense_e_static_hmcIN25model_RP_expert_namespace15model_RP_expertEN5boost6random23additive_combine_engineINS5_26linear_congruential_engineIjLj40014ELj0ELj2147483563EEENS7_IjLj40692ELj0ELj2147483399EEEEEED0Ev"
 "_ZN4stan4mcmc24adapt_dense_e_static_hmcIN25model_RP_expert_namespace15model_RP_expertEN5boost6random23additive_combine_engineINS5_26linear_congruential_engineIjLj40014ELj0ELj2147483563EEENS7_IjLj40692ELj0ELj2147483399EEEEEED1Ev"
 "_ZN4stan4mcmc6sample22get_sample_param_namesERSt6vectorINSt7__cxx1112basic_stringIcSt11char_traitsIcESaIcEEESaIS8_EE"
 "_ZN4stan4mcmc6sampleD0Ev"
 "_ZN4stan4mcmc6sampleD1Ev"
 "_ZN4stan4mcmc8base_hmcIN25model_RP_expert_namespace15model_RP_expertENS0_13diag_e_metricENS0_13expl_leapfrogEN5boost6random23additive_combine_engineINS7_26linear_congruential_engineIjLj40014ELj0ELj2147483563EEENS9_IjLj40692ELj0ELj2147483399EEEEEE13init_stepsizeERNS_9callbacks6loggerE"
 "_ZN4stan4mcmc8base_hmcIN25model_RP_expert_namespace15model_RP_expertENS0_13diag_e_metricENS0_13expl_leapfrogEN5boost6random23additive_combine_engineINS7_26linear_congruential_engineIjLj40014ELj0ELj2147483563EEENS9_IjLj40692ELj0ELj2147483399EEEEEE19set_stepsize_jitterEd"
 "_ZN4stan4mcmc8base_hmcIN25model_RP_expert_namespace15model_RP_expertENS0_13diag_e_metricENS0_13expl_leapfrogEN5boost6random23additive_combine_engineINS7_26linear_congruential_engineIjLj40014ELj0ELj2147483563EEENS9_IjLj40692ELj0ELj2147483399EEEEEE19write_sampler_stateERNS_9callbacks6writerE"
 "_ZN4stan4mcmc8base_hmcIN25model_RP_expert_namespace15model_RP_expertENS0_13diag_e_metricENS0_13expl_leapfrogEN5boost6random23additive_combine_engineINS7_26linear_congruential_engineIjLj40014ELj0ELj2147483563EEENS9_IjLj40692ELj0ELj2147483399EEEEEE20set_nominal_stepsizeEd"
 "_ZN4stan4mcmc8base_hmcIN25model_RP_expert_namespace15model_RP_expertENS0_13diag_e_metricENS0_13expl_leapfrogEN5boost6random23additive_combine_engineINS7_26linear_congruential_engineIjLj40014ELj0ELj2147483563EEENS9_IjLj40692ELj0ELj2147483399EEEEEE22write_sampler_stepsizeERNS_9callbacks6writerE"
 "_ZN4stan4mcmc8base_hmcIN25model_RP_expert_namespace15model_RP_expertENS0_13diag_e_metricENS0_13expl_leapfrogEN5boost6random23additive_combine_engineINS7_26linear_congruential_engineIjLj40014ELj0ELj2147483563EEENS9_IjLj40692ELj0ELj2147483399EEEEEE23get_sampler_diagnosticsERSt6vectorIdSaIdEE"
 "_ZN4stan4mcmc8base_hmcIN25model_RP_expert_namespace15model_RP_expertENS0_13diag_e_metricENS0_13expl_leapfrogEN5boost6random23additive_combine_engineINS7_26linear_congruential_engineIjLj40014ELj0ELj2147483563EEENS9_IjLj40692ELj0ELj2147483399EEEEEE28get_sampler_diagnostic_namesERSt6vectorINSt7__cxx1112basic_stringIcSt11char_traitsIcESaIcEEESaISK_EESN_"
 "_ZN4stan4mcmc8base_hmcIN25model_RP_expert_namespace15model_RP_expertENS0_13unit_e_metricENS0_13expl_leapfrogEN5boost6random23additive_combine_engineINS7_26linear_congruential_engineIjLj40014ELj0ELj2147483563EEENS9_IjLj40692ELj0ELj2147483399EEEEEE13init_stepsizeERNS_9callbacks6loggerE"
 "_ZN4stan4mcmc8base_hmcIN25model_RP_expert_namespace15model_RP_expertENS0_13unit_e_metricENS0_13expl_leapfrogEN5boost6random23additive_combine_engineINS7_26linear_congruential_engineIjLj40014ELj0ELj2147483563EEENS9_IjLj40692ELj0ELj2147483399EEEEEE19set_stepsize_jitterEd"
 "_ZN4stan4mcmc8base_hmcIN25model_RP_expert_namespace15model_RP_expertENS0_13unit_e_metricENS0_13expl_leapfrogEN5boost6random23additive_combine_engineINS7_26linear_congruential_engineIjLj40014ELj0ELj2147483563EEENS9_IjLj40692ELj0ELj2147483399EEEEEE19write_sampler_stateERNS_9callbacks6writerE"
 "_ZN4stan4mcmc8base_hmcIN25model_RP_expert_namespace15model_RP_expertENS0_13unit_e_metricENS0_13expl_leapfrogEN5boost6random23additive_combine_engineINS7_26linear_congruential_engineIjLj40014ELj0ELj2147483563EEENS9_IjLj40692ELj0ELj2147483399EEEEEE20set_nominal_stepsizeEd"
 "_ZN4stan4mcmc8base_hmcIN25model_RP_expert_namespace15model_RP_expertENS0_13unit_e_metricENS0_13expl_leapfrogEN5boost6random23additive_combine_engineINS7_26linear_congruential_engineIjLj40014ELj0ELj2147483563EEENS9_IjLj40692ELj0ELj2147483399EEEEEE22write_sampler_stepsizeERNS_9callbacks6writerE"
 "_ZN4stan4mcmc8base_hmcIN25model_RP_expert_namespace15model_RP_expertENS0_13unit_e_metricENS0_13expl_leapfrogEN5boost6random23additive_combine_engineINS7_26linear_congruential_engineIjLj40014ELj0ELj2147483563EEENS9_IjLj40692ELj0ELj2147483399EEEEEE23get_sampler_diagnosticsERSt6vectorIdSaIdEE"
 "_ZN4stan4mcmc8base_hmcIN25model_RP_expert_namespace15model_RP_expertENS0_13unit_e_metricENS0_13expl_leapfrogEN5boost6random23additive_combine_engineINS7_26linear_congruential_engineIjLj40014ELj0ELj2147483563EEENS9_IjLj40692ELj0ELj2147483399EEEEEE28get_sampler_diagnostic_namesERSt6vectorINSt7__cxx1112basic_stringIcSt11char_traitsIcESaIcEEESaISK_EESN_"
 "_ZN4stan4mcmc8base_hmcIN25model_RP_expert_namespace15model_RP_expertENS0_14dense_e_metricENS0_13expl_leapfrogEN5boost6random23additive_combine_engineINS7_26linear_congruential_engineIjLj40014ELj0ELj2147483563EEENS9_IjLj40692ELj0ELj2147483399EEEEEE13init_stepsizeERNS_9callbacks6loggerE"
 "_ZN4stan4mcmc8base_hmcIN25model_RP_expert_namespace15model_RP_expertENS0_14dense_e_metricENS0_13expl_leapfrogEN5boost6random23additive_combine_engineINS7_26linear_congruential_engineIjLj40014ELj0ELj2147483563EEENS9_IjLj40692ELj0ELj2147483399EEEEEE19set_stepsize_jitterEd"
 "_ZN4stan4mcmc8base_hmcIN25model_RP_expert_namespace15model_RP_expertENS0_14dense_e_metricENS0_13expl_leapfrogEN5boost6random23additive_combine_engineINS7_26linear_congruential_engineIjLj40014ELj0ELj2147483563EEENS9_IjLj40692ELj0ELj2147483399EEEEEE19write_sampler_stateERNS_9callbacks6writerE"
 "_ZN4stan4mcmc8base_hmcIN25model_RP_expert_namespace15model_RP_expertENS0_14dense_e_metricENS0_13expl_leapfrogEN5boost6random23additive_combine_engineINS7_26linear_congruential_engineIjLj40014ELj0ELj2147483563EEENS9_IjLj40692ELj0ELj2147483399EEEEEE20set_nominal_stepsizeEd"
 "_ZN4stan4mcmc8base_hmcIN25model_RP_expert_namespace15model_RP_expertENS0_14dense_e_metricENS0_13expl_leapfrogEN5boost6random23additive_combine_engineINS7_26linear_congruential_engineIjLj40014ELj0ELj2147483563EEENS9_IjLj40692ELj0ELj2147483399EEEEEE22write_sampler_stepsizeERNS_9callbacks6writerE"
 "_ZN4stan4mcmc8base_hmcIN25model_RP_expert_namespace15model_RP_expertENS0_14dense_e_metricENS0_13expl_leapfrogEN5boost6random23additive_combine_engineINS7_26linear_congruential_engineIjLj40014ELj0ELj2147483563EEENS9_IjLj40692ELj0ELj2147483399EEEEEE23get_sampler_diagnosticsERSt6vectorIdSaIdEE"
 "_ZN4stan4mcmc8base_hmcIN25model_RP_expert_namespace15model_RP_expertENS0_14dense_e_metricENS0_13expl_leapfrogEN5boost6random23additive_combine_engineINS7_26linear_congruential_engineIjLj40014ELj0ELj2147483563EEENS9_IjLj40692ELj0ELj2147483399EEEEEE28get_sampler_diagnostic_namesERSt6vectorINSt7__cxx1112basic_stringIcSt11char_traitsIcESaIcEEESaISK_EESN_"
 "_ZN4stan4mcmc8ps_point10get_paramsERSt6vectorIdSaIdEE"
 "_ZN4stan4mcmc8ps_point12write_metricERNS_9callbacks6writerE"
 "_ZN4stan4mcmc8ps_point15get_param_namesERSt6vectorINSt7__cxx1112basic_stringIcSt11char_traitsIcESaIcEEESaIS8_EESB_"
 "_ZN4stan4mcmc8ps_pointC1ERKS1_"
 "_ZN4stan4mcmc8ps_pointD1Ev"
 "_ZN4stan4mcmc8ps_pointD2Ev"
 "_ZN4stan4mcmc8ps_pointaSERKS1_"
 "_ZN4stan4mcmc9base_mcmc18get_sampler_paramsERSt6vectorIdSaIdEE"
 "_ZN4stan4mcmc9base_mcmc19write_sampler_stateERNS_9callbacks6writerE"
 "_ZN4stan4mcmc9base_mcmc23get_sampler_diagnosticsERSt6vectorIdSaIdEE"
 "_ZN4stan4mcmc9base_mcmc23get_sampler_param_namesERSt6vectorINSt7__cxx1112basic_stringIcSt11char_traitsIcESaIcEEESaIS8_EE"
 "_ZN4stan4mcmc9base_mcmc28get_sampler_diagnostic_namesERSt6vectorINSt7__cxx1112basic_stringIcSt11char_traitsIcESaIcEEESaIS8_EESB_"
 "_ZN4stan4mcmc9base_nutsIN25model_RP_expert_namespace15model_RP_expertENS0_13diag_e_metricENS0_13expl_leapfrogEN5boost6random23additive_combine_engineINS7_26linear_congruential_engineIjLj40014ELj0ELj2147483563EEENS9_IjLj40692ELj0ELj2147483399EEEEEE10build_treeEiRNS0_8ps_pointERN5Eigen6MatrixIdLin1ELi1ELi0ELin1ELi1EEESJ_SJ_SJ_SJ_ddRiRdSL_RNS_9callbacks6loggerE"
 "_ZN4stan4mcmc9base_nutsIN25model_RP_expert_namespace15model_RP_expertENS0_13diag_e_metricENS0_13expl_leapfrogEN5boost6random23additive_combine_engineINS7_26linear_congruential_engineIjLj40014ELj0ELj2147483563EEENS9_IjLj40692ELj0ELj2147483399EEEEEE10transitionERNS0_6sampleERNS_9callbacks6loggerE"
 "_ZN4stan4mcmc9base_nutsIN25model_RP_expert_namespace15model_RP_expertENS0_13diag_e_metricENS0_13expl_leapfrogEN5boost6random23additive_combine_engineINS7_26linear_congruential_engineIjLj40014ELj0ELj2147483563EEENS9_IjLj40692ELj0ELj2147483399EEEEEE17compute_criterionERN5Eigen6MatrixIdLin1ELi1ELi0ELin1ELi1EEESH_SH_"
 "_ZN4stan4mcmc9base_nutsIN25model_RP_expert_namespace15model_RP_expertENS0_13diag_e_metricENS0_13expl_leapfrogEN5boost6random23additive_combine_engineINS7_26linear_congruential_engineIjLj40014ELj0ELj2147483563EEENS9_IjLj40692ELj0ELj2147483399EEEEEE18get_sampler_paramsERSt6vectorIdSaIdEE"
 "_ZN4stan4mcmc9base_nutsIN25model_RP_expert_namespace15model_RP_expertENS0_13diag_e_metricENS0_13expl_leapfrogEN5boost6random23additive_combine_engineINS7_26linear_congruential_engineIjLj40014ELj0ELj2147483563EEENS9_IjLj40692ELj0ELj2147483399EEEEEE23get_sampler_param_namesERSt6vectorINSt7__cxx1112basic_stringIcSt11char_traitsIcESaIcEEESaISK_EE"
 "_ZN4stan4mcmc9base_nutsIN25model_RP_expert_namespace15model_RP_expertENS0_13diag_e_metricENS0_13expl_leapfrogEN5boost6random23additive_combine_engineINS7_26linear_congruential_engineIjLj40014ELj0ELj2147483563EEENS9_IjLj40692ELj0ELj2147483399EEEEEED0Ev"
 "_ZN4stan4mcmc9base_nutsIN25model_RP_expert_namespace15model_RP_expertENS0_13diag_e_metricENS0_13expl_leapfrogEN5boost6random23additive_combine_engineINS7_26linear_congruential_engineIjLj40014ELj0ELj2147483563EEENS9_IjLj40692ELj0ELj2147483399EEEEEED1Ev"
 "_ZN4stan4mcmc9base_nutsIN25model_RP_expert_namespace15model_RP_expertENS0_13unit_e_metricENS0_13expl_leapfrogEN5boost6random23additive_combine_engineINS7_26linear_congruential_engineIjLj40014ELj0ELj2147483563EEENS9_IjLj40692ELj0ELj2147483399EEEEEE10build_treeEiRNS0_8ps_pointERN5Eigen6MatrixIdLin1ELi1ELi0ELin1ELi1EEESJ_SJ_SJ_SJ_ddRiRdSL_RNS_9callbacks6loggerE"
 "_ZN4stan4mcmc9base_nutsIN25model_RP_expert_namespace15model_RP_expertENS0_13unit_e_metricENS0_13expl_leapfrogEN5boost6random23additive_combine_engineINS7_26linear_congruential_engineIjLj40014ELj0ELj2147483563EEENS9_IjLj40692ELj0ELj2147483399EEEEEE10transitionERNS0_6sampleERNS_9callbacks6loggerE"
 "_ZN4stan4mcmc9base_nutsIN25model_RP_expert_namespace15model_RP_expertENS0_13unit_e_metricENS0_13expl_leapfrogEN5boost6random23additive_combine_engineINS7_26linear_congruential_engineIjLj40014ELj0ELj2147483563EEENS9_IjLj40692ELj0ELj2147483399EEEEEE17compute_criterionERN5Eigen6MatrixIdLin1ELi1ELi0ELin1ELi1EEESH_SH_"
 "_ZN4stan4mcmc9base_nutsIN25model_RP_expert_namespace15model_RP_expertENS0_13unit_e_metricENS0_13expl_leapfrogEN5boost6random23additive_combine_engineINS7_26linear_congruential_engineIjLj40014ELj0ELj2147483563EEENS9_IjLj40692ELj0ELj2147483399EEEEEE18get_sampler_paramsERSt6vectorIdSaIdEE"
 "_ZN4stan4mcmc9base_nutsIN25model_RP_expert_namespace15model_RP_expertENS0_13unit_e_metricENS0_13expl_leapfrogEN5boost6random23additive_combine_engineINS7_26linear_congruential_engineIjLj40014ELj0ELj2147483563EEENS9_IjLj40692ELj0ELj2147483399EEEEEE23get_sampler_param_namesERSt6vectorINSt7__cxx1112basic_stringIcSt11char_traitsIcESaIcEEESaISK_EE"
 "_ZN4stan4mcmc9base_nutsIN25model_RP_expert_namespace15model_RP_expertENS0_13unit_e_metricENS0_13expl_leapfrogEN5boost6random23additive_combine_engineINS7_26linear_congruential_engineIjLj40014ELj0ELj2147483563EEENS9_IjLj40692ELj0ELj2147483399EEEEEED0Ev"
 "_ZN4stan4mcmc9base_nutsIN25model_RP_expert_namespace15model_RP_expertENS0_13unit_e_metricENS0_13expl_leapfrogEN5boost6random23additive_combine_engineINS7_26linear_congruential_engineIjLj40014ELj0ELj2147483563EEENS9_IjLj40692ELj0ELj2147483399EEEEEED1Ev"
 "_ZN4stan4mcmc9base_nutsIN25model_RP_expert_namespace15model_RP_expertENS0_14dense_e_metricENS0_13expl_leapfrogEN5boost6random23additive_combine_engineINS7_26linear_congruential_engineIjLj40014ELj0ELj2147483563EEENS9_IjLj40692ELj0ELj2147483399EEEEEE10build_treeEiRNS0_8ps_pointERN5Eigen6MatrixIdLin1ELi1ELi0ELin1ELi1EEESJ_SJ_SJ_SJ_ddRiRdSL_RNS_9callbacks6loggerE"
 "_ZN4stan4mcmc9base_nutsIN25model_RP_expert_namespace15model_RP_expertENS0_14dense_e_metricENS0_13expl_leapfrogEN5boost6random23additive_combine_engineINS7_26linear_congruential_engineIjLj40014ELj0ELj2147483563EEENS9_IjLj40692ELj0ELj2147483399EEEEEE10transitionERNS0_6sampleERNS_9callbacks6loggerE"
 "_ZN4stan4mcmc9base_nutsIN25model_RP_expert_namespace15model_RP_expertENS0_14dense_e_metricENS0_13expl_leapfrogEN5boost6random23additive_combine_engineINS7_26linear_congruential_engineIjLj40014ELj0ELj2147483563EEENS9_IjLj40692ELj0ELj2147483399EEEEEE17compute_criterionERN5Eigen6MatrixIdLin1ELi1ELi0ELin1ELi1EEESH_SH_"
 "_ZN4stan4mcmc9base_nutsIN25model_RP_expert_namespace15model_RP_expertENS0_14dense_e_metricENS0_13expl_leapfrogEN5boost6random23additive_combine_engineINS7_26linear_congruential_engineIjLj40014ELj0ELj2147483563EEENS9_IjLj40692ELj0ELj2147483399EEEEEE18get_sampler_paramsERSt6vectorIdSaIdEE"
 "_ZN4stan4mcmc9base_nutsIN25model_RP_expert_namespace15model_RP_expertENS0_14dense_e_metricENS0_13expl_leapfrogEN5boost6random23additive_combine_engineINS7_26linear_congruential_engineIjLj40014ELj0ELj2147483563EEENS9_IjLj40692ELj0ELj2147483399EEEEEE23get_sampler_param_namesERSt6vectorINSt7__cxx1112basic_stringIcSt11char_traitsIcESaIcEEESaISK_EE"
 "_ZN4stan4mcmc9base_nutsIN25model_RP_expert_namespace15model_RP_expertENS0_14dense_e_metricENS0_13expl_leapfrogEN5boost6random23additive_combine_engineINS7_26linear_congruential_engineIjLj40014ELj0ELj2147483563EEENS9_IjLj40692ELj0ELj2147483399EEEEEED0Ev"
 "_ZN4stan4mcmc9base_nutsIN25model_RP_expert_namespace15model_RP_expertENS0_14dense_e_metricENS0_13expl_leapfrogEN5boost6random23additive_combine_engineINS7_26linear_congruential_engineIjLj40014ELj0ELj2147483563EEENS9_IjLj40692ELj0ELj2147483399EEEEEED1Ev"
 "_ZN4stan5model13log_prob_gradILb1ELb0EN25model_RP_expert_namespace15model_RP_expertEEEdRKT1_RSt6vectorIdSaIdEERS7_IiSaIiEESA_PSo"
 "_ZN4stan5model13log_prob_gradILb1ELb1EN25model_RP_expert_namespace15model_RP_expertEEEdRKT1_RSt6vectorIdSaIdEERS7_IiSaIiEESA_PSo"
 "_ZN4stan5model14test_gradientsILb1ELb1EN25model_RP_expert_namespace15model_RP_expertEEEiRKT1_RSt6vectorIdSaIdEERS7_IiSaIiEEddRNS_9callbacks9interruptERNSE_6loggerERNSE_6writerE"
 "_ZN4stan5model15log_prob_proptoILb0EN25model_RP_expert_namespace15model_RP_expertEEEdRKT0_RSt6vectorIdSaIdEERS7_IiSaIiEEPSo"
 "_ZN4stan5model15log_prob_proptoILb1EN25model_RP_expert_namespace15model_RP_expertEEEdRKT0_RSt6vectorIdSaIdEERS7_IiSaIiEEPSo"
 "_ZN4stan5model18grad_hess_log_probILb1ELb0EN25model_RP_expert_namespace15model_RP_expertEEEdRKT1_RSt6vectorIdSaIdEERS7_IiSaIiEESA_SA_PSo"
 "_ZN4stan5model6rvalueISt6vectorIS2_IdSaIdEESaIS4_EENS0_10index_omniENS0_15cons_index_listIS7_NS8_INS0_9index_uniENS0_14nil_index_listEEEEEEENS0_13rvalue_returnIS2_IT_SaISE_EENS8_IT0_T1_EEE4typeERKSG_RKSJ_PKci"
 "_ZN4stan5model8gradientIN25model_RP_expert_namespace15model_RP_expertEEEvRKT_RKN5Eigen6MatrixIdLin1ELi1ELi0ELin1ELi1EEERdRS9_RNS_9callbacks6loggerE"
 "_ZN4stan5model9prob_gradD0Ev"
 "_ZN4stan5model9prob_gradD1Ev"
 "_ZN4stan8services12experimental4advi8fullrankIN25model_RP_expert_namespace15model_RP_expertEEEiRT_RNS_2io11var_contextEjjdiiiddbiiiRNS_9callbacks9interruptERNSB_6loggerERNSB_6writerESH_SH_"
 "_ZN4stan8services12experimental4advi9meanfieldIN25model_RP_expert_namespace15model_RP_expertEEEiRT_RNS_2io11var_contextEjjdiiiddbiiiRNS_9callbacks9interruptERNSB_6loggerERNSB_6writerESH_SH_"
 "_ZN4stan8services19standalone_generateIN25model_RP_expert_namespace15model_RP_expertEEEiRKT_RKN5Eigen6MatrixIdLin1ELin1ELi0ELin1ELin1EEEjRNS_9callbacks9interruptERNSC_6loggerERNSC_6writerE"
 "_ZN4stan8services20get_model_parametersIN25model_RP_expert_namespace15model_RP_expertEEEvRKT_RSt6vectorINSt7__cxx1112basic_stringIcSt11char_traitsIcESaIcEEESaISD_EERS7_IS7_IySaIyEESaISI_EE"
 "_ZN4stan8services4util10create_rngEjj"
 "_ZN4stan8services4util10initializeILb0EN25model_RP_expert_namespace15model_RP_expertEN5boost6random23additive_combine_engineINS6_26linear_congruential_engineIjLj40014ELj0ELj2147483563EEENS8_IjLj40692ELj0ELj2147483399EEEEEEESt6vectorIdSaIdEERT0_RNS_2io11var_contextERT1_dbRNS_9callbacks6loggerERNSM_6writerE"
 "_ZN4stan8services4util10initializeILb1EN25model_RP_expert_namespace15model_RP_expertEN5boost6random23additive_combine_engineINS6_26linear_congruential_engineIjLj40014ELj0ELj2147483563EEENS8_IjLj40692ELj0ELj2147483399EEEEEEESt6vectorIdSaIdEERT0_RNS_2io11var_contextERT1_dbRNS_9callbacks6loggerERNSM_6writerE"
 "_ZN4stan8services4util11mcmc_writer10log_timingEdd"
 "_ZN4stan8services4util11mcmc_writer12write_timingEddRNS_9callbacks6writerE"
 "_ZN4stan8services4util11mcmc_writer18write_adapt_finishERNS_4mcmc9base_mcmcE"
 "_ZN4stan8services4util11mcmc_writer18write_sample_namesIN25model_RP_expert_namespace15model_RP_expertEEEvRNS_4mcmc6sampleERNS6_9base_mcmcERT_"
 "_ZN4stan8services4util11mcmc_writer19write_sample_paramsIN25model_RP_expert_namespace15model_RP_expertEN5boost6random23additive_combine_engineINS7_26linear_congruential_engineIjLj40014ELj0ELj2147483563EEENS9_IjLj40692ELj0ELj2147483399EEEEEEEvRT0_RNS_4mcmc6sampleERNSF_9base_mcmcERT_"
 "_ZN4stan8services4util11mcmc_writer22write_diagnostic_namesIN25model_RP_expert_namespace15model_RP_expertEEEvNS_4mcmc6sampleERNS6_9base_mcmcERT_"
 "_ZN4stan8services4util11run_samplerIN25model_RP_expert_namespace15model_RP_expertEN5boost6random23additive_combine_engineINS6_26linear_congruential_engineIjLj40014ELj0ELj2147483563EEENS8_IjLj40692ELj0ELj2147483399EEEEEEEvRNS_4mcmc9base_mcmcERT_RSt6vectorIdSaIdEEiiiibRT0_RNS_9callbacks9interruptERNSN_6loggerERNSN_6writerEST_"
 "_ZN4stan8services4util20experimental_messageERNS_9callbacks6loggerE"
 "_ZN4stan8services4util20generate_transitionsIN25model_RP_expert_namespace15model_RP_expertEN5boost6random23additive_combine_engineINS6_26linear_congruential_engineIjLj40014ELj0ELj2147483563EEENS8_IjLj40692ELj0ELj2147483399EEEEEEEvRNS_4mcmc9base_mcmcEiiiiibbRNS1_11mcmc_writerERNSC_6sampleERT_RT0_RNS_9callbacks9interruptERNSN_6loggerE"
 "_ZN4stan8services4util20read_diag_inv_metricERNS_2io11var_contextEyRNS_9callbacks6loggerE"
 "_ZN4stan8services4util20run_adaptive_samplerINS_4mcmc17adapt_diag_e_nutsIN25model_RP_expert_namespace15model_RP_expertEN5boost6random23additive_combine_engineINS8_26linear_congruential_engineIjLj40014ELj0ELj2147483563EEENSA_IjLj40692ELj0ELj2147483399EEEEEEES6_SD_EEvRT_RT0_RSt6vectorIdSaIdEEiiiibRT1_RNS_9callbacks9interruptERNSP_6loggerERNSP_6writerESV_"
 "_ZN4stan8services4util20run_adaptive_samplerINS_4mcmc17adapt_unit_e_nutsIN25model_RP_expert_namespace15model_RP_expertEN5boost6random23additive_combine_engineINS8_26linear_congruential_engineIjLj40014ELj0ELj2147483563EEENSA_IjLj40692ELj0ELj2147483399EEEEEEES6_SD_EEvRT_RT0_RSt6vectorIdSaIdEEiiiibRT1_RNS_9callbacks9interruptERNSP_6loggerERNSP_6writerESV_"
 "_ZN4stan8services4util20run_adaptive_samplerINS_4mcmc18adapt_dense_e_nutsIN25model_RP_expert_namespace15model_RP_expertEN5boost6random23additive_combine_engineINS8_26linear_congruential_engineIjLj40014ELj0ELj2147483563EEENSA_IjLj40692ELj0ELj2147483399EEEEEEES6_SD_EEvRT_RT0_RSt6vectorIdSaIdEEiiiibRT1_RNS_9callbacks9interruptERNSP_6loggerERNSP_6writerESV_"
 "_ZN4stan8services4util20run_adaptive_samplerINS_4mcmc23adapt_diag_e_static_hmcIN25model_RP_expert_namespace15model_RP_expertEN5boost6random23additive_combine_engineINS8_26linear_congruential_engineIjLj40014ELj0ELj2147483563EEENSA_IjLj40692ELj0ELj2147483399EEEEEEES6_SD_EEvRT_RT0_RSt6vectorIdSaIdEEiiiibRT1_RNS_9callbacks9interruptERNSP_6loggerERNSP_6writerESV_"
 "_ZN4stan8services4util20run_adaptive_samplerINS_4mcmc23adapt_unit_e_static_hmcIN25model_RP_expert_namespace15model_RP_expertEN5boost6random23additive_combine_engineINS8_26linear_congruential_engineIjLj40014ELj0ELj2147483563EEENSA_IjLj40692ELj0ELj2147483399EEEEEEES6_SD_EEvRT_RT0_RSt6vectorIdSaIdEEiiiibRT1_RNS_9callbacks9interruptERNSP_6loggerERNSP_6writerESV_"
 "_ZN4stan8services4util20run_adaptive_samplerINS_4mcmc24adapt_dense_e_static_hmcIN25model_RP_expert_namespace15model_RP_expertEN5boost6random23additive_combine_engineINS8_26linear_congruential_engineIjLj40014ELj0ELj2147483563EEENSA_IjLj40692ELj0ELj2147483399EEEEEEES6_SD_EEvRT_RT0_RSt6vectorIdSaIdEEiiiibRT1_RNS_9callbacks9interruptERNSP_6loggerERNSP_6writerESV_"
 "_ZN4stan8services4util21read_dense_inv_metricERNS_2io11var_contextEyRNS_9callbacks6loggerE"
 "_ZN4stan8services4util24validate_diag_inv_metricERKN5Eigen6MatrixIdLin1ELi1ELi0ELin1ELi1EEERNS_9callbacks6loggerE"
 "_ZN4stan8services4util25validate_dense_inv_metricERKN5Eigen6MatrixIdLin1ELin1ELi0ELin1ELin1EEERNS_9callbacks6loggerE"
 "_ZN4stan8services4util29create_unit_e_diag_inv_metricEy"
 "_ZN4stan8services4util30create_unit_e_dense_inv_metricEy"
 "_ZN4stan8services4util9gq_writer15write_gq_valuesIN25model_RP_expert_namespace15model_RP_expertEN5boost6random23additive_combine_engineINS7_26linear_congruential_engineIjLj40014ELj0ELj2147483563EEENS9_IjLj40692ELj0ELj2147483399EEEEEEEvRKT_RT0_RKSt6vectorIdSaIdEE"
 "_ZN4stan8services6sample11fixed_paramIN25model_RP_expert_namespace15model_RP_expertEEEiRT_RNS_2io11var_contextEjjdiiiRNS_9callbacks9interruptERNSA_6loggerERNSA_6writerESG_SG_"
 "_ZN4stan8services6sample15hmc_nuts_diag_eIN25model_RP_expert_namespace15model_RP_expertEEEiRT_RNS_2io11var_contextES9_jjdiiibiddiRNS_9callbacks9interruptERNSA_6loggerERNSA_6writerESG_SG_"
 "_ZN4stan8services6sample16hmc_nuts_dense_eIN25model_RP_expert_namespace15model_RP_expertEEEiRT_RNS_2io11var_contextES9_jjdiiibiddiRNS_9callbacks9interruptERNSA_6loggerERNSA_6writerESG_SG_"
 "_ZN4stan8services6sample17hmc_static_diag_eIN25model_RP_expert_namespace15model_RP_expertEEEiRT_RNS_2io11var_contextES9_jjdiiibidddRNS_9callbacks9interruptERNSA_6loggerERNSA_6writerESG_SG_"
 "_ZN4stan8services6sample18hmc_static_dense_eIN25model_RP_expert_namespace15model_RP_expertEEEiRT_RNS_2io11var_contextES9_jjdiiibidddRNS_9callbacks9interruptERNSA_6loggerERNSA_6writerESG_SG_"
 "_ZN4stan8services6sample21hmc_nuts_diag_e_adaptIN25model_RP_expert_namespace15model_RP_expertEEEiRT_RNS_2io11var_contextES9_jjdiiibiddiddddjjjRNS_9callbacks9interruptERNSA_6loggerERNSA_6writerESG_SG_"
 "_ZN4stan8services6sample22hmc_nuts_dense_e_adaptIN25model_RP_expert_namespace15model_RP_expertEEEiRT_RNS_2io11var_contextES9_jjdiiibiddiddddjjjRNS_9callbacks9interruptERNSA_6loggerERNSA_6writerESG_SG_"
 "_ZN4stan8services6sample23hmc_static_diag_e_adaptIN25model_RP_expert_namespace15model_RP_expertEEEiRT_RNS_2io11var_contextEjjdiiibidddddddjjjRNS_9callbacks9interruptERNSA_6loggerERNSA_6writerESG_SG_"
 "_ZN4stan8services6sample24hmc_static_dense_e_adaptIN25model_RP_expert_namespace15model_RP_expertEEEiRT_RNS_2io11var_contextES9_jjdiiibidddddddjjjRNS_9callbacks9interruptERNSA_6loggerERNSA_6writerESG_SG_"
 "_ZN4stan8services8optimize4bfgsIN25model_RP_expert_namespace15model_RP_expertEEEiRT_RNS_2io11var_contextEjjdddddddibiRNS_9callbacks9interruptERNSA_6loggerERNSA_6writerESG_"
 "_ZN4stan8services8optimize5lbfgsIN25model_RP_expert_namespace15model_RP_expertEEEiRT_RNS_2io11var_contextEjjdiddddddibiRNS_9callbacks9interruptERNSA_6loggerERNSA_6writerESG_"
 "_ZN4stan8services8optimize6newtonIN25model_RP_expert_namespace15model_RP_expertEEEiRT_RNS_2io11var_contextEjjdibRNS_9callbacks9interruptERNSA_6loggerERNSA_6writerESG_"
 "_ZN4stan9callbacks13stream_logger4infoERKNSt7__cxx1112basic_stringIcSt11char_traitsIcESaIcEEE"
 "_ZN4stan9callbacks13stream_logger4infoERKNSt7__cxx1118basic_stringstreamIcSt11char_traitsIcESaIcEEE"
 "_ZN4stan9callbacks13stream_logger4warnERKNSt7__cxx1112basic_stringIcSt11char_traitsIcESaIcEEE"
 "_ZN4stan9callbacks13stream_logger4warnERKNSt7__cxx1118basic_stringstreamIcSt11char_traitsIcESaIcEEE"
 "_ZN4stan9callbacks13stream_logger5debugERKNSt7__cxx1112basic_stringIcSt11char_traitsIcESaIcEEE"
 "_ZN4stan9callbacks13stream_logger5debugERKNSt7__cxx1118basic_stringstreamIcSt11char_traitsIcESaIcEEE"
 "_ZN4stan9callbacks13stream_logger5errorERKNSt7__cxx1112basic_stringIcSt11char_traitsIcESaIcEEE"
 "_ZN4stan9callbacks13stream_logger5errorERKNSt7__cxx1118basic_stringstreamIcSt11char_traitsIcESaIcEEE"
 "_ZN4stan9callbacks13stream_logger5fatalERKNSt7__cxx1112basic_stringIcSt11char_traitsIcESaIcEEE"
 "_ZN4stan9callbacks13stream_logger5fatalERKNSt7__cxx1118basic_stringstreamIcSt11char_traitsIcESaIcEEE"
 "_ZN4stan9callbacks13stream_loggerD0Ev"
 "_ZN4stan9callbacks13stream_loggerD1Ev"
 "_ZN4stan9callbacks13stream_writerD0Ev"
 "_ZN4stan9callbacks13stream_writerD1Ev"
 "_ZN4stan9callbacks13stream_writerclERKNSt7__cxx1112basic_stringIcSt11char_traitsIcESaIcEEE"
 "_ZN4stan9callbacks13stream_writerclERKSt6vectorINSt7__cxx1112basic_stringIcSt11char_traitsIcESaIcEEESaIS8_EE"
 "_ZN4stan9callbacks13stream_writerclERKSt6vectorIdSaIdEE"
 "_ZN4stan9callbacks13stream_writerclEv"
 "_ZN4stan9callbacks27stream_logger_with_chain_id4infoERKNSt7__cxx1112basic_stringIcSt11char_traitsIcESaIcEEE"
 "_ZN4stan9callbacks27stream_logger_with_chain_id4infoERKNSt7__cxx1118basic_stringstreamIcSt11char_traitsIcESaIcEEE"
 "_ZN4stan9callbacks27stream_logger_with_chain_id4warnERKNSt7__cxx1112basic_stringIcSt11char_traitsIcESaIcEEE"
 "_ZN4stan9callbacks27stream_logger_with_chain_id4warnERKNSt7__cxx1118basic_stringstreamIcSt11char_traitsIcESaIcEEE"
 "_ZN4stan9callbacks27stream_logger_with_chain_id5debugERKNSt7__cxx1112basic_stringIcSt11char_traitsIcESaIcEEE"
 "_ZN4stan9callbacks27stream_logger_with_chain_id5debugERKNSt7__cxx1118basic_stringstreamIcSt11char_traitsIcESaIcEEE"
 "_ZN4stan9callbacks27stream_logger_with_chain_id5errorERKNSt7__cxx1112basic_stringIcSt11char_traitsIcESaIcEEE"
 "_ZN4stan9callbacks27stream_logger_with_chain_id5errorERKNSt7__cxx1118basic_stringstreamIcSt11char_traitsIcESaIcEEE"
 "_ZN4stan9callbacks27stream_logger_with_chain_id5fatalERKNSt7__cxx1112basic_stringIcSt11char_traitsIcESaIcEEE"
 "_ZN4stan9callbacks27stream_logger_with_chain_id5fatalERKNSt7__cxx1118basic_stringstreamIcSt11char_traitsIcESaIcEEE"
 "_ZN4stan9callbacks27stream_logger_with_chain_idD0Ev"
 "_ZN4stan9callbacks27stream_logger_with_chain_idD1Ev"
 "_ZN4stan9callbacks6writerD0Ev"
 "_ZN4stan9callbacks6writerD1Ev"
 "_ZN4stan9callbacks6writerclERKNSt7__cxx1112basic_stringIcSt11char_traitsIcESaIcEEE"
 "_ZN4stan9callbacks6writerclERKSt6vectorINSt7__cxx1112basic_stringIcSt11char_traitsIcESaIcEEESaIS8_EE"
 "_ZN4stan9callbacks6writerclERKSt6vectorIdSaIdEE"
 "_ZN4stan9callbacks6writerclEv"
 "_ZN5Eigen10MatrixBaseINS_5BlockINS_6MatrixIdLin1ELin1ELi0ELin1ELin1EEELin1ELin1ELb0EEEE25applyHouseholderOnTheLeftINS1_IKS3_Lin1ELi1ELb0EEEEEvRKT_RKdPd"
 "_ZN5Eigen10MatrixBaseINS_5BlockINS_6MatrixIdLin1ELin1ELi0ELin1ELin1EEELin1ELin1ELb0EEEE26applyHouseholderOnTheRightINS1_IKS3_Lin1ELi1ELb0EEEEEvRKT_RKdPd"
 "_ZN5Eigen15PlainObjectBaseINS_6MatrixIN4stan4math3varELin1ELi1ELi0ELin1ELi1EEEE6resizeExx"
 "_ZN5Eigen15PlainObjectBaseINS_6MatrixIdLin1ELi1ELi0ELin1ELi1EEEE6resizeExx"
 "_ZN5Eigen15PlainObjectBaseINS_6MatrixIdLin1ELi1ELi0ELin1ELi1EEEEC2INS_12CwiseUnaryOpIZN4stan4math18apply_scalar_unaryINS7_7log_funES2_E5applyERKS2_EUldE_SB_EEEERKNS_9DenseBaseIT_EE"
 "_ZN5Eigen15PlainObjectBaseINS_6MatrixIdLin1ELi1ELi0ELin1ELi1EEEEC2INS_13CwiseBinaryOpINS_8internal13scalar_sum_opIddEEKS2_S9_EEEERKNS_9DenseBaseIT_EE"
 "_ZN5Eigen15PlainObjectBaseINS_6MatrixIdLin1ELi1ELi0ELin1ELi1EEEEC2INS_13CwiseBinaryOpINS_8internal17scalar_product_opIddEEKS2_S9_EEEERKNS_9DenseBaseIT_EE"
 "_ZN5Eigen15PlainObjectBaseINS_6MatrixIdLin1ELi1ELi0ELin1ELi1EEEEC2INS_14CwiseNullaryOpINS_8internal18scalar_constant_opIdEES2_EEEERKNS_9DenseBaseIT_EE"
 "_ZN5Eigen15PlainObjectBaseINS_6MatrixIdLin1ELi1ELi0ELin1ELi1EEEEC2INS_3MapIS2_Li0ENS_6StrideILi0ELi0EEEEEEERKNS_9DenseBaseIT_EE"
 "_ZN5Eigen15PlainObjectBaseINS_6MatrixIdLin1ELin1ELi0ELin1ELin1EEEE6resizeExx"
 "_ZN5Eigen22SelfAdjointEigenSolverINS_6MatrixIdLin1ELin1ELi0ELin1ELin1EEEE7computeIS2_EERS3_RKNS_9EigenBaseIT_EEi"
 "_ZN5Eigen3LLTINS_6MatrixIdLin1ELin1ELi0ELin1ELin1EEELi1EE7computeIS2_EERS3_RKNS_9EigenBaseIT_EE"
 "_ZN5Eigen4LDLTINS_6MatrixIdLin1ELin1ELi0ELin1ELin1EEELi1EE7computeIS2_EERS3_RKNS_9EigenBaseIT_EE"
 "_ZN5Eigen6MatrixIdLin1ELi1ELi0ELin1ELi1EEC1INS_14CwiseNullaryOpINS_8internal18scalar_constant_opIdEES1_EEEERKT_"
 "_ZN5Eigen6MatrixIdLin1ELi1ELi0ELin1ELi1EEC1IxEERKT_"
 "_ZN5Eigen8internal11gebp_kernelIddxNS0_16blas_data_mapperIdxLi0ELi0ELi1EEELi4ELi4ELb0ELb0EEclERKS3_PKdS8_xxxdxxxx"
 "_ZN5Eigen8internal11llt_inplaceIdLi1EE7blockedINS_6MatrixIdLin1ELin1ELi0ELin1ELin1EEEEExRT_"
 "_ZN5Eigen8internal11llt_inplaceIdLi1EE9unblockedINS_6MatrixIdLin1ELin1ELi0ELin1ELin1EEEEExRT_"
 "_ZN5Eigen8internal12ldlt_inplaceILi1EE9unblockedINS_6MatrixIdLin1ELin1ELi0ELin1ELin1EEENS_14TranspositionsILin1ELin1EiEENS4_IdLin1ELi1ELi0ELin1ELi1EEEEEbRT_RT0_RT1_RNS0_10SignMatrixE"
 "_ZN5Eigen8internal13gemm_pack_lhsIdxNS0_16blas_data_mapperIdxLi0ELi0ELi1EEELi4ELi2ELi0ELb0ELb1EEclEPdRKS3_xxxx"
 "_ZN5Eigen8internal13gemm_pack_lhsIdxNS0_22const_blas_data_mapperIdxLi0EEELi4ELi2ELi0ELb0ELb0EEclEPdRKS3_xxxx"
 "_ZN5Eigen8internal13gemm_pack_lhsIdxNS0_22const_blas_data_mapperIdxLi1EEELi4ELi2ELi1ELb0ELb0EEclEPdRKS3_xxxx"
 "_ZN5Eigen8internal13gemm_pack_rhsIdxNS0_22const_blas_data_mapperIdxLi0EEELi4ELi0ELb0ELb0EEclEPdRKS3_xxxx"
 "_ZN5Eigen8internal13gemm_pack_rhsIdxNS0_22const_blas_data_mapperIdxLi1EEELi4ELi1ELb0ELb0EEclEPdRKS3_xxxx"
 "_ZN5Eigen8internal13gemm_pack_rhsIdxNS0_22const_blas_data_mapperIdxLi1EEELi4ELi1ELb0ELb1EEclEPdRKS3_xxxx"
 "_ZN5Eigen8internal14aligned_mallocEy"
 "_ZN5Eigen8internal19gemv_dense_selectorILi2ELi1ELb1EE3runINS_9TransposeIKNS_5BlockINS5_INS_6MatrixIdLin1ELin1ELi0ELin1ELin1EEELin1ELin1ELb0EEELin1ELin1ELb0EEEEENS4_IKNS4_IKNS5_IKS7_Lin1ELi1ELb0EEEEEEENS4_INS_3MapINS6_IdLi1ELin1ELi1ELi1ELin1EEELi0ENS_6StrideILi0ELi0EEEEEEEEEvRKT_RKT0_RT1_RKNSU_6ScalarE"
 "_ZN5Eigen8internal19gemv_dense_selectorILi2ELi1ELb1EE3runINS_9TransposeIKNS_6MatrixIdLin1ELin1ELi0ELin1ELin1EEEEENS4_IKNS_13CwiseBinaryOpINS0_17scalar_product_opIddEEKNS_14CwiseNullaryOpINS0_18scalar_constant_opIdEEKNS5_IdLi1ELin1ELi1ELi1ELin1EEEEEKNS4_INS5_IdLin1ELi1ELi0ELin1ELi1EEEEEEEEENS4_ISF_EEEEvRKT_RKT0_RT1_RKNSW_6ScalarE"
 "_ZN5Eigen8internal19gemv_dense_selectorILi2ELi1ELb1EE3runINS_9TransposeINS_6MatrixIdLin1ELin1ELi0ELin1ELin1EEEEENS5_IdLin1ELi1ELi0ELin1ELi1EEES8_EEvRKT_RKT0_RT1_RKNSF_6ScalarE"
 "_ZN5Eigen8internal19throw_std_bad_allocEv"
 "_ZN5Eigen8internal21dense_assignment_loopINS0_31generic_dense_assignment_kernelINS0_9evaluatorINS_12ArrayWrapperINS_6MatrixIdLin1ELi1ELi0ELin1ELi1EEEEEEENS3_INS_14CwiseNullaryOpINS0_18scalar_constant_opIdEENS_5ArrayIdLin1ELi1ELi0ELin1ELi1EEEEEEENS0_13add_assign_opIddEELi0EEELi3ELi0EE3runERSI_"
 "_ZN5Eigen8internal21dense_assignment_loopINS0_31generic_dense_assignment_kernelINS0_9evaluatorINS_5BlockINS_6MatrixIdLin1ELin1ELi0ELin1ELin1EEELin1ELi1ELb0EEEEENS3_INS_14CwiseNullaryOpINS0_18scalar_constant_opIdEENS5_IdLin1ELi1ELi0ELin1ELi1EEEEEEENS0_13div_assign_opIddEELi0EEELi3ELi0EE3runERSH_"
 "_ZN5Eigen8internal21dense_assignment_loopINS0_31generic_dense_assignment_kernelINS0_9evaluatorINS_5BlockINS_6MatrixIdLin1ELin1ELi0ELin1ELin1EEELin1ELin1ELb0EEEEENS3_INS_14CwiseNullaryOpINS0_18scalar_constant_opIdEES6_EEEENS0_13mul_assign_opIddEELi0EEELi4ELi0EE3runERSG_"
 "_ZN5Eigen8internal21dense_assignment_loopINS0_31generic_dense_assignment_kernelINS0_9evaluatorINS_6MatrixIdLin1ELi1ELi0ELin1ELi1EEEEENS3_INS_14CwiseNullaryOpINS0_18scalar_constant_opIdEES5_EEEENS0_13div_assign_opIddEELi0EEELi3ELi0EE3runERSE_"
 "_ZN5Eigen8internal21dense_assignment_loopINS0_31generic_dense_assignment_kernelINS0_9evaluatorINS_6MatrixIdLin1ELi1ELi0ELin1ELi1EEEEENS3_INS_14CwiseNullaryOpINS0_18scalar_constant_opIdEES5_EEEENS0_13mul_assign_opIddEELi0EEELi3ELi0EE3runERSE_"
 "_ZN5Eigen8internal21dense_assignment_loopINS0_31generic_dense_assignment_kernelINS0_9evaluatorINS_6MatrixIdLin1ELi1ELi0ELin1ELi1EEEEES6_NS0_13add_assign_opIddEELi0EEELi3ELi0EE3runERS9_"
 "_ZN5Eigen8internal23triangular_solve_matrixIdxLi2ELi2ELb0ELi1ELi0ELi1EE3runExxPKdxPdxxRNS0_15level3_blockingIddEE"
 "_ZN5Eigen8internal23triangular_solve_vectorIddxLi1ELi2ELb0ELi1EE3runExPKdxPd"
 "_ZN5Eigen8internal24selfadjoint_product_implINS_5BlockINS_6MatrixIdLin1ELin1ELi0ELin1ELin1EEELin1ELin1ELb0EEELi17ELb0ENS_13CwiseBinaryOpINS0_17scalar_product_opIddEEKNS_14CwiseNullaryOpINS0_18scalar_constant_opIdEEKNS3_IdLin1ELi1ELi0ELin1ELi1EEEEEKNS2_INS2_IS4_Lin1ELi1ELb1EEELin1ELi1ELb0EEEEELi0ELb1EE3runINS2_ISC_Lin1ELi1ELb0EEEEEvRT_RKS5_RKSJ_RKd"
 "_ZN5Eigen8internal26call_dense_assignment_loopINS_6MatrixIdLin1ELi1ELi0ELin1ELi1EEENS_12CwiseUnaryOpINS0_18scalar_opposite_opIdEEKS3_EENS0_9assign_opIddEEEEvRT_RKT0_RKT1_"
 "_ZN5Eigen8internal26call_dense_assignment_loopINS_6MatrixIdLin1ELi1ELi0ELin1ELi1EEENS_13CwiseBinaryOpINS0_13scalar_sum_opIddEEKS3_S7_EENS0_9assign_opIddEEEEvRT_RKT0_RKT1_"
 "_ZN5Eigen8internal26call_dense_assignment_loopINS_6MatrixIdLin1ELi1ELi0ELin1ELi1EEENS_13CwiseBinaryOpINS0_20scalar_difference_opIddEEKS3_S7_EENS0_9assign_opIddEEEEvRT_RKT0_RKT1_"
 "_ZN5Eigen8internal26call_dense_assignment_loopINS_6MatrixIdLin1ELi1ELi0ELin1ELi1EEENS_14CwiseNullaryOpINS0_18scalar_constant_opIdEES3_EENS0_9assign_opIddEEEEvRT_RKT0_RKT1_"
 "_ZN5Eigen8internal26call_dense_assignment_loopINS_6MatrixIdLin1ELi1ELi0ELin1ELi1EEENS_3MapIS3_Li0ENS_6StrideILi0ELi0EEEEENS0_9assign_opIddEEEEvRT_RKT0_RKT1_"
 "_ZN5Eigen8internal26call_dense_assignment_loopINS_6MatrixIdLin1ELi1ELi0ELin1ELi1EEES3_NS0_9assign_opIddEEEEvRT_RKT0_RKT1_"
 "_ZN5Eigen8internal26call_dense_assignment_loopINS_6MatrixIdLin1ELin1ELi0ELin1ELin1EEENS_14CwiseNullaryOpINS0_18scalar_constant_opIdEES3_EENS0_9assign_opIddEEEEvRT_RKT0_RKT1_"
 "_ZN5Eigen8internal26call_dense_assignment_loopINS_6MatrixIdLin1ELin1ELi0ELin1ELin1EEENS_14CwiseNullaryOpINS0_18scalar_identity_opIdEES3_EENS0_9assign_opIddEEEEvRT_RKT0_RKT1_"
 "_ZN5Eigen8internal26call_dense_assignment_loopINS_6MatrixIdLin1ELin1ELi0ELin1ELin1EEES3_NS0_9assign_opIddEEEEvRT_RKT0_RKT1_"
 "_ZN5Eigen8internal26outer_product_selector_runINS_5BlockINS2_INS_6MatrixIdLin1ELin1ELi0ELin1ELin1EEELin1ELin1ELb0EEELin1ELin1ELb0EEENS_13CwiseBinaryOpINS0_17scalar_product_opIddEEKNS_14CwiseNullaryOpINS0_18scalar_constant_opIdEEKNS3_IdLin1ELi1ELi0ELin1ELi1EEEEEKNS2_IKS4_Lin1ELi1ELb0EEEEENS_3MapINS3_IdLi1ELin1ELi1ELi1ELin1EEELi0ENS_6StrideILi0ELi0EEEEENS0_20generic_product_implISK_SP_NS_10DenseShapeESR_Li5EE3subEEEvRT_RKT0_RKT1_RKT2_RKNS0_10false_typeE"
 "_ZN5Eigen8internal26outer_product_selector_runINS_5BlockINS2_INS_6MatrixIdLin1ELin1ELi0ELin1ELin1EEELin1ELin1ELb0EEELin1ELin1ELb0EEENS_13CwiseBinaryOpINS0_17scalar_product_opIddEEKNS_14CwiseNullaryOpINS0_18scalar_constant_opIdEEKNS3_IdLin1ELi1ELi0ELin1ELi1EEEEEKNS_3MapISD_Li0ENS_6StrideILi0ELi0EEEEEEENS_9TransposeIKNS2_IKS4_Lin1ELi1ELb0EEEEENS0_20generic_product_implISM_SR_NS_10DenseShapeEST_Li5EE3subEEEvRT_RKT0_RKT1_RKT2_RKNS0_10false_typeE"
 "_ZN5Eigen8internal26outer_product_selector_runINS_6MatrixIdLin1ELin1ELi0ELin1ELin1EEENS_13CwiseBinaryOpINS0_17scalar_product_opIddEEKNS_14CwiseNullaryOpINS0_18scalar_constant_opIdEEKNS2_IdLin1ELi1ELi0ELin1ELi1EEEEESB_EENS_9TransposeISB_EENS0_20generic_product_implISE_SG_NS_10DenseShapeESI_Li5EE3addEEEvRT_RKT0_RKT1_RKT2_RKNS0_10false_typeE"
 "_ZN5Eigen8internal26triangular_solver_selectorIKNS_9TransposeIKNS_6MatrixIdLin1ELin1ELi0ELin1ELin1EEEEENS3_IdLin1ELi1ELi0ELin1ELi1EEELi1ELi2ELi0ELi1EE3runERS7_RS8_"
 "_ZN5Eigen8internal26tridiagonalization_inplaceINS_6MatrixIdLin1ELin1ELi0ELin1ELin1EEENS2_IdLin1ELi1ELi0ELin1ELi1EEEEEvRT_RT0_"
 "_ZN5Eigen8internal27computeFromTridiagonal_implINS_6MatrixIdLin1ELin1ELi0ELin1ELin1EEENS2_IdLin1ELi1ELi0ELin1ELi1EEES4_EENS_15ComputationInfoERT0_RT1_xbRT_"
 "_ZN5Eigen8internal29general_matrix_matrix_productIxdLi0ELb0EdLi0ELb0ELi0ELi1EE3runExxxPKdxS4_xPdxxdRNS0_15level3_blockingIddEEPNS0_16GemmParallelInfoIxEE"
 "_ZN5Eigen8internal29general_matrix_matrix_productIxdLi0ELb0EdLi1ELb0ELi0ELi1EE3runExxxPKdxS4_xPdxxdRNS0_15level3_blockingIddEEPNS0_16GemmParallelInfoIxEE"
 "_ZN5Eigen8internal29general_matrix_matrix_productIxdLi1ELb0EdLi0ELb0ELi0ELi1EE3runExxxPKdxS4_xPdxxdRNS0_15level3_blockingIddEEPNS0_16GemmParallelInfoIxEE"
 "_ZN5Eigen8internal29general_matrix_vector_productIxdNS0_22const_blas_data_mapperIdxLi0EEELi0ELb0EdNS2_IdxLi1EEELb0ELi0EE3runExxRKS3_RKS4_Pdxd"
 "_ZN5Eigen8internal29general_matrix_vector_productIxdNS0_22const_blas_data_mapperIdxLi1EEELi1ELb0EdNS2_IdxLi0EEELb0ELi0EE3runExxRKS3_RKS4_Pdxd"
 "_ZN5Eigen8internal33selfadjoint_matrix_vector_productIdxLi0ELi1ELb0ELb0ELi0EE3runExPKdxS4_Pdd"
 "_ZN5Eigen8internal37evaluateProductBlockingSizesHeuristicIddLi1ExEEvRT2_S3_S3_S2_"
 "_ZN5Eigen8internal37evaluateProductBlockingSizesHeuristicIddLi4ExEEvRT2_S3_S3_S2_"
 "_ZN5Eigen8internal40general_matrix_matrix_triangular_productIxdLi0ELb0EdLi1ELb0ELi0ELi1ELi1ELi0EE3runExxPKdxS4_xPdxxRS3_RNS0_15level3_blockingIddEE"
 "_ZN5boost10cb_details8iteratorINS_15circular_bufferINS_6tuples5tupleIdN5Eigen6MatrixIdLin1ELi1ELi0ELin1ELi1EEES7_NS3_9null_typeES8_S8_S8_S8_S8_S8_EESaIS9_EEENS0_15nonconst_traitsISA_EEEmIEx"
 "_ZN5boost10conversion6detail14throw_bad_castINSt7__cxx1112basic_stringIcSt11char_traitsIcESaIcEEEdEEvv"
 "_ZN5boost10error_infoINS_27tag_original_exception_typeEPKSt9type_infoED0Ev"
 "_ZN5boost10error_infoINS_27tag_original_exception_typeEPKSt9type_infoED1Ev"
 "_ZN5boost10wrapexceptINS_16bad_lexical_castEED0Ev"
 "_ZN5boost10wrapexceptINS_16bad_lexical_castEED1Ev"
 "_ZN5boost10wrapexceptINS_4math14rounding_errorEED0Ev"
 "_ZN5boost10wrapexceptINS_4math14rounding_errorEED1Ev"
 "_ZN5boost10wrapexceptINS_4math16evaluation_errorEED0Ev"
 "_ZN5boost10wrapexceptINS_4math16evaluation_errorEED1Ev"
 "_ZN5boost10wrapexceptISt11logic_errorED0Ev"
 "_ZN5boost10wrapexceptISt11logic_errorED1Ev"
 "_ZN5boost10wrapexceptISt12domain_errorED0Ev"
 "_ZN5boost10wrapexceptISt12domain_errorED1Ev"
 "_ZN5boost10wrapexceptISt12length_errorED0Ev"
 "_ZN5boost10wrapexceptISt12length_errorED1Ev"
 "_ZN5boost10wrapexceptISt14overflow_errorED0Ev"
 "_ZN5boost10wrapexceptISt14overflow_errorED1Ev"
 "_ZN5boost10wrapexceptISt16invalid_argumentED0Ev"
 "_ZN5boost10wrapexceptISt16invalid_argumentED1Ev"
 "_ZN5boost15circular_bufferIdSaIdEE7destroyEv"
 "_ZN5boost15throw_exceptionINS_16bad_lexical_castEEEvRKT_"
 "_ZN5boost15throw_exceptionINS_4math14rounding_errorEEEvRKT_"
 "_ZN5boost15throw_exceptionISt12length_errorEEvRKT_"
 "_ZN5boost15throw_exceptionISt14overflow_errorEEvRKT_"
 "_ZN5boost15throw_exceptionISt16invalid_argumentEEvRKT_RKNS_15source_locationE"
 "_ZN5boost16bad_lexical_castD0Ev"
 "_ZN5boost16bad_lexical_castD1Ev"
 "_ZN5boost16exception_detail10bad_alloc_D0Ev"
 "_ZN5boost16exception_detail10bad_alloc_D1Ev"
 "_ZN5boost16exception_detail10bad_alloc_D2Ev"
 "_ZN5boost16exception_detail10clone_implINS0_10bad_alloc_EED0Ev"
 "_ZN5boost16exception_detail10clone_implINS0_10bad_alloc_EED1Ev"
 "_ZN5boost16exception_detail10clone_implINS0_14bad_exception_EED0Ev"
 "_ZN5boost16exception_detail10clone_implINS0_14bad_exception_EED1Ev"
 "_ZN5boost16exception_detail14bad_exception_D0Ev"
 "_ZN5boost16exception_detail14bad_exception_D1Ev"
 "_ZN5boost16exception_detail14bad_exception_D2Ev"
 "_ZN5boost16exception_detail20copy_boost_exceptionEPNS_9exceptionEPKS1_"
 "_ZN5boost16exception_detail25error_info_container_impl3setERKNS_10shared_ptrINS0_15error_info_baseEEERKNS0_10type_info_E"
 "_ZN5boost16exception_detail27get_static_exception_objectINS0_10bad_alloc_EEENS_13exception_ptrEv"
 "_ZN5boost16exception_detail27get_static_exception_objectINS0_14bad_exception_EEENS_13exception_ptrEv"
 "_ZN5boost16exception_detail37exception_ptr_static_exception_objectINS0_10bad_alloc_EE1eE"
 "_ZN5boost16exception_detail37exception_ptr_static_exception_objectINS0_14bad_exception_EE1eE"
 "_ZN5boost4math14rounding_errorD0Ev"
 "_ZN5boost4math14rounding_errorD1Ev"
 "_ZN5boost4math16evaluation_errorD0Ev"
 "_ZN5boost4math16evaluation_errorD1Ev"
 "_ZN5boost4math19unchecked_factorialIdEET_j"
 "_ZN5boost4math19unchecked_factorialIeEET_j"
 "_ZN5boost4math5tools6detail23evaluate_rational_c_impIeeeEET1_PKT_PKT0_RKS4_PKNS_17integral_constantIiLi11EEE"
 "_ZN5boost4math5tools6detail23evaluate_rational_c_impIeeeEET1_PKT_PKT0_RKS4_PKNS_17integral_constantIiLi5EEE"
 "_ZN5boost4math5tools6detail23evaluate_rational_c_impIeeeEET1_PKT_PKT0_RKS4_PKNS_17integral_constantIiLi6EEE"
 "_ZN5boost4math5tools6detail23evaluate_rational_c_impIeeeEET1_PKT_PKT0_RKS4_PKNS_17integral_constantIiLi7EEE"
 "_ZN5boost4math5tools6detail23evaluate_rational_c_impIeeeEET1_PKT_PKT0_RKS4_PKNS_17integral_constantIiLi8EEE"
 "_ZN5boost4math5tools6detail23evaluate_rational_c_impIeyeEET1_PKT_PKT0_RKS4_PKNS_17integral_constantIiLi17EEE"
 "_ZN5boost4math5tools6detail25evaluate_polynomial_c_impIeeEET0_PKT_RKS4_PKNS_17integral_constantIiLi11EEE"
 "_ZN5boost4math5tools6detail25evaluate_polynomial_c_impIeeEET0_PKT_RKS4_PKNS_17integral_constantIiLi13EEE"
 "_ZN5boost4math5tools6detail25evaluate_polynomial_c_impIeeEET0_PKT_RKS4_PKNS_17integral_constantIiLi8EEE"
 "_ZN5boost4math5tools6detail25evaluate_polynomial_c_impIeeEET0_PKT_RKS4_PKNS_17integral_constantIiLi9EEE"
 "_ZN5boost4math6detail10lgamma_impIdNS0_8policies6policyINS3_10pole_errorILNS3_17error_policy_typeE1EEENS3_14overflow_errorILS6_1EEENS3_13promote_floatILb0EEENS3_14promote_doubleILb0EEENS3_14default_policyESE_SE_SE_SE_SE_SE_SE_SE_EENS0_7lanczos12lanczos13m53EEET_SI_RKT0_RKT1_Pi"
 "_ZN5boost4math6detail10lgamma_impIeNS0_8policies6policyINS3_13promote_floatILb0EEENS3_14promote_doubleILb0EEENS3_14default_policyES9_S9_S9_S9_S9_S9_S9_S9_S9_S9_EENS0_7lanczos12lanczos17m64EEET_SD_RKT0_RKT1_Pi"
 "_ZN5boost4math6detail11digamma_impIdNS_17integral_constantIiLi53EEENS0_8policies6policyINS5_10pole_errorILNS5_17error_policy_typeE1EEENS5_14overflow_errorILS8_1EEENS5_13promote_floatILb0EEENS5_14promote_doubleILb0EEENS5_14default_policyESG_SG_SG_SG_SG_SG_SG_SG_EEEET_SI_PKT0_RKT1_"
 "_ZN5boost4math6detail11digamma_impIeNS_17integral_constantIiLi64EEENS0_8policies6policyINS5_13promote_floatILb0EEENS5_14promote_doubleILb0EEENS5_14default_policyESB_SB_SB_SB_SB_SB_SB_SB_SB_SB_EEEET_SD_PKT0_RKT1_"
 "_ZN5boost4math6detail13bessel_i0_impIeEET_RKS3_RKNS_17integral_constantIiLi64EEE"
 "_ZN5boost4math6detail13bessel_i1_impIeEET_RKS3_RKNS_17integral_constantIiLi64EEE"
 "_ZN5boost4math6detail13bessel_k0_impIeEET_RKS3_RKNS_17integral_constantIiLi64EEE"
 "_ZN5boost4math6detail13bessel_k1_impIeEET_RKS3_RKNS_17integral_constantIiLi64EEE"
 "_ZN5boost4math6detail16lgamma_small_impIdNS0_8policies6policyINS3_10pole_errorILNS3_17error_policy_typeE1EEENS3_14overflow_errorILS6_1EEENS3_13promote_floatILb0EEENS3_14promote_doubleILb0EEENS3_14default_policyESE_SE_SE_SE_SE_SE_SE_SE_EENS0_7lanczos12lanczos13m53EEET_SI_SI_SI_RKNS_17integral_constantIiLi64EEERKT0_RKT1_"
 "_ZN5boost4math6detail16lgamma_small_impIeNS0_8policies6policyINS3_13promote_floatILb0EEENS3_14promote_doubleILb0EEENS3_14default_policyES9_S9_S9_S9_S9_S9_S9_S9_S9_S9_EENS0_7lanczos12lanczos17m64EEET_SD_SD_SD_RKNS_17integral_constantIiLi64EEERKT0_RKT1_"
 "_ZN5boost4math6detail16owens_t_dispatchIeNS0_8policies6policyINS3_14default_policyES5_S5_S5_S5_S5_S5_S5_S5_S5_S5_S5_S5_EEEET_S7_S7_S7_RKT0_RKNS_17integral_constantIiLi64EEE"
 "_ZN5boost4math6detail18full_igamma_prefixIeNS0_8policies6policyINS3_13promote_floatILb0EEENS3_14promote_doubleILb0EEENS3_14default_policyES9_S9_S9_S9_S9_S9_S9_S9_S9_S9_EEEET_SB_SB_RKT0_"
 "_ZN5boost4math6detail18igamma_temme_largeIeNS0_8policies6policyINS3_13promote_floatILb0EEENS3_14promote_doubleILb0EEENS3_14default_policyES9_S9_S9_S9_S9_S9_S9_S9_S9_S9_EEEET_SB_SB_RKT0_PKNS_17integral_constantIiLi64EEE"
 "_ZN5boost4math6detail18lower_gamma_seriesIeNS0_8policies6policyINS3_13promote_floatILb0EEENS3_14promote_doubleILb0EEENS3_14default_policyES9_S9_S9_S9_S9_S9_S9_S9_S9_S9_EEEET_SB_SB_RKT0_SB_"
 "_ZN5boost4math6detail19finite_half_gamma_qIeNS0_8policies6policyINS3_13promote_floatILb0EEENS3_14promote_doubleILb0EEENS3_14default_policyES9_S9_S9_S9_S9_S9_S9_S9_S9_S9_EEEET_SB_SB_PSB_RKT0_"
 "_ZN5boost4math6detail20gamma_incomplete_impIeNS0_8policies6policyINS3_13promote_floatILb0EEENS3_14promote_doubleILb0EEENS3_14default_policyES9_S9_S9_S9_S9_S9_S9_S9_S9_S9_EEEET_SB_SB_bbRKT0_PSB_"
 "_ZN5boost4math6detail20upper_gamma_fractionIeEET_S3_S3_S3_"
 "_ZN5boost4math6detail24regularised_gamma_prefixIeNS0_8policies6policyINS3_13promote_floatILb0EEENS3_14promote_doubleILb0EEENS3_14default_policyES9_S9_S9_S9_S9_S9_S9_S9_S9_S9_EENS0_7lanczos12lanczos17m64EEET_SD_SD_RKT0_RKT1_"
 "_ZN5boost4math6detail5sinpxIdEET_S3_"
 "_ZN5boost4math6detail5sinpxIeEET_S3_"
 "_ZN5boost4math6detail7erf_impIdNS0_8policies6policyINS3_10pole_errorILNS3_17error_policy_typeE1EEENS3_14overflow_errorILS6_1EEENS3_13promote_floatILb0EEENS3_14promote_doubleILb0EEENS3_14default_policyESE_SE_SE_SE_SE_SE_SE_SE_EEEET_SG_bRKT0_RKNS_17integral_constantIiLi53EEE"
 "_ZN5boost4math6detail7erf_impIeNS0_8policies6policyINS3_13promote_floatILb0EEENS3_14promote_doubleILb0EEENS3_14default_policyES9_S9_S9_S9_S9_S9_S9_S9_S9_S9_EEEET_SB_bRKT0_RKNS_17integral_constantIiLi64EEE"
 "_ZN5boost4math6detail9bessel_j0IeEET_S3_"
 "_ZN5boost4math6detail9bessel_j1IeEET_S3_"
 "_ZN5boost4math6detail9bessel_y1IeNS0_8policies6policyINS3_13promote_floatILb0EEENS3_14promote_doubleILb0EEENS3_14default_policyES9_S9_S9_S9_S9_S9_S9_S9_S9_S9_EEEET_SB_RKT0_"
 "_ZN5boost4math6detail9expm1_impIeNS0_8policies6policyINS3_13promote_floatILb0EEENS3_14promote_doubleILb0EEENS3_14default_policyES9_S9_S9_S9_S9_S9_S9_S9_S9_S9_EEEET_SB_RKNS_17integral_constantIiLi64EEERKT0_"
 "_ZN5boost4math6detail9gamma_impIdNS0_8policies6policyINS3_10pole_errorILNS3_17error_policy_typeE1EEENS3_14overflow_errorILS6_1EEENS3_13promote_floatILb0EEENS3_14promote_doubleILb0EEENS3_14default_policyESE_SE_SE_SE_SE_SE_SE_SE_EENS0_7lanczos12lanczos13m53EEET_SI_RKT0_RKT1_"
 "_ZN5boost4math6detail9gamma_impIeNS0_8policies6policyINS3_13promote_floatILb0EEENS3_14promote_doubleILb0EEENS3_14default_policyES9_S9_S9_S9_S9_S9_S9_S9_S9_S9_EENS0_7lanczos12lanczos17m64EEET_SD_RKT0_RKT1_"
 "_ZN5boost4math6detail9log1p_impIeNS0_8policies6policyINS3_13promote_floatILb0EEENS3_14promote_doubleILb0EEENS3_14default_policyES9_S9_S9_S9_S9_S9_S9_S9_S9_S9_EEEET_RKSB_RKT0_RKNS_17integral_constantIiLi64EEE"
 "_ZN5boost4math6detail9powm1_impIeNS0_8policies6policyINS3_13promote_floatILb0EEENS3_14promote_doubleILb0EEENS3_14default_policyES9_S9_S9_S9_S9_S9_S9_S9_S9_S9_EEEET_SB_SB_RKT0_"
 "_ZN5boost4math7log1pmxIeNS0_8policies6policyINS2_13promote_floatILb0EEENS2_14promote_doubleILb0EEENS2_14default_policyES8_S8_S8_S8_S8_S8_S8_S8_S8_S8_EEEENS0_5tools12promote_argsIT_fffffE4typeESC_RKT0_"
 "_ZN5boost4math7owens_tIddNS0_8policies6policyINS2_14default_policyES4_S4_S4_S4_S4_S4_S4_S4_S4_S4_S4_S4_EEEENS0_5tools12promote_argsIT_T0_ffffE4typeES8_S9_RKT1_"
 "_ZN5boost4math8policies6detail11prec_formatIeEENSt7__cxx1112basic_stringIcSt11char_traitsIcESaIcEEERKT_"
 "_ZN5boost4math8policies6detail11raise_errorINS0_14rounding_errorEdEEvPKcS6_RKT0_"
 "_ZN5boost4math8policies6detail11raise_errorINS0_14rounding_errorEeEEvPKcS6_RKT0_"
 "_ZN5boost4math8policies6detail11raise_errorINS0_16evaluation_errorEeEEvPKcS6_RKT0_"
 "_ZN5boost4math8policies6detail11raise_errorISt12domain_erroreEEvPKcS6_RKT0_"
 "_ZN5boost4math8policies6detail11raise_errorISt14overflow_errordEEvPKcS6_"
 "_ZN5boost4math8policies6detail11raise_errorISt14overflow_erroreEEvPKcS6_"
 "_ZN5boost4math8policies6detail21replace_all_in_stringERNSt7__cxx1112basic_stringIcSt11char_traitsIcESaIcEEEPKcSB_"
 "_ZN5boost6detail15sp_counted_base7destroyEv"
 "_ZN5boost6detail15sp_counted_base7releaseEv"
 "_ZN5boost6detail16basic_pointerbufIcSt15basic_streambufIcSt11char_traitsIcEEE6setbufEPcx"
 "_ZN5boost6detail16basic_pointerbufIcSt15basic_streambufIcSt11char_traitsIcEEE7seekoffExSt12_Ios_SeekdirSt13_Ios_Openmode"
 "_ZN5boost6detail16basic_pointerbufIcSt15basic_streambufIcSt11char_traitsIcEEE7seekposESt4fposIiESt13_Ios_Openmode"
 "_ZN5boost6detail17basic_unlockedbufISt15basic_streambufIcSt11char_traitsIcEEcED0Ev"
 "_ZN5boost6detail17basic_unlockedbufISt15basic_streambufIcSt11char_traitsIcEEcED1Ev"
 "_ZN5boost6detail17sp_counted_impl_pINS_16exception_detail10clone_implINS2_10bad_alloc_EEEE11get_deleterERKSt9type_info"
 "_ZN5boost6detail17sp_counted_impl_pINS_16exception_detail10clone_implINS2_10bad_alloc_EEEE17get_local_deleterERKSt9type_info"
 "_ZN5boost6detail17sp_counted_impl_pINS_16exception_detail10clone_implINS2_10bad_alloc_EEEE19get_untyped_deleterEv"
 "_ZN5boost6detail17sp_counted_impl_pINS_16exception_detail10clone_implINS2_10bad_alloc_EEEE7disposeEv"
 "_ZN5boost6detail17sp_counted_impl_pINS_16exception_detail10clone_implINS2_10bad_alloc_EEEED0Ev"
 "_ZN5boost6detail17sp_counted_impl_pINS_16exception_detail10clone_implINS2_10bad_alloc_EEEED1Ev"
 "_ZN5boost6detail17sp_counted_impl_pINS_16exception_detail10clone_implINS2_14bad_exception_EEEE11get_deleterERKSt9type_info"
 "_ZN5boost6detail17sp_counted_impl_pINS_16exception_detail10clone_implINS2_14bad_exception_EEEE17get_local_deleterERKSt9type_info"
 "_ZN5boost6detail17sp_counted_impl_pINS_16exception_detail10clone_implINS2_14bad_exception_EEEE19get_untyped_deleterEv"
 "_ZN5boost6detail17sp_counted_impl_pINS_16exception_detail10clone_implINS2_14bad_exception_EEEE7disposeEv"
 "_ZN5boost6detail17sp_counted_impl_pINS_16exception_detail10clone_implINS2_14bad_exception_EEEED0Ev"
 "_ZN5boost6detail17sp_counted_impl_pINS_16exception_detail10clone_implINS2_14bad_exception_EEEED1Ev"
 "_ZN5boost6detail17sp_counted_impl_pINS_16exception_detail15error_info_baseEE11get_deleterERKSt9type_info"
 "_ZN5boost6detail17sp_counted_impl_pINS_16exception_detail15error_info_baseEE17get_local_deleterERKSt9type_info"
 "_ZN5boost6detail17sp_counted_impl_pINS_16exception_detail15error_info_baseEE19get_untyped_deleterEv"
 "_ZN5boost6detail17sp_counted_impl_pINS_16exception_detail15error_info_baseEE7disposeEv"
 "_ZN5boost6detail17sp_counted_impl_pINS_16exception_detail15error_info_baseEED0Ev"
 "_ZN5boost6detail17sp_counted_impl_pINS_16exception_detail15error_info_baseEED1Ev"
 "_ZN5boost6detail18lcast_ret_unsignedISt11char_traitsIcEjcE22main_convert_iterationEv"
 "_ZN5boost6detail18lcast_ret_unsignedISt11char_traitsIcEjcE7convertEv"
 "_ZN5boost6detail18lcast_ret_unsignedISt11char_traitsIcEycE22main_convert_iterationEv"
 "_ZN5boost6random23additive_combine_engineINS0_26linear_congruential_engineIjLj40014ELj0ELj2147483563EEENS2_IjLj40692ELj0ELj2147483399EEEEclEv"
 "_ZN5boost6random6detail12normal_tableIdE7table_xE"
 "_ZN5boost6random6detail12normal_tableIdE7table_yE"
 "_ZN5boost6random6detail17exponential_tableIdE7table_xE"
 "_ZN5boost6random6detail17exponential_tableIdE7table_yE"
 "_ZN5boost6random6detail21generate_uniform_realINS0_23additive_combine_engineINS0_26linear_congruential_engineIjLj40014ELj0ELj2147483563EEENS4_IjLj40692ELj0ELj2147483399EEEEEdEET0_RT_S8_S8_"
 "_ZN5boost6random6detail23generate_int_float_pairIdLy8ENS0_23additive_combine_engineINS0_26linear_congruential_engineIjLj40014ELj0ELj2147483563EEENS4_IjLj40692ELj0ELj2147483399EEEEEEESt4pairIT_iERT1_NS_17integral_constantIbLb1EEE"
 "_ZN5boost6random6detail24unit_normal_distributionIdEclINS0_23additive_combine_engineINS0_26linear_congruential_engineIjLj40014ELj0ELj2147483563EEENS6_IjLj40692ELj0ELj2147483399EEEEEEEdRT_"
 "_ZN5rstan10sum_valuesD0Ev"
 "_ZN5rstan10sum_valuesD1Ev"
 "_ZN5rstan10sum_valuesclERKSt6vectorIdSaIdEE"
 "_ZN5rstan14comment_writerD0Ev"
 "_ZN5rstan14comment_writerD1Ev"
 "_ZN5rstan14comment_writerclERKNSt7__cxx1112basic_stringIcSt11char_traitsIcESaIcEEE"
 "_ZN5rstan14comment_writerclEv"
 "_ZN5rstan15filtered_valuesIN4Rcpp6VectorILi14ENS1_15PreserveStorageEEEEC1ERKS5_"
 "_ZN5rstan15filtered_valuesIN4Rcpp6VectorILi14ENS1_15PreserveStorageEEEEC1EyyRKSt6vectorIySaIyEE"
 "_ZN5rstan15filtered_valuesIN4Rcpp6VectorILi14ENS1_15PreserveStorageEEEED0Ev"
 "_ZN5rstan15filtered_valuesIN4Rcpp6VectorILi14ENS1_15PreserveStorageEEEED1Ev"
 "_ZN5rstan15filtered_valuesIN4Rcpp6VectorILi14ENS1_15PreserveStorageEEEEclERKSt6vectorIdSaIdEE"
 "_ZN5rstan19rstan_sample_writerD0Ev"
 "_ZN5rstan19rstan_sample_writerD1Ev"
 "_ZN5rstan19rstan_sample_writerclERKNSt7__cxx1112basic_stringIcSt11char_traitsIcESaIcEEE"
 "_ZN5rstan19rstan_sample_writerclERKSt6vectorINSt7__cxx1112basic_stringIcSt11char_traitsIcESaIcEEESaIS7_EE"
 "_ZN5rstan19rstan_sample_writerclERKSt6vectorIdSaIdEE"
 "_ZN5rstan19rstan_sample_writerclEv"
 "_ZN5rstan21sample_writer_factoryEPSoRSoRKNSt7__cxx1112basic_stringIcSt11char_traitsIcESaIcEEEyyyyyRKSt6vectorIySaIyEE"
 "_ZN5rstan2io16r_cerr_streambuf4syncEv"
 "_ZN5rstan2io16r_cerr_streambuf6xsputnEPKcx"
 "_ZN5rstan2io16r_cerr_streambuf8overflowEi"
 "_ZN5rstan2io16r_cerr_streambufD0Ev"
 "_ZN5rstan2io16r_cerr_streambufD1Ev"
 "_ZN5rstan2io16r_cout_streambuf4syncEv"
 "_ZN5rstan2io16r_cout_streambuf6xsputnEPKcx"
 "_ZN5rstan2io16r_cout_streambuf8overflowEi"
 "_ZN5rstan2io16r_cout_streambufD0Ev"
 "_ZN5rstan2io16r_cout_streambufD1Ev"
 "_ZN5rstan2io21rlist_ref_var_contextC1EP7SEXPREC"
 "_ZN5rstan2io21rlist_ref_var_contextD0Ev"
 "_ZN5rstan2io21rlist_ref_var_contextD1Ev"
 "_ZN5rstan2io9r_ostreamINS0_16r_cerr_streambufEED0Ev"
 "_ZN5rstan2io9r_ostreamINS0_16r_cerr_streambufEED1Ev"
 "_ZN5rstan2io9r_ostreamINS0_16r_cout_streambufEED0Ev"
 "_ZN5rstan2io9r_ostreamINS0_16r_cout_streambufEED1Ev"
 "_ZN5rstan5valueD0Ev"
 "_ZN5rstan5valueD1Ev"
 "_ZN5rstan5valueclERKSt6vectorIdSaIdEE"
 "_ZN5rstan6valuesIN4Rcpp6VectorILi14ENS1_15PreserveStorageEEEED0Ev"
 "_ZN5rstan6valuesIN4Rcpp6VectorILi14ENS1_15PreserveStorageEEEED1Ev"
 "_ZN5rstan6valuesIN4Rcpp6VectorILi14ENS1_15PreserveStorageEEEEclERKSt6vectorIdSaIdEE"
 "_ZN5rstan8stan_fitIN25model_RP_expert_namespace15model_RP_expertEN5boost6random23additive_combine_engineINS4_26linear_congruential_engineIjLj40014ELj0ELj2147483563EEENS6_IjLj40692ELj0ELj2147483399EEEEEE12call_samplerEP7SEXPREC"
 "_ZN5rstan8stan_fitIN25model_RP_expert_namespace15model_RP_expertEN5boost6random23additive_combine_engineINS4_26linear_congruential_engineIjLj40014ELj0ELj2147483563EEENS6_IjLj40692ELj0ELj2147483399EEEEEE13grad_log_probEP7SEXPRECSC_"
 "_ZN5rstan8stan_fitIN25model_RP_expert_namespace15model_RP_expertEN5boost6random23additive_combine_engineINS4_26linear_congruential_engineIjLj40014ELj0ELj2147483563EEENS6_IjLj40692ELj0ELj2147483399EEEEEE13param_oi_tidxEP7SEXPREC"
 "_ZN5rstan8stan_fitIN25model_RP_expert_namespace15model_RP_expertEN5boost6random23additive_combine_engineINS4_26linear_congruential_engineIjLj40014ELj0ELj2147483563EEENS6_IjLj40692ELj0ELj2147483399EEEEEE14constrain_parsEP7SEXPREC"
 "_ZN5rstan8stan_fitIN25model_RP_expert_namespace15model_RP_expertEN5boost6random23additive_combine_engineINS4_26linear_congruential_engineIjLj40014ELj0ELj2147483563EEENS6_IjLj40692ELj0ELj2147483399EEEEEE14standalone_gqsEP7SEXPRECSC_"
 "_ZN5rstan8stan_fitIN25model_RP_expert_namespace15model_RP_expertEN5boost6random23additive_combine_engineINS4_26linear_congruential_engineIjLj40014ELj0ELj2147483563EEENS6_IjLj40692ELj0ELj2147483399EEEEEE15update_param_oiEP7SEXPREC"
 "_ZN5rstan8stan_fitIN25model_RP_expert_namespace15model_RP_expertEN5boost6random23additive_combine_engineINS4_26linear_congruential_engineIjLj40014ELj0ELj2147483563EEENS6_IjLj40692ELj0ELj2147483399EEEEEE16unconstrain_parsEP7SEXPREC"
 "_ZN5rstan8stan_fitIN25model_RP_expert_namespace15model_RP_expertEN5boost6random23additive_combine_engineINS4_26linear_congruential_engineIjLj40014ELj0ELj2147483563EEENS6_IjLj40692ELj0ELj2147483399EEEEEE22num_pars_unconstrainedEv"
 "_ZN5rstan8stan_fitIN25model_RP_expert_namespace15model_RP_expertEN5boost6random23additive_combine_engineINS4_26linear_congruential_engineIjLj40014ELj0ELj2147483563EEENS6_IjLj40692ELj0ELj2147483399EEEEEE23constrained_param_namesEP7SEXPRECSC_"
 "_ZN5rstan8stan_fitIN25model_RP_expert_namespace15model_RP_expertEN5boost6random23additive_combine_engineINS4_26linear_congruential_engineIjLj40014ELj0ELj2147483563EEENS6_IjLj40692ELj0ELj2147483399EEEEEE25unconstrained_param_namesEP7SEXPRECSC_"
 "_ZN5rstan8stan_fitIN25model_RP_expert_namespace15model_RP_expertEN5boost6random23additive_combine_engineINS4_26linear_congruential_engineIjLj40014ELj0ELj2147483563EEENS6_IjLj40692ELj0ELj2147483399EEEEEE8log_probEP7SEXPRECSC_SC_"
 "_ZN5rstan8stan_fitIN25model_RP_expert_namespace15model_RP_expertEN5boost6random23additive_combine_engineINS4_26linear_congruential_engineIjLj40014ELj0ELj2147483563EEENS6_IjLj40692ELj0ELj2147483399EEEEEEC1EP7SEXPRECSC_SC_"
 "_ZN5rstan9stan_args13validate_argsEv"
 "_ZN5rstan9stan_argsC1ERKN4Rcpp6VectorILi19ENS1_15PreserveStorageEEE"
 "_ZNK10tinyformat6detail9FormatArg5toIntEv"
 "_ZNK25model_RP_expert_namespace15model_RP_expert10model_nameB5cxx11Ev"
 "_ZNK25model_RP_expert_namespace15model_RP_expert11write_arrayIN5boost6random23additive_combine_engineINS3_26linear_congruential_engineIjLj40014ELj0ELj2147483563EEENS5_IjLj40692ELj0ELj2147483399EEEEEEEvRT_RSt6vectorIdSaIdEERSB_IiSaIiEESE_bbPSo"
 "_ZNK25model_RP_expert_namespace15model_RP_expert15get_param_namesERSt6vectorINSt7__cxx1112basic_stringIcSt11char_traitsIcESaIcEEESaIS7_EE"
 "_ZNK25model_RP_expert_namespace15model_RP_expert15transform_initsERKN4stan2io11var_contextERN5Eigen6MatrixIdLin1ELi1ELi0ELin1ELi1EEEPSo"
 "_ZNK25model_RP_expert_namespace15model_RP_expert15transform_initsERKN4stan2io11var_contextERSt6vectorIiSaIiEERS6_IdSaIdEEPSo"
 "_ZNK25model_RP_expert_namespace15model_RP_expert23constrained_param_namesERSt6vectorINSt7__cxx1112basic_stringIcSt11char_traitsIcESaIcEEESaIS7_EEbb"
 "_ZNK25model_RP_expert_namespace15model_RP_expert25unconstrained_param_namesERSt6vectorINSt7__cxx1112basic_stringIcSt11char_traitsIcESaIcEEESaIS7_EEbb"
 "_ZNK25model_RP_expert_namespace15model_RP_expert8get_dimsERSt6vectorIS1_IySaIyEESaIS3_EE"
 "_ZNK25model_RP_expert_namespace15model_RP_expert8log_probILb0ELb0EN4stan4math3varEEET1_RSt6vectorIS5_SaIS5_EERS6_IiSaIiEEPSo"
 "_ZNK25model_RP_expert_namespace15model_RP_expert8log_probILb0ELb0EdEET1_RSt6vectorIS2_SaIS2_EERS3_IiSaIiEEPSo"
 "_ZNK25model_RP_expert_namespace15model_RP_expert8log_probILb0ELb1EN4stan4math3varEEET1_RSt6vectorIS5_SaIS5_EERS6_IiSaIiEEPSo"
 "_ZNK25model_RP_expert_namespace15model_RP_expert8log_probILb0ELb1EdEET1_RN5Eigen6MatrixIS2_Lin1ELi1ELi0ELin1ELi1EEEPSo"
 "_ZNK25model_RP_expert_namespace15model_RP_expert8log_probILb0ELb1EdEET1_RSt6vectorIS2_SaIS2_EERS3_IiSaIiEEPSo"
 "_ZNK25model_RP_expert_namespace15model_RP_expert8log_probILb1ELb0EN4stan4math3varEEET1_RSt6vectorIS5_SaIS5_EERS6_IiSaIiEEPSo"
 "_ZNK25model_RP_expert_namespace15model_RP_expert8log_probILb1ELb0EdEET1_RSt6vectorIS2_SaIS2_EERS3_IiSaIiEEPSo"
 "_ZNK25model_RP_expert_namespace15model_RP_expert8log_probILb1ELb1EN4stan4math3varEEET1_RSt6vectorIS5_SaIS5_EERS6_IiSaIiEEPSo"
 "_ZNK25model_RP_expert_namespace15model_RP_expert8log_probILb1ELb1EdEET1_RSt6vectorIS2_SaIS2_EERS3_IiSaIiEEPSo"
 "_ZNK4Rcpp10eval_error4whatEv"
 "_ZNK4Rcpp13not_reference4whatEv"
 "_ZNK4Rcpp14not_compatible4whatEv"
 "_ZNK4Rcpp19index_out_of_bounds4whatEv"
 "_ZNK4Rcpp4XPtrIN5rstan8stan_fitIN25model_RP_expert_namespace15model_RP_expertEN5boost6random23additive_combine_engineINS6_26linear_congruential_engineIjLj40014ELj0ELj2147483563EEENS8_IjLj40692ELj0ELj2147483399EEEEEEENS_15PreserveStorageEXadL_ZNS_25standard_delete_finalizerISC_EEvPT_EELb0EE11checked_getEv"
 "_ZNK4Rcpp6VectorILi19ENS_15PreserveStorageEE20containsElementNamedEPKc"
 "_ZNK4Rcpp8internal18generic_name_proxyILi19ENS_15PreserveStorageEE3getEv"
 "_ZNK4Rcpp9exception21copy_stack_trace_to_rEv"
 "_ZNK4Rcpp9exception4whatEv"
 "_ZNK4stan11variational15normal_fullrank4meanEv"
 "_ZNK4stan11variational15normal_fullrank6squareEv"
 "_ZNK4stan11variational15normal_fullrank7entropyEv"
 "_ZNK4stan11variational15normal_fullrank9calc_gradIN25model_RP_expert_namespace15model_RP_expertEN5boost6random23additive_combine_engineINS6_26linear_congruential_engineIjLj40014ELj0ELj2147483563EEENS8_IjLj40692ELj0ELj2147483399EEEEEEEvRS1_RT_RN5Eigen6MatrixIdLin1ELi1ELi0ELin1ELi1EEEiRT0_RNS_9callbacks6loggerE"
 "_ZNK4stan11variational15normal_fullrank9dimensionEv"
 "_ZNK4stan11variational15normal_fullrank9transformERKN5Eigen6MatrixIdLin1ELi1ELi0ELin1ELi1EEE"
 "_ZNK4stan11variational16normal_meanfield4meanEv"
 "_ZNK4stan11variational16normal_meanfield6squareEv"
 "_ZNK4stan11variational16normal_meanfield7entropyEv"
 "_ZNK4stan11variational16normal_meanfield9calc_gradIN25model_RP_expert_namespace15model_RP_expertEN5boost6random23additive_combine_engineINS6_26linear_congruential_engineIjLj40014ELj0ELj2147483563EEENS8_IjLj40692ELj0ELj2147483399EEEEEEEvRS1_RT_RN5Eigen6MatrixIdLin1ELi1ELi0ELin1ELi1EEEiRT0_RNS_9callbacks6loggerE"
 "_ZNK4stan11variational16normal_meanfield9dimensionEv"
 "_ZNK4stan11variational16normal_meanfield9transformERKN5Eigen6MatrixIdLin1ELi1ELi0ELin1ELi1EEE"
 "_ZNK4stan11variational4adviIN25model_RP_expert_namespace15model_RP_expertENS0_15normal_fullrankEN5boost6random23additive_combine_engineINS6_26linear_congruential_engineIjLj40014ELj0ELj2147483563EEENS8_IjLj40692ELj0ELj2147483399EEEEEE26stochastic_gradient_ascentERS4_ddiRNS_9callbacks6loggerERNSE_6writerE"
 "_ZNK4stan11variational4adviIN25model_RP_expert_namespace15model_RP_expertENS0_15normal_fullrankEN5boost6random23additive_combine_engineINS6_26linear_congruential_engineIjLj40014ELj0ELj2147483563EEENS8_IjLj40692ELj0ELj2147483399EEEEEE3runEdbidiRNS_9callbacks6loggerERNSD_6writerESH_"
 "_ZNK4stan11variational4adviIN25model_RP_expert_namespace15model_RP_expertENS0_15normal_fullrankEN5boost6random23additive_combine_engineINS6_26linear_congruential_engineIjLj40014ELj0ELj2147483563EEENS8_IjLj40692ELj0ELj2147483399EEEEEE9adapt_etaERS4_iRNS_9callbacks6loggerE"
 "_ZNK4stan11variational4adviIN25model_RP_expert_namespace15model_RP_expertENS0_15normal_fullrankEN5boost6random23additive_combine_engineINS6_26linear_congruential_engineIjLj40014ELj0ELj2147483563EEENS8_IjLj40692ELj0ELj2147483399EEEEEE9calc_ELBOERKS4_RNS_9callbacks6loggerE"
 "_ZNK4stan11variational4adviIN25model_RP_expert_namespace15model_RP_expertENS0_16normal_meanfieldEN5boost6random23additive_combine_engineINS6_26linear_congruential_engineIjLj40014ELj0ELj2147483563EEENS8_IjLj40692ELj0ELj2147483399EEEEEE26stochastic_gradient_ascentERS4_ddiRNS_9callbacks6loggerERNSE_6writerE"
 "_ZNK4stan11variational4adviIN25model_RP_expert_namespace15model_RP_expertENS0_16normal_meanfieldEN5boost6random23additive_combine_engineINS6_26linear_congruential_engineIjLj40014ELj0ELj2147483563EEENS8_IjLj40692ELj0ELj2147483399EEEEEE3runEdbidiRNS_9callbacks6loggerERNSD_6writerESH_"
 "_ZNK4stan11variational4adviIN25model_RP_expert_namespace15model_RP_expertENS0_16normal_meanfieldEN5boost6random23additive_combine_engineINS6_26linear_congruential_engineIjLj40014ELj0ELj2147483563EEENS8_IjLj40692ELj0ELj2147483399EEEEEE9adapt_etaERS4_iRNS_9callbacks6loggerE"
 "_ZNK4stan11variational4adviIN25model_RP_expert_namespace15model_RP_expertENS0_16normal_meanfieldEN5boost6random23additive_combine_engineINS6_26linear_congruential_engineIjLj40014ELj0ELj2147483563EEENS8_IjLj40692ELj0ELj2147483399EEEEEE9calc_ELBOERKS4_RNS_9callbacks6loggerE"
 "_ZNK4stan2io11var_context13validate_dimsERKNSt7__cxx1112basic_stringIcSt11char_traitsIcESaIcEEES9_S9_RKSt6vectorIySaIyEE"
 "_ZNK4stan2io11var_context7add_vecERNSt7__cxx1118basic_stringstreamIcSt11char_traitsIcESaIcEEERKSt6vectorIySaIyEE"
 "_ZNK4stan2io14program_reader5traceB5cxx11Ei"
 "_ZNK4stan2io17array_var_context10contains_iERKNSt7__cxx1112basic_stringIcSt11char_traitsIcESaIcEEE"
 "_ZNK4stan2io17array_var_context10contains_rERKNSt7__cxx1112basic_stringIcSt11char_traitsIcESaIcEEE"
 "_ZNK4stan2io17array_var_context6dims_iERKNSt7__cxx1112basic_stringIcSt11char_traitsIcESaIcEEE"
 "_ZNK4stan2io17array_var_context6dims_rERKNSt7__cxx1112basic_stringIcSt11char_traitsIcESaIcEEE"
 "_ZNK4stan2io17array_var_context6vals_iERKNSt7__cxx1112basic_stringIcSt11char_traitsIcESaIcEEE"
 "_ZNK4stan2io17array_var_context6vals_rERKNSt7__cxx1112basic_stringIcSt11char_traitsIcESaIcEEE"
 "_ZNK4stan2io17array_var_context7names_iERSt6vectorINSt7__cxx1112basic_stringIcSt11char_traitsIcESaIcEEESaIS8_EE"
 "_ZNK4stan2io17array_var_context7names_rERSt6vectorINSt7__cxx1112basic_stringIcSt11char_traitsIcESaIcEEESaIS8_EE"
 "_ZNK4stan2io17empty_var_context10contains_iERKNSt7__cxx1112basic_stringIcSt11char_traitsIcESaIcEEE"
 "_ZNK4stan2io17empty_var_context10contains_rERKNSt7__cxx1112basic_stringIcSt11char_traitsIcESaIcEEE"
 "_ZNK4stan2io17empty_var_context6dims_iERKNSt7__cxx1112basic_stringIcSt11char_traitsIcESaIcEEE"
 "_ZNK4stan2io17empty_var_context6dims_rERKNSt7__cxx1112basic_stringIcSt11char_traitsIcESaIcEEE"
 "_ZNK4stan2io17empty_var_context6vals_iERKNSt7__cxx1112basic_stringIcSt11char_traitsIcESaIcEEE"
 "_ZNK4stan2io17empty_var_context6vals_rERKNSt7__cxx1112basic_stringIcSt11char_traitsIcESaIcEEE"
 "_ZNK4stan2io17empty_var_context7names_iERSt6vectorINSt7__cxx1112basic_stringIcSt11char_traitsIcESaIcEEESaIS8_EE"
 "_ZNK4stan2io17empty_var_context7names_rERSt6vectorINSt7__cxx1112basic_stringIcSt11char_traitsIcESaIcEEESaIS8_EE"
 "_ZNK4stan2io18random_var_context10contains_iERKNSt7__cxx1112basic_stringIcSt11char_traitsIcESaIcEEE"
 "_ZNK4stan2io18random_var_context10contains_rERKNSt7__cxx1112basic_stringIcSt11char_traitsIcESaIcEEE"
 "_ZNK4stan2io18random_var_context6dims_iERKNSt7__cxx1112basic_stringIcSt11char_traitsIcESaIcEEE"
 "_ZNK4stan2io18random_var_context6dims_rERKNSt7__cxx1112basic_stringIcSt11char_traitsIcESaIcEEE"
 "_ZNK4stan2io18random_var_context6vals_iERKNSt7__cxx1112basic_stringIcSt11char_traitsIcESaIcEEE"
 "_ZNK4stan2io18random_var_context6vals_rERKNSt7__cxx1112basic_stringIcSt11char_traitsIcESaIcEEE"
 "_ZNK4stan2io18random_var_context7names_iERSt6vectorINSt7__cxx1112basic_stringIcSt11char_traitsIcESaIcEEESaIS8_EE"
 "_ZNK4stan2io18random_var_context7names_rERSt6vectorINSt7__cxx1112basic_stringIcSt11char_traitsIcESaIcEEESaIS8_EE"
 "_ZNK4stan2io19chained_var_context10contains_iERKNSt7__cxx1112basic_stringIcSt11char_traitsIcESaIcEEE"
 "_ZNK4stan2io19chained_var_context10contains_rERKNSt7__cxx1112basic_stringIcSt11char_traitsIcESaIcEEE"
 "_ZNK4stan2io19chained_var_context6dims_iERKNSt7__cxx1112basic_stringIcSt11char_traitsIcESaIcEEE"
 "_ZNK4stan2io19chained_var_context6dims_rERKNSt7__cxx1112basic_stringIcSt11char_traitsIcESaIcEEE"
 "_ZNK4stan2io19chained_var_context6vals_iERKNSt7__cxx1112basic_stringIcSt11char_traitsIcESaIcEEE"
 "_ZNK4stan2io19chained_var_context6vals_rERKNSt7__cxx1112basic_stringIcSt11char_traitsIcESaIcEEE"
 "_ZNK4stan2io19chained_var_context7names_iERSt6vectorINSt7__cxx1112basic_stringIcSt11char_traitsIcESaIcEEESaIS8_EE"
 "_ZNK4stan2io19chained_var_context7names_rERSt6vectorINSt7__cxx1112basic_stringIcSt11char_traitsIcESaIcEEESaIS8_EE"
 "_ZNK4stan2io4dump10contains_iERKNSt7__cxx1112basic_stringIcSt11char_traitsIcESaIcEEE"
 "_ZNK4stan2io4dump10contains_rERKNSt7__cxx1112basic_stringIcSt11char_traitsIcESaIcEEE"
 "_ZNK4stan2io4dump6dims_iERKNSt7__cxx1112basic_stringIcSt11char_traitsIcESaIcEEE"
 "_ZNK4stan2io4dump6dims_rERKNSt7__cxx1112basic_stringIcSt11char_traitsIcESaIcEEE"
 "_ZNK4stan2io4dump6vals_iERKNSt7__cxx1112basic_stringIcSt11char_traitsIcESaIcEEE"
 "_ZNK4stan2io4dump6vals_rERKNSt7__cxx1112basic_stringIcSt11char_traitsIcESaIcEEE"
 "_ZNK4stan2io4dump7names_iERSt6vectorINSt7__cxx1112basic_stringIcSt11char_traitsIcESaIcEEESaIS8_EE"
 "_ZNK4stan2io4dump7names_rERSt6vectorINSt7__cxx1112basic_stringIcSt11char_traitsIcESaIcEEESaIS8_EE"
 "_ZNK4stan4lang17located_exceptionISt10bad_typeidE4whatEv"
 "_ZNK4stan4lang17located_exceptionISt13bad_exceptionE4whatEv"
 "_ZNK4stan4lang17located_exceptionISt8bad_castE4whatEv"
 "_ZNK4stan4lang17located_exceptionISt9bad_allocE4whatEv"
 "_ZNK4stan4lang17located_exceptionISt9exceptionE4whatEv"
 "_ZNK4stan5model15model_base_crtpIN25model_RP_expert_namespace15model_RP_expertEE11write_arrayERN5boost6random23additive_combine_engineINS6_26linear_congruential_engineIjLj40014ELj0ELj2147483563EEENS8_IjLj40692ELj0ELj2147483399EEEEERN5Eigen6MatrixIdLin1ELi1ELi0ELin1ELi1EEESG_bbPSo"
 "_ZNK4stan5model15model_base_crtpIN25model_RP_expert_namespace15model_RP_expertEE11write_arrayERN5boost6random23additive_combine_engineINS6_26linear_congruential_engineIjLj40014ELj0ELj2147483563EEENS8_IjLj40692ELj0ELj2147483399EEEEERSt6vectorIdSaIdEERSD_IiSaIiEESG_bbPSo"
 "_ZNK4stan5model15model_base_crtpIN25model_RP_expert_namespace15model_RP_expertEE15log_prob_proptoERN5Eigen6MatrixINS_4math3varELin1ELi1ELi0ELin1ELi1EEEPSo"
 "_ZNK4stan5model15model_base_crtpIN25model_RP_expert_namespace15model_RP_expertEE15log_prob_proptoERN5Eigen6MatrixIdLin1ELi1ELi0ELin1ELi1EEEPSo"
 "_ZNK4stan5model15model_base_crtpIN25model_RP_expert_namespace15model_RP_expertEE15log_prob_proptoERSt6vectorINS_4math3varESaIS7_EERS5_IiSaIiEEPSo"
 "_ZNK4stan5model15model_base_crtpIN25model_RP_expert_namespace15model_RP_expertEE15log_prob_proptoERSt6vectorIdSaIdEERS5_IiSaIiEEPSo"
 "_ZNK4stan5model15model_base_crtpIN25model_RP_expert_namespace15model_RP_expertEE17log_prob_jacobianERN5Eigen6MatrixINS_4math3varELin1ELi1ELi0ELin1ELi1EEEPSo"
 "_ZNK4stan5model15model_base_crtpIN25model_RP_expert_namespace15model_RP_expertEE17log_prob_jacobianERN5Eigen6MatrixIdLin1ELi1ELi0ELin1ELi1EEEPSo"
 "_ZNK4stan5model15model_base_crtpIN25model_RP_expert_namespace15model_RP_expertEE17log_prob_jacobianERSt6vectorINS_4math3varESaIS7_EERS5_IiSaIiEEPSo"
 "_ZNK4stan5model15model_base_crtpIN25model_RP_expert_namespace15model_RP_expertEE17log_prob_jacobianERSt6vectorIdSaIdEERS5_IiSaIiEEPSo"
 "_ZNK4stan5model15model_base_crtpIN25model_RP_expert_namespace15model_RP_expertEE24log_prob_propto_jacobianERN5Eigen6MatrixINS_4math3varELin1ELi1ELi0ELin1ELi1EEEPSo"
 "_ZNK4stan5model15model_base_crtpIN25model_RP_expert_namespace15model_RP_expertEE24log_prob_propto_jacobianERN5Eigen6MatrixIdLin1ELi1ELi0ELin1ELi1EEEPSo"
 "_ZNK4stan5model15model_base_crtpIN25model_RP_expert_namespace15model_RP_expertEE24log_prob_propto_jacobianERSt6vectorINS_4math3varESaIS7_EERS5_IiSaIiEEPSo"
 "_ZNK4stan5model15model_base_crtpIN25model_RP_expert_namespace15model_RP_expertEE24log_prob_propto_jacobianERSt6vectorIdSaIdEERS5_IiSaIiEEPSo"
 "_ZNK4stan5model15model_base_crtpIN25model_RP_expert_namespace15model_RP_expertEE8log_probERN5Eigen6MatrixINS_4math3varELin1ELi1ELi0ELin1ELi1EEEPSo"
 "_ZNK4stan5model15model_base_crtpIN25model_RP_expert_namespace15model_RP_expertEE8log_probERN5Eigen6MatrixIdLin1ELi1ELi0ELin1ELi1EEEPSo"
 "_ZNK4stan5model15model_base_crtpIN25model_RP_expert_namespace15model_RP_expertEE8log_probERSt6vectorINS_4math3varESaIS7_EERS5_IiSaIiEEPSo"
 "_ZNK4stan5model15model_base_crtpIN25model_RP_expert_namespace15model_RP_expertEE8log_probERSt6vectorIdSaIdEERS5_IiSaIiEEPSo"
 "_ZNK5Eigen10MatrixBaseINS_5BlockINS1_INS_6MatrixIdLin1ELin1ELi0ELin1ELin1EEELin1ELi1ELb1EEELin1ELi1ELb0EEEE15makeHouseholderINS_11VectorBlockIS5_Lin1EEEEEvRT_RdSC_"
 "_ZNK5Eigen19HouseholderSequenceINS_6MatrixIdLin1ELin1ELi0ELin1ELin1EEENS1_IdLin1ELi1ELi0ELin1ELi1EEELi1EE6evalToIS2_S3_EEvRT_RT0_"
 "_ZNK5Eigen9DenseBaseINS_12CwiseUnaryOpINS_8internal14scalar_abs2_opIdEEKNS_6MatrixIdLin1ELi1ELi0ELin1ELi1EEEEEE3sumEv"
 "_ZNK5Eigen9DenseBaseINS_13CwiseBinaryOpINS_8internal22scalar_conj_product_opIddEEKNS_6MatrixIdLin1ELi1ELi0ELin1ELi1EEES7_EEE3sumEv"
 "_ZNK5boost10error_infoINS_27tag_original_exception_typeEPKSt9type_infoE17name_value_stringB5cxx11Ev"
 "_ZNK5boost10error_infoINS_27tag_original_exception_typeEPKSt9type_infoE5cloneEv"
 "_ZNK5boost10wrapexceptINS_16bad_lexical_castEE5cloneEv"
 "_ZNK5boost10wrapexceptINS_16bad_lexical_castEE7rethrowEv"
 "_ZNK5boost10wrapexceptINS_4math14rounding_errorEE5cloneEv"
 "_ZNK5boost10wrapexceptINS_4math14rounding_errorEE7rethrowEv"
 "_ZNK5boost10wrapexceptINS_4math16evaluation_errorEE5cloneEv"
 "_ZNK5boost10wrapexceptINS_4math16evaluation_errorEE7rethrowEv"
 "_ZNK5boost10wrapexceptISt11logic_errorE5cloneEv"
 "_ZNK5boost10wrapexceptISt11logic_errorE7rethrowEv"
 "_ZNK5boost10wrapexceptISt12domain_errorE5cloneEv"
 "_ZNK5boost10wrapexceptISt12domain_errorE7rethrowEv"
 "_ZNK5boost10wrapexceptISt12length_errorE5cloneEv"
 "_ZNK5boost10wrapexceptISt12length_errorE7rethrowEv"
 "_ZNK5boost10wrapexceptISt14overflow_errorE5cloneEv"
 "_ZNK5boost10wrapexceptISt14overflow_errorE7rethrowEv"
 "_ZNK5boost10wrapexceptISt16invalid_argumentE5cloneEv"
 "_ZNK5boost10wrapexceptISt16invalid_argumentE7rethrowEv"
 "_ZNK5boost16bad_lexical_cast4whatEv"
 "_ZNK5boost16exception_detail10clone_implINS0_10bad_alloc_EE5cloneEv"
 "_ZNK5boost16exception_detail10clone_implINS0_10bad_alloc_EE7rethrowEv"
 "_ZNK5boost16exception_detail10clone_implINS0_14bad_exception_EE5cloneEv"
 "_ZNK5boost16exception_detail10clone_implINS0_14bad_exception_EE7rethrowEv"
 "_ZNK5boost16exception_detail25error_info_container_impl22diagnostic_informationEPKc"
 "_ZNK5boost16exception_detail25error_info_container_impl3getERKNS0_10type_info_E"
 "_ZNK5boost16exception_detail25error_info_container_impl5cloneEv"
 "_ZNK5boost16exception_detail25error_info_container_impl7add_refEv"
 "_ZNK5boost16exception_detail25error_info_container_impl7releaseEv"
 "_ZNK5rstan2io21rlist_ref_var_context10contains_iERKNSt7__cxx1112basic_stringIcSt11char_traitsIcESaIcEEE"
 "_ZNK5rstan2io21rlist_ref_var_context10contains_rERKNSt7__cxx1112basic_stringIcSt11char_traitsIcESaIcEEE"
 "_ZNK5rstan2io21rlist_ref_var_context6dims_iERKNSt7__cxx1112basic_stringIcSt11char_traitsIcESaIcEEE"
 "_ZNK5rstan2io21rlist_ref_var_context6dims_rERKNSt7__cxx1112basic_stringIcSt11char_traitsIcESaIcEEE"
 "_ZNK5rstan2io21rlist_ref_var_context6vals_iERKNSt7__cxx1112basic_stringIcSt11char_traitsIcESaIcEEE"
 "_ZNK5rstan2io21rlist_ref_var_context6vals_rERKNSt7__cxx1112basic_stringIcSt11char_traitsIcESaIcEEE"
 "_ZNK5rstan2io21rlist_ref_var_context7names_iERSt6vectorINSt7__cxx1112basic_stringIcSt11char_traitsIcESaIcEEESaIS8_EE"
 "_ZNK5rstan2io21rlist_ref_var_context7names_rERSt6vectorINSt7__cxx1112basic_stringIcSt11char_traitsIcESaIcEEESaIS8_EE"
 "_ZNK5rstan8stan_fitIN25model_RP_expert_namespace15model_RP_expertEN5boost6random23additive_combine_engineINS4_26linear_congruential_engineIjLj40014ELj0ELj2147483563EEENS6_IjLj40692ELj0ELj2147483399EEEEEE10param_dimsEv"
 "_ZNK5rstan8stan_fitIN25model_RP_expert_namespace15model_RP_expertEN5boost6random23additive_combine_engineINS4_26linear_congruential_engineIjLj40014ELj0ELj2147483563EEENS6_IjLj40692ELj0ELj2147483399EEEEEE11param_namesEv"
 "_ZNK5rstan8stan_fitIN25model_RP_expert_namespace15model_RP_expertEN5boost6random23additive_combine_engineINS4_26linear_congruential_engineIjLj40014ELj0ELj2147483563EEENS6_IjLj40692ELj0ELj2147483399EEEEEE13param_dims_oiEv"
 "_ZNK5rstan8stan_fitIN25model_RP_expert_namespace15model_RP_expertEN5boost6random23additive_combine_engineINS4_26linear_congruential_engineIjLj40014ELj0ELj2147483563EEENS6_IjLj40692ELj0ELj2147483399EEEEEE14param_names_oiEv"
 "_ZNK5rstan8stan_fitIN25model_RP_expert_namespace15model_RP_expertEN5boost6random23additive_combine_engineINS4_26linear_congruential_engineIjLj40014ELj0ELj2147483563EEENS6_IjLj40692ELj0ELj2147483399EEEEEE15param_fnames_oiEv"
 "_ZNK5rstan9stan_args18stan_args_to_rlistEv"
 "_ZNK5rstan9stan_args21write_args_as_commentERSo"
 "_ZNKSt10_HashtableINSt6thread2idESt4pairIKS1_St10unique_ptrIN4stan4math22AutodiffStackSingletonINS6_4variENS6_15chainable_allocEEESt14default_deleteISA_EEESaISE_ENSt8__detail10_Select1stESt8equal_toIS1_ESt4hashIS1_ENSG_18_Mod_range_hashingENSG_20_Default_ranged_hashENSG_20_Prime_rehash_policyENSG_17_Hashtable_traitsILb0ELb0ELb1EEEE19_M_find_before_nodeEyRS3_y"
 "_ZNKSt5ctypeIcE8do_widenEc"
 "_ZNKSt8_Rb_treeINSt7__cxx1112basic_stringIcSt11char_traitsIcESaIcEEESt4pairIKS5_S6_ISt6vectorIdSaIdEES8_IySaIyEEEESt10_Select1stISE_ESt4lessIS5_ESaISE_EE4findERS7_"
 "_ZNKSt8_Rb_treeINSt7__cxx1112basic_stringIcSt11char_traitsIcESaIcEEESt4pairIKS5_S6_ISt6vectorIiSaIiEES8_IySaIyEEEESt10_Select1stISE_ESt4lessIS5_ESaISE_EE4findERS7_"
 "_ZNKSt8_Rb_treeINSt7__cxx1112basic_stringIcSt11char_traitsIcESaIcEEESt4pairIKS5_St6vectorIySaIyEEESt10_Select1stISB_ESt4lessIS5_ESaISB_EE4findERS7_"
 "_ZNSt10_HashtableINSt6thread2idESt4pairIKS1_St10unique_ptrIN4stan4math22AutodiffStackSingletonINS6_4variENS6_15chainable_allocEEESt14default_deleteISA_EEESaISE_ENSt8__detail10_Select1stESt8equal_toIS1_ESt4hashIS1_ENSG_18_Mod_range_hashingENSG_20_Default_ranged_hashENSG_20_Prime_rehash_policyENSG_17_Hashtable_traitsILb0ELb0ELb1EEEE21_M_insert_unique_nodeEyyPNSG_10_Hash_nodeISE_Lb0EEEy"
 "_ZNSt10_HashtableINSt6thread2idESt4pairIKS1_St10unique_ptrIN4stan4math22AutodiffStackSingletonINS6_4variENS6_15chainable_allocEEESt14default_deleteISA_EEESaISE_ENSt8__detail10_Select1stESt8equal_toIS1_ESt4hashIS1_ENSG_18_Mod_range_hashingENSG_20_Default_ranged_hashENSG_20_Prime_rehash_policyENSG_17_Hashtable_traitsILb0ELb0ELb1EEEE4findERS3_"
 "_ZNSt10_HashtableINSt6thread2idESt4pairIKS1_St10unique_ptrIN4stan4math22AutodiffStackSingletonINS6_4variENS6_15chainable_allocEEESt14default_deleteISA_EEESaISE_ENSt8__detail10_Select1stESt8equal_toIS1_ESt4hashIS1_ENSG_18_Mod_range_hashingENSG_20_Default_ranged_hashENSG_20_Prime_rehash_policyENSG_17_Hashtable_traitsILb0ELb0ELb1EEEED1Ev"
 "_ZNSt20__uninitialized_copyILb0EE13__uninit_copyIN9__gnu_cxx17__normal_iteratorIPNSt7__cxx1112basic_stringIcSt11char_traitsIcESaIcEEESt6vectorIS9_SaIS9_EEEESA_EET0_T_SG_SF_"
 "_ZNSt20__uninitialized_copyILb0EE13__uninit_copyIPKN4Rcpp6VectorILi14ENS2_15PreserveStorageEEEPS5_EET0_T_SA_S9_"
 "_ZNSt3mapINSt7__cxx1112basic_stringIcSt11char_traitsIcESaIcEEEP7SEXPRECSt4lessIS5_ESaISt4pairIKS5_S7_EEEixEOS5_"
 "_ZNSt4pairIKNSt7__cxx1112basic_stringIcSt11char_traitsIcESaIcEEESt6vectorIySaIyEEED1Ev"
 "_ZNSt4pairISt6vectorIdSaIdEES0_IySaIyEEED1Ev"
 "_ZNSt6vectorIN4Rcpp6VectorILi14ENS0_15PreserveStorageEEESaIS3_EE17_M_realloc_insertIJS3_EEEvN9__gnu_cxx17__normal_iteratorIPS3_S5_EEDpOT_"
 "_ZNSt6vectorIN4Rcpp6VectorILi14ENS0_15PreserveStorageEEESaIS3_EE7reserveEy"
 "_ZNSt6vectorIN4Rcpp6VectorILi14ENS0_15PreserveStorageEEESaIS3_EED1Ev"
 "_ZNSt6vectorIN4stan2io13preproc_eventESaIS2_EE17_M_realloc_insertIJRKS2_EEEvN9__gnu_cxx17__normal_iteratorIPS2_S4_EEDpOT_"
 "_ZNSt6vectorIN4stan2io13preproc_eventESaIS2_EED1Ev"
 "_ZNSt6vectorIN4stan4math3varESaIS2_EE12emplace_backIJS2_EEEvDpOT_"
 "_ZNSt6vectorIN4stan4math3varESaIS2_EE17_M_realloc_insertIJRKS2_EEEvN9__gnu_cxx17__normal_iteratorIPS2_S4_EEDpOT_"
 "_ZNSt6vectorIN4stan4math3varESaIS2_EE7reserveEy"
 "_ZNSt6vectorIN4stan4math3varESaIS2_EE9push_backERKS2_"
 "_ZNSt6vectorINSt7__cxx1112basic_stringIcSt11char_traitsIcESaIcEEESaIS5_EE12emplace_backIJRS5_EEEvDpOT_"
 "_ZNSt6vectorINSt7__cxx1112basic_stringIcSt11char_traitsIcESaIcEEESaIS5_EE12emplace_backIJS5_EEEvDpOT_"
 "_ZNSt6vectorINSt7__cxx1112basic_stringIcSt11char_traitsIcESaIcEEESaIS5_EE15_M_range_insertIN9__gnu_cxx17__normal_iteratorIPS5_S7_EEEEvSC_T_SD_St20forward_iterator_tag"
 "_ZNSt6vectorINSt7__cxx1112basic_stringIcSt11char_traitsIcESaIcEEESaIS5_EE17_M_default_appendEy"
 "_ZNSt6vectorINSt7__cxx1112basic_stringIcSt11char_traitsIcESaIcEEESaIS5_EE17_M_realloc_insertIJRKS5_EEEvN9__gnu_cxx17__normal_iteratorIPS5_S7_EEDpOT_"
 "_ZNSt6vectorINSt7__cxx1112basic_stringIcSt11char_traitsIcESaIcEEESaIS5_EE17_M_realloc_insertIJRS5_EEEvN9__gnu_cxx17__normal_iteratorIPS5_S7_EEDpOT_"
 "_ZNSt6vectorINSt7__cxx1112basic_stringIcSt11char_traitsIcESaIcEEESaIS5_EE17_M_realloc_insertIJS5_EEEvN9__gnu_cxx17__normal_iteratorIPS5_S7_EEDpOT_"
 "_ZNSt6vectorINSt7__cxx1112basic_stringIcSt11char_traitsIcESaIcEEESaIS5_EE6resizeEy"
 "_ZNSt6vectorINSt7__cxx1112basic_stringIcSt11char_traitsIcESaIcEEESaIS5_EE7reserveEy"
 "_ZNSt6vectorINSt7__cxx1112basic_stringIcSt11char_traitsIcESaIcEEESaIS5_EE8_M_eraseEN9__gnu_cxx17__normal_iteratorIPS5_S7_EESB_"
 "_ZNSt6vectorINSt7__cxx1112basic_stringIcSt11char_traitsIcESaIcEEESaIS5_EE9push_backERKS5_"
 "_ZNSt6vectorINSt7__cxx1112basic_stringIcSt11char_traitsIcESaIcEEESaIS5_EED1Ev"
 "_ZNSt6vectorINSt7__cxx1112basic_stringIcSt11char_traitsIcESaIcEEESaIS5_EEaSERKS7_"
 "_ZNSt6vectorIPN4Rcpp12SignedMethodIN5rstan8stan_fitIN25model_RP_expert_namespace15model_RP_expertEN5boost6random23additive_combine_engineINS7_26linear_congruential_engineIjLj40014ELj0ELj2147483563EEENS9_IjLj40692ELj0ELj2147483399EEEEEEEEESaISF_EE17_M_realloc_insertIJSF_EEEvN9__gnu_cxx17__normal_iteratorIPSF_SH_EEDpOT_"
 "_ZNSt6vectorIPN4Rcpp17SignedConstructorIN5rstan8stan_fitIN25model_RP_expert_namespace15model_RP_expertEN5boost6random23additive_combine_engineINS7_26linear_congruential_engineIjLj40014ELj0ELj2147483563EEENS9_IjLj40692ELj0ELj2147483399EEEEEEEEESaISF_EE17_M_realloc_insertIJSF_EEEvN9__gnu_cxx17__normal_iteratorIPSF_SH_EEDpOT_"
 "_ZNSt6vectorIPN4stan4math15chainable_allocESaIS3_EE17_M_default_appendEy"
 "_ZNSt6vectorIPN4stan4math4variESaIS3_EE12emplace_backIJS3_EEEvDpOT_"
 "_ZNSt6vectorIPN4stan4math4variESaIS3_EE17_M_default_appendEy"
 "_ZNSt6vectorIPN4stan4math4variESaIS3_EE17_M_realloc_insertIJS3_EEEvN9__gnu_cxx17__normal_iteratorIPS3_S5_EEDpOT_"
 "_ZNSt6vectorIPcSaIS0_EE17_M_realloc_insertIJRKS0_EEEvN9__gnu_cxx17__normal_iteratorIPS0_S2_EEDpOT_"
 "_ZNSt6vectorIPcSaIS0_EE17_M_realloc_insertIJS0_EEEvN9__gnu_cxx17__normal_iteratorIPS0_S2_EEDpOT_"
 "_ZNSt6vectorIS_IS_IdSaIdEESaIS1_EESaIS3_EED1Ev"
 "_ZNSt6vectorIS_IdSaIdEESaIS1_EE17_M_realloc_insertIJS1_EEEvN9__gnu_cxx17__normal_iteratorIPS1_S3_EEDpOT_"
 "_ZNSt6vectorIS_IdSaIdEESaIS1_EED1Ev"
 "_ZNSt6vectorIS_IjSaIjEESaIS1_EE12emplace_backIJS1_EEEvDpOT_"
 "_ZNSt6vectorIS_IjSaIjEESaIS1_EE17_M_default_appendEy"
 "_ZNSt6vectorIS_IjSaIjEESaIS1_EE17_M_realloc_insertIJRKS1_EEEvN9__gnu_cxx17__normal_iteratorIPS1_S3_EEDpOT_"
 "_ZNSt6vectorIS_IjSaIjEESaIS1_EE17_M_realloc_insertIJS1_EEEvN9__gnu_cxx17__normal_iteratorIPS1_S3_EEDpOT_"
 "_ZNSt6vectorIS_IjSaIjEESaIS1_EED1Ev"
 "_ZNSt6vectorIS_IySaIyEESaIS1_EE17_M_default_appendEy"
 "_ZNSt6vectorIS_IySaIyEESaIS1_EE17_M_realloc_insertIJRKS1_EEEvN9__gnu_cxx17__normal_iteratorIPS1_S3_EEDpOT_"
 "_ZNSt6vectorIS_IySaIyEESaIS1_EE17_M_realloc_insertIJRS1_EEEvN9__gnu_cxx17__normal_iteratorIPS1_S3_EEDpOT_"
 "_ZNSt6vectorIS_IySaIyEESaIS1_EED1Ev"
 "_ZNSt6vectorISt4pairINSt7__cxx1112basic_stringIcSt11char_traitsIcESaIcEEEiESaIS7_EE12emplace_backIJS7_EEEvDpOT_"
 "_ZNSt6vectorISt4pairINSt7__cxx1112basic_stringIcSt11char_traitsIcESaIcEEEiESaIS7_EE17_M_realloc_insertIJS7_EEEvN9__gnu_cxx17__normal_iteratorIPS7_S9_EEDpOT_"
 "_ZNSt6vectorISt4pairINSt7__cxx1112basic_stringIcSt11char_traitsIcESaIcEEEiESaIS7_EED1Ev"
 "_ZNSt6vectorIdSaIdEE12emplace_backIJdEEEvDpOT_"
 "_ZNSt6vectorIdSaIdEE14_M_fill_insertEN9__gnu_cxx17__normal_iteratorIPdS1_EEyRKd"
 "_ZNSt6vectorIdSaIdEE15_M_range_insertIN9__gnu_cxx17__normal_iteratorIPdS1_EEEEvS6_T_S7_St20forward_iterator_tag"
 "_ZNSt6vectorIdSaIdEE15_M_range_insertIPKdEEvN9__gnu_cxx17__normal_iteratorIPdS1_EET_S9_St20forward_iterator_tag"
 "_ZNSt6vectorIdSaIdEE17_M_default_appendEy"
 "_ZNSt6vectorIdSaIdEE17_M_realloc_insertIJRKdEEEvN9__gnu_cxx17__normal_iteratorIPdS1_EEDpOT_"
 "_ZNSt6vectorIdSaIdEE6insertEN9__gnu_cxx17__normal_iteratorIPKdS1_EERS4_"
 "_ZNSt6vectorIdSaIdEE7reserveEy"
 "_ZNSt6vectorIdSaIdEE9push_backERKd"
 "_ZNSt6vectorIdSaIdEEC1ERKS1_"
 "_ZNSt6vectorIdSaIdEEaSERKS1_"
 "_ZNSt6vectorIiSaIiEE12emplace_backIJiEEEvDpOT_"
 "_ZNSt6vectorIiSaIiEE17_M_realloc_insertIJRKiEEEvN9__gnu_cxx17__normal_iteratorIPiS1_EEDpOT_"
 "_ZNSt6vectorIiSaIiEE9push_backERKi"
 "_ZNSt6vectorIiSaIiEEC1ERKS1_"
 "_ZNSt6vectorIiSaIiEEaSERKS1_"
 "_ZNSt6vectorIjSaIjEE12emplace_backIJjEEEvDpOT_"
 "_ZNSt6vectorIjSaIjEE17_M_default_appendEy"
 "_ZNSt6vectorIySaIyEE12emplace_backIJyEEEvDpOT_"
 "_ZNSt6vectorIySaIyEE17_M_default_appendEy"
 "_ZNSt6vectorIySaIyEE17_M_realloc_insertIJRKyEEEvN9__gnu_cxx17__normal_iteratorIPyS1_EEDpOT_"
 "_ZNSt6vectorIySaIyEE9push_backERKy"
 "_ZNSt6vectorIySaIyEEC1ERKS1_"
 "_ZNSt7__cxx1112basic_stringIcSt11char_traitsIcESaIcEE12_M_constructIPKcEEvT_S8_St20forward_iterator_tag"
 "_ZNSt8_Rb_treeIN5boost16exception_detail10type_info_ESt4pairIKS2_NS0_10shared_ptrINS1_15error_info_baseEEEESt10_Select1stIS8_ESt4lessIS2_ESaIS8_EE14_M_insert_nodeEPSt18_Rb_tree_node_baseSG_PSt13_Rb_tree_nodeIS8_E"
 "_ZNSt8_Rb_treeIN5boost16exception_detail10type_info_ESt4pairIKS2_NS0_10shared_ptrINS1_15error_info_baseEEEESt10_Select1stIS8_ESt4lessIS2_ESaIS8_EE24_M_get_insert_unique_posERS4_"
 "_ZNSt8_Rb_treeIN5boost16exception_detail10type_info_ESt4pairIKS2_NS0_10shared_ptrINS1_15error_info_baseEEEESt10_Select1stIS8_ESt4lessIS2_ESaIS8_EE8_M_eraseEPSt13_Rb_tree_nodeIS8_E"
 "_ZNSt8_Rb_treeINSt7__cxx1112basic_stringIcSt11char_traitsIcESaIcEEESt4pairIKS5_P7SEXPRECESt10_Select1stISA_ESt4lessIS5_ESaISA_EE24_M_get_insert_unique_posERS7_"
 "_ZNSt8_Rb_treeINSt7__cxx1112basic_stringIcSt11char_traitsIcESaIcEEESt4pairIKS5_P7SEXPRECESt10_Select1stISA_ESt4lessIS5_ESaISA_EE8_M_eraseEPSt13_Rb_tree_nodeISA_E"
 "_ZNSt8_Rb_treeINSt7__cxx1112basic_stringIcSt11char_traitsIcESaIcEEESt4pairIKS5_PN4Rcpp10class_BaseEESt10_Select1stISB_ESt4lessIS5_ESaISB_EE4findERS7_"
 "_ZNSt8_Rb_treeINSt7__cxx1112basic_stringIcSt11char_traitsIcESaIcEEESt4pairIKS5_PN4Rcpp10class_BaseEESt10_Select1stISB_ESt4lessIS5_ESaISB_EE8_M_eraseEPSt13_Rb_tree_nodeISB_E"
 "_ZNSt8_Rb_treeINSt7__cxx1112basic_stringIcSt11char_traitsIcESaIcEEESt4pairIKS5_PN4Rcpp11CppFunctionEESt10_Select1stISB_ESt4lessIS5_ESaISB_EE8_M_eraseEPSt13_Rb_tree_nodeISB_E"
 "_ZNSt8_Rb_treeINSt7__cxx1112basic_stringIcSt11char_traitsIcESaIcEEESt4pairIKS5_PN4Rcpp11CppPropertyIN5rstan8stan_fitIN25model_RP_expert_namespace15model_RP_expertEN5boost6random23additive_combine_engineINSF_26linear_congruential_engineIjLj40014ELj0ELj2147483563EEENSH_IjLj40692ELj0ELj2147483399EEEEEEEEEESt10_Select1stISO_ESt4lessIS5_ESaISO_EE4findERS7_"
 "_ZNSt8_Rb_treeINSt7__cxx1112basic_stringIcSt11char_traitsIcESaIcEEESt4pairIKS5_PN4Rcpp11CppPropertyIN5rstan8stan_fitIN25model_RP_expert_namespace15model_RP_expertEN5boost6random23additive_combine_engineINSF_26linear_congruential_engineIjLj40014ELj0ELj2147483563EEENSH_IjLj40692ELj0ELj2147483399EEEEEEEEEESt10_Select1stISO_ESt4lessIS5_ESaISO_EE8_M_eraseEPSt13_Rb_tree_nodeISO_E"
 "_ZNSt8_Rb_treeINSt7__cxx1112basic_stringIcSt11char_traitsIcESaIcEEESt4pairIKS5_PSt6vectorIPN4Rcpp12SignedMethodIN5rstan8stan_fitIN25model_RP_expert_namespace15model_RP_expertEN5boost6random23additive_combine_engineINSG_26linear_congruential_engineIjLj40014ELj0ELj2147483563EEENSI_IjLj40692ELj0ELj2147483399EEEEEEEEESaISO_EEESt10_Select1stISS_ESt4lessIS5_ESaISS_EE17_M_emplace_uniqueIJS6_IS5_SR_EEEES6_ISt17_Rb_tree_iteratorISS_EbEDpOT_"
 "_ZNSt8_Rb_treeINSt7__cxx1112basic_stringIcSt11char_traitsIcESaIcEEESt4pairIKS5_PSt6vectorIPN4Rcpp12SignedMethodIN5rstan8stan_fitIN25model_RP_expert_namespace15model_RP_expertEN5boost6random23additive_combine_engineINSG_26linear_congruential_engineIjLj40014ELj0ELj2147483563EEENSI_IjLj40692ELj0ELj2147483399EEEEEEEEESaISO_EEESt10_Select1stISS_ESt4lessIS5_ESaISS_EE4findERS7_"
 "_ZNSt8_Rb_treeINSt7__cxx1112basic_stringIcSt11char_traitsIcESaIcEEESt4pairIKS5_PSt6vectorIPN4Rcpp12SignedMethodIN5rstan8stan_fitIN25model_RP_expert_namespace15model_RP_expertEN5boost6random23additive_combine_engineINSG_26linear_congruential_engineIjLj40014ELj0ELj2147483563EEENSI_IjLj40692ELj0ELj2147483399EEEEEEEEESaISO_EEESt10_Select1stISS_ESt4lessIS5_ESaISS_EE8_M_eraseEPSt13_Rb_tree_nodeISS_E"
 "_ZNSt8_Rb_treeINSt7__cxx1112basic_stringIcSt11char_traitsIcESaIcEEESt4pairIKS5_S6_ISt6vectorIdSaIdEES8_IySaIyEEEESt10_Select1stISE_ESt4lessIS5_ESaISE_EE14_M_insert_nodeEPSt18_Rb_tree_node_baseSM_PSt13_Rb_tree_nodeISE_E"
 "_ZNSt8_Rb_treeINSt7__cxx1112basic_stringIcSt11char_traitsIcESaIcEEESt4pairIKS5_S6_ISt6vectorIdSaIdEES8_IySaIyEEEESt10_Select1stISE_ESt4lessIS5_ESaISE_EE24_M_get_insert_unique_posERS7_"
 "_ZNSt8_Rb_treeINSt7__cxx1112basic_stringIcSt11char_traitsIcESaIcEEESt4pairIKS5_S6_ISt6vectorIdSaIdEES8_IySaIyEEEESt10_Select1stISE_ESt4lessIS5_ESaISE_EE8_M_eraseEPSt13_Rb_tree_nodeISE_E"
 "_ZNSt8_Rb_treeINSt7__cxx1112basic_stringIcSt11char_traitsIcESaIcEEESt4pairIKS5_S6_ISt6vectorIiSaIiEES8_IySaIyEEEESt10_Select1stISE_ESt4lessIS5_ESaISE_EE22_M_emplace_hint_uniqueIJRKSt21piecewise_construct_tSt5tupleIJOS5_EESP_IJEEEEESt17_Rb_tree_iteratorISE_ESt23_Rb_tree_const_iteratorISE_EDpOT_"
 "_ZNSt8_Rb_treeINSt7__cxx1112basic_stringIcSt11char_traitsIcESaIcEEESt4pairIKS5_S6_ISt6vectorIiSaIiEES8_IySaIyEEEESt10_Select1stISE_ESt4lessIS5_ESaISE_EE24_M_get_insert_unique_posERS7_"
 "_ZNSt8_Rb_treeINSt7__cxx1112basic_stringIcSt11char_traitsIcESaIcEEESt4pairIKS5_S6_ISt6vectorIiSaIiEES8_IySaIyEEEESt10_Select1stISE_ESt4lessIS5_ESaISE_EE8_M_eraseEPSt13_Rb_tree_nodeISE_E"
 "_ZNSt8_Rb_treeINSt7__cxx1112basic_stringIcSt11char_traitsIcESaIcEEESt4pairIKS5_St3mapIS5_iSt4lessIS5_ESaIS6_IS7_iEEEESt10_Select1stISE_ESA_SaISE_EE8_M_eraseEPSt13_Rb_tree_nodeISE_E"
 "_ZNSt8_Rb_treeINSt7__cxx1112basic_stringIcSt11char_traitsIcESaIcEEESt4pairIKS5_St6vectorIySaIyEEESt10_Select1stISB_ESt4lessIS5_ESaISB_EE10_M_insert_ISB_NSH_11_Alloc_nodeEEESt17_Rb_tree_iteratorISB_EPSt18_Rb_tree_node_baseSN_OT_RT0_"
 "_ZNSt8_Rb_treeINSt7__cxx1112basic_stringIcSt11char_traitsIcESaIcEEESt4pairIKS5_St6vectorIySaIyEEESt10_Select1stISB_ESt4lessIS5_ESaISB_EE16_M_insert_uniqueISB_EES6_ISt17_Rb_tree_iteratorISB_EbEOT_"
 "_ZNSt8_Rb_treeINSt7__cxx1112basic_stringIcSt11char_traitsIcESaIcEEESt4pairIKS5_St6vectorIySaIyEEESt10_Select1stISB_ESt4lessIS5_ESaISB_EE8_M_eraseEPSt13_Rb_tree_nodeISB_E"
 "_ZNSt8_Rb_treeINSt7__cxx1112basic_stringIcSt11char_traitsIcESaIcEEESt4pairIKS5_iESt10_Select1stIS8_ESt4lessIS5_ESaIS8_EE8_M_eraseEPSt13_Rb_tree_nodeIS8_E"
 "_ZSt13__adjust_heapIN9__gnu_cxx17__normal_iteratorIPdSt6vectorIdSaIdEEEExdNS0_5__ops15_Iter_less_iterEEvT_T0_SA_T1_T2_"
 "_ZSt13__introselectIN9__gnu_cxx17__normal_iteratorIPdSt6vectorIdSaIdEEEExNS0_5__ops15_Iter_less_iterEEvT_S9_S9_T0_T1_"
 "_ZSt9__find_ifIN9__gnu_cxx17__normal_iteratorIPKNSt7__cxx1112basic_stringIcSt11char_traitsIcESaIcEEESt6vectorIS7_SaIS7_EEEENS0_5__ops16_Iter_equals_valIS8_EEET_SH_SH_T0_St26random_access_iterator_tag"
 "_ZSt9__find_ifIN9__gnu_cxx17__normal_iteratorIPNSt7__cxx1112basic_stringIcSt11char_traitsIcESaIcEEESt6vectorIS7_SaIS7_EEEENS0_5__ops16_Iter_equals_valIA5_KcEEET_SI_SI_T0_St26random_access_iterator_tag"
 "_ZSt9__find_ifIN9__gnu_cxx17__normal_iteratorIPNSt7__cxx1112basic_stringIcSt11char_traitsIcESaIcEEESt6vectorIS7_SaIS7_EEEENS0_5__ops16_Iter_equals_valIKS7_EEET_SH_SH_T0_St26random_access_iterator_tag"
 "_ZSteqIcEN9__gnu_cxx11__enable_ifIXsrSt9__is_charIT_E7__valueEbE6__typeERKNSt7__cxx1112basic_stringIS3_St11char_traitsIS3_ESaIS3_EEESE_"
 "_ZStplIcSt11char_traitsIcESaIcEENSt7__cxx1112basic_stringIT_T0_T1_EEOS8_PKS5_"
 "_ZStplIcSt11char_traitsIcESaIcEENSt7__cxx1112basic_stringIT_T0_T1_EEOS8_S9_"
 "_ZStplIcSt11char_traitsIcESaIcEENSt7__cxx1112basic_stringIT_T0_T1_EEPKS5_RKS8_"
 "_ZTCN4Rcpp8RostreamILb0EEE0_So"
 "_ZTCN4Rcpp8RostreamILb1EEE0_So"
 "_ZTCN5rstan2io9r_ostreamINS0_16r_cerr_streambufEEE0_So"
 "_ZTCN5rstan2io9r_ostreamINS0_16r_cout_streambufEEE0_So"
 "_ZTIN25model_RP_expert_namespace15model_RP_expertE"
 "_ZTIN3tbb10interface623task_scheduler_observerE"
 "_ZTIN3tbb8internal26task_scheduler_observer_v3E"
 "_ZTIN4Rcpp10CppMethod0IN5rstan8stan_fitIN25model_RP_expert_namespace15model_RP_expertEN5boost6random23additive_combine_engineINS6_26linear_congruential_engineIjLj40014ELj0ELj2147483563EEENS8_IjLj40692ELj0ELj2147483399EEEEEEEP7SEXPRECEE"
 "_ZTIN4Rcpp10CppMethod1IN5rstan8stan_fitIN25model_RP_expert_namespace15model_RP_expertEN5boost6random23additive_combine_engineINS6_26linear_congruential_engineIjLj40014ELj0ELj2147483563EEENS8_IjLj40692ELj0ELj2147483399EEEEEEEP7SEXPRECSE_EE"
 "_ZTIN4Rcpp10CppMethod2IN5rstan8stan_fitIN25model_RP_expert_namespace15model_RP_expertEN5boost6random23additive_combine_engineINS6_26linear_congruential_engineIjLj40014ELj0ELj2147483563EEENS8_IjLj40692ELj0ELj2147483399EEEEEEEP7SEXPRECSE_SE_EE"
 "_ZTIN4Rcpp10CppMethod3IN5rstan8stan_fitIN25model_RP_expert_namespace15model_RP_expertEN5boost6random23additive_combine_engineINS6_26linear_congruential_engineIjLj40014ELj0ELj2147483563EEENS8_IjLj40692ELj0ELj2147483399EEEEEEEP7SEXPRECSE_SE_SE_EE"
 "_ZTIN4Rcpp10RstreambufILb0EEE"
 "_ZTIN4Rcpp10RstreambufILb1EEE"
 "_ZTIN4Rcpp10class_BaseE"
 "_ZTIN4Rcpp10eval_errorE"
 "_ZTIN4Rcpp11CppPropertyIN5rstan8stan_fitIN25model_RP_expert_namespace15model_RP_expertEN5boost6random23additive_combine_engineINS6_26linear_congruential_engineIjLj40014ELj0ELj2147483563EEENS8_IjLj40692ELj0ELj2147483399EEEEEEEEE"
 "_ZTIN4Rcpp12CppFinalizerIN5rstan8stan_fitIN25model_RP_expert_namespace15model_RP_expertEN5boost6random23additive_combine_engineINS6_26linear_congruential_engineIjLj40014ELj0ELj2147483563EEENS8_IjLj40692ELj0ELj2147483399EEEEEEEEE"
 "_ZTIN4Rcpp13Constructor_3IN5rstan8stan_fitIN25model_RP_expert_namespace15model_RP_expertEN5boost6random23additive_combine_engineINS6_26linear_congruential_engineIjLj40014ELj0ELj2147483563EEENS8_IjLj40692ELj0ELj2147483399EEEEEEEP7SEXPRECSE_SE_EE"
 "_ZTIN4Rcpp13not_referenceE"
 "_ZTIN4Rcpp14not_compatibleE"
 "_ZTIN4Rcpp16Constructor_BaseIN5rstan8stan_fitIN25model_RP_expert_namespace15model_RP_expertEN5boost6random23additive_combine_engineINS6_26linear_congruential_engineIjLj40014ELj0ELj2147483563EEENS8_IjLj40692ELj0ELj2147483399EEEEEEEEE"
 "_ZTIN4Rcpp16const_CppMethod0IN5rstan8stan_fitIN25model_RP_expert_namespace15model_RP_expertEN5boost6random23additive_combine_engineINS6_26linear_congruential_engineIjLj40014ELj0ELj2147483563EEENS8_IjLj40692ELj0ELj2147483399EEEEEEEP7SEXPRECEE"
 "_ZTIN4Rcpp17LongjumpExceptionE"
 "_ZTIN4Rcpp19index_out_of_boundsE"
 "_ZTIN4Rcpp6class_IN5rstan8stan_fitIN25model_RP_expert_namespace15model_RP_expertEN5boost6random23additive_combine_engineINS6_26linear_congruential_engineIjLj40014ELj0ELj2147483563EEENS8_IjLj40692ELj0ELj2147483399EEEEEEEEE"
 "_ZTIN4Rcpp8RostreamILb0EEE"
 "_ZTIN4Rcpp8RostreamILb1EEE"
 "_ZTIN4Rcpp8internal20InterruptedExceptionE"
 "_ZTIN4Rcpp9CppMethodIN5rstan8stan_fitIN25model_RP_expert_namespace15model_RP_expertEN5boost6random23additive_combine_engineINS6_26linear_congruential_engineIjLj40014ELj0ELj2147483563EEENS8_IjLj40692ELj0ELj2147483399EEEEEEEEE"
 "_ZTIN4Rcpp9exceptionE"
 "_ZTIN4stan11variational11base_familyE"
 "_ZTIN4stan11variational15normal_fullrankE"
 "_ZTIN4stan11variational16normal_meanfieldE"
 "_ZTIN4stan2io11var_contextE"
 "_ZTIN4stan2io17array_var_contextE"
 "_ZTIN4stan2io17empty_var_contextE"
 "_ZTIN4stan2io18random_var_contextE"
 "_ZTIN4stan2io19chained_var_contextE"
 "_ZTIN4stan2io4dumpE"
 "_ZTIN4stan4lang17located_exceptionISt10bad_typeidEE"
 "_ZTIN4stan4lang17located_exceptionISt13bad_exceptionEE"
 "_ZTIN4stan4lang17located_exceptionISt8bad_castEE"
 "_ZTIN4stan4lang17located_exceptionISt9bad_allocEE"
 "_ZTIN4stan4lang17located_exceptionISt9exceptionEE"
 "_ZTIN4stan4math10op_vd_variE"
 "_ZTIN4stan4math10op_vv_variE"
 "_ZTIN4stan4math10sum_v_variE"
 "_ZTIN4stan4math16ad_tape_observerE"
 "_ZTIN4stan4math17multiply_mat_variIdLi1ELin1ENS0_3varELi1EEE"
 "_ZTIN4stan4math17multiply_mat_variIdLin1ELin1ENS0_3varELi1EEE"
 "_ZTIN4stan4math26precomputed_gradients_variE"
 "_ZTIN4stan4math4variE"
 "_ZTIN4stan4math8internal11add_vd_variE"
 "_ZTIN4stan4math8internal11add_vv_variE"
 "_ZTIN4stan4math8internal11pow_vd_variE"
 "_ZTIN4stan4math8internal11square_variE"
 "_ZTIN4stan4math8internal13inv_sqrt_variE"
 "_ZTIN4stan4math8internal15inv_square_variE"
 "_ZTIN4stan4math8internal16dot_product_variINS0_3varEdEE"
 "_ZTIN4stan4math8internal16multiply_vd_variE"
 "_ZTIN4stan4math8internal16multiply_vv_variE"
 "_ZTIN4stan4math8internal16subtract_vv_variE"
 "_ZTIN4stan4math8internal8exp_variE"
 "_ZTIN4stan4math8internal8inv_variE"
 "_ZTIN4stan4math8internal8log_variE"
 "_ZTIN4stan4math8internal8neg_variE"
 "_ZTIN4stan4math8internal9sqrt_variE"
 "_ZTIN4stan4math9op_v_variE"
 "_ZTIN4stan4mcmc11diag_e_nutsIN25model_RP_expert_namespace15model_RP_expertEN5boost6random23additive_combine_engineINS5_26linear_congruential_engineIjLj40014ELj0ELj2147483563EEENS7_IjLj40692ELj0ELj2147483399EEEEEEE"
 "_ZTIN4stan4mcmc11unit_e_nutsIN25model_RP_expert_namespace15model_RP_expertEN5boost6random23additive_combine_engineINS5_26linear_congruential_engineIjLj40014ELj0ELj2147483563EEENS7_IjLj40692ELj0ELj2147483399EEEEEEE"
 "_ZTIN4stan4mcmc12base_adapterE"
 "_ZTIN4stan4mcmc12dense_e_nutsIN25model_RP_expert_namespace15model_RP_expertEN5boost6random23additive_combine_engineINS5_26linear_congruential_engineIjLj40014ELj0ELj2147483563EEENS7_IjLj40692ELj0ELj2147483399EEEEEEE"
 "_ZTIN4stan4mcmc12diag_e_pointE"
 "_ZTIN4stan4mcmc12unit_e_pointE"
 "_ZTIN4stan4mcmc13base_leapfrogINS0_13diag_e_metricIN25model_RP_expert_namespace15model_RP_expertEN5boost6random23additive_combine_engineINS6_26linear_congruential_engineIjLj40014ELj0ELj2147483563EEENS8_IjLj40692ELj0ELj2147483399EEEEEEEEE"
 "_ZTIN4stan4mcmc13base_leapfrogINS0_13unit_e_metricIN25model_RP_expert_namespace15model_RP_expertEN5boost6random23additive_combine_engineINS6_26linear_congruential_engineIjLj40014ELj0ELj2147483563EEENS8_IjLj40692ELj0ELj2147483399EEEEEEEEE"
 "_ZTIN4stan4mcmc13base_leapfrogINS0_14dense_e_metricIN25model_RP_expert_namespace15model_RP_expertEN5boost6random23additive_combine_engineINS6_26linear_congruential_engineIjLj40014ELj0ELj2147483563EEENS8_IjLj40692ELj0ELj2147483399EEEEEEEEE"
 "_ZTIN4stan4mcmc13dense_e_pointE"
 "_ZTIN4stan4mcmc13diag_e_metricIN25model_RP_expert_namespace15model_RP_expertEN5boost6random23additive_combine_engineINS5_26linear_congruential_engineIjLj40014ELj0ELj2147483563EEENS7_IjLj40692ELj0ELj2147483399EEEEEEE"
 "_ZTIN4stan4mcmc13expl_leapfrogINS0_13diag_e_metricIN25model_RP_expert_namespace15model_RP_expertEN5boost6random23additive_combine_engineINS6_26linear_congruential_engineIjLj40014ELj0ELj2147483563EEENS8_IjLj40692ELj0ELj2147483399EEEEEEEEE"
 "_ZTIN4stan4mcmc13expl_leapfrogINS0_13unit_e_metricIN25model_RP_expert_namespace15model_RP_expertEN5boost6random23additive_combine_engineINS6_26linear_congruential_engineIjLj40014ELj0ELj2147483563EEENS8_IjLj40692ELj0ELj2147483399EEEEEEEEE"
 "_ZTIN4stan4mcmc13expl_leapfrogINS0_14dense_e_metricIN25model_RP_expert_namespace15model_RP_expertEN5boost6random23additive_combine_engineINS6_26linear_congruential_engineIjLj40014ELj0ELj2147483563EEENS8_IjLj40692ELj0ELj2147483399EEEEEEEEE"
 "_ZTIN4stan4mcmc13unit_e_metricIN25model_RP_expert_namespace15model_RP_expertEN5boost6random23additive_combine_engineINS5_26linear_congruential_engineIjLj40014ELj0ELj2147483563EEENS7_IjLj40692ELj0ELj2147483399EEEEEEE"
 "_ZTIN4stan4mcmc14dense_e_metricIN25model_RP_expert_namespace15model_RP_expertEN5boost6random23additive_combine_engineINS5_26linear_congruential_engineIjLj40014ELj0ELj2147483563EEENS7_IjLj40692ELj0ELj2147483399EEEEEEE"
 "_ZTIN4stan4mcmc14var_adaptationE"
 "_ZTIN4stan4mcmc15base_adaptationE"
 "_ZTIN4stan4mcmc15base_integratorINS0_13diag_e_metricIN25model_RP_expert_namespace15model_RP_expertEN5boost6random23additive_combine_engineINS6_26linear_congruential_engineIjLj40014ELj0ELj2147483563EEENS8_IjLj40692ELj0ELj2147483399EEEEEEEEE"
 "_ZTIN4stan4mcmc15base_integratorINS0_13unit_e_metricIN25model_RP_expert_namespace15model_RP_expertEN5boost6random23additive_combine_engineINS6_26linear_congruential_engineIjLj40014ELj0ELj2147483563EEENS8_IjLj40692ELj0ELj2147483399EEEEEEEEE"
 "_ZTIN4stan4mcmc15base_integratorINS0_14dense_e_metricIN25model_RP_expert_namespace15model_RP_expertEN5boost6random23additive_combine_engineINS6_26linear_congruential_engineIjLj40014ELj0ELj2147483563EEENS8_IjLj40692ELj0ELj2147483399EEEEEEEEE"
 "_ZTIN4stan4mcmc15base_static_hmcIN25model_RP_expert_namespace15model_RP_expertENS0_13diag_e_metricENS0_13expl_leapfrogEN5boost6random23additive_combine_engineINS7_26linear_congruential_engineIjLj40014ELj0ELj2147483563EEENS9_IjLj40692ELj0ELj2147483399EEEEEEE"
 "_ZTIN4stan4mcmc15base_static_hmcIN25model_RP_expert_namespace15model_RP_expertENS0_13unit_e_metricENS0_13expl_leapfrogEN5boost6random23additive_combine_engineINS7_26linear_congruential_engineIjLj40014ELj0ELj2147483563EEENS9_IjLj40692ELj0ELj2147483399EEEEEEE"
 "_ZTIN4stan4mcmc15base_static_hmcIN25model_RP_expert_namespace15model_RP_expertENS0_14dense_e_metricENS0_13expl_leapfrogEN5boost6random23additive_combine_engineINS7_26linear_congruential_engineIjLj40014ELj0ELj2147483563EEENS9_IjLj40692ELj0ELj2147483399EEEEEEE"
 "_ZTIN4stan4mcmc16base_hamiltonianIN25model_RP_expert_namespace15model_RP_expertENS0_12diag_e_pointEN5boost6random23additive_combine_engineINS6_26linear_congruential_engineIjLj40014ELj0ELj2147483563EEENS8_IjLj40692ELj0ELj2147483399EEEEEEE"
 "_ZTIN4stan4mcmc16base_hamiltonianIN25model_RP_expert_namespace15model_RP_expertENS0_12unit_e_pointEN5boost6random23additive_combine_engineINS6_26linear_congruential_engineIjLj40014ELj0ELj2147483563EEENS8_IjLj40692ELj0ELj2147483399EEEEEEE"
 "_ZTIN4stan4mcmc16base_hamiltonianIN25model_RP_expert_namespace15model_RP_expertENS0_13dense_e_pointEN5boost6random23additive_combine_engineINS6_26linear_congruential_engineIjLj40014ELj0ELj2147483563EEENS8_IjLj40692ELj0ELj2147483399EEEEEEE"
 "_ZTIN4stan4mcmc16covar_adaptationE"
 "_ZTIN4stan4mcmc16stepsize_adapterE"
 "_ZTIN4stan4mcmc17adapt_diag_e_nutsIN25model_RP_expert_namespace15model_RP_expertEN5boost6random23additive_combine_engineINS5_26linear_congruential_engineIjLj40014ELj0ELj2147483563EEENS7_IjLj40692ELj0ELj2147483399EEEEEEE"
 "_ZTIN4stan4mcmc17adapt_unit_e_nutsIN25model_RP_expert_namespace15model_RP_expertEN5boost6random23additive_combine_engineINS5_26linear_congruential_engineIjLj40014ELj0ELj2147483563EEENS7_IjLj40692ELj0ELj2147483399EEEEEEE"
 "_ZTIN4stan4mcmc17diag_e_static_hmcIN25model_RP_expert_namespace15model_RP_expertEN5boost6random23additive_combine_engineINS5_26linear_congruential_engineIjLj40014ELj0ELj2147483563EEENS7_IjLj40692ELj0ELj2147483399EEEEEEE"
 "_ZTIN4stan4mcmc17unit_e_static_hmcIN25model_RP_expert_namespace15model_RP_expertEN5boost6random23additive_combine_engineINS5_26linear_congruential_engineIjLj40014ELj0ELj2147483563EEENS7_IjLj40692ELj0ELj2147483399EEEEEEE"
 "_ZTIN4stan4mcmc18adapt_dense_e_nutsIN25model_RP_expert_namespace15model_RP_expertEN5boost6random23additive_combine_engineINS5_26linear_congruential_engineIjLj40014ELj0ELj2147483563EEENS7_IjLj40692ELj0ELj2147483399EEEEEEE"
 "_ZTIN4stan4mcmc18dense_e_static_hmcIN25model_RP_expert_namespace15model_RP_expertEN5boost6random23additive_combine_engineINS5_26linear_congruential_engineIjLj40014ELj0ELj2147483563EEENS7_IjLj40692ELj0ELj2147483399EEEEEEE"
 "_ZTIN4stan4mcmc19fixed_param_samplerE"
 "_ZTIN4stan4mcmc19stepsize_adaptationE"
 "_ZTIN4stan4mcmc19windowed_adaptationE"
 "_ZTIN4stan4mcmc20stepsize_var_adapterE"
 "_ZTIN4stan4mcmc22stepsize_covar_adapterE"
 "_ZTIN4stan4mcmc23adapt_diag_e_static_hmcIN25model_RP_expert_namespace15model_RP_expertEN5boost6random23additive_combine_engineINS5_26linear_congruential_engineIjLj40014ELj0ELj2147483563EEENS7_IjLj40692ELj0ELj2147483399EEEEEEE"
 "_ZTIN4stan4mcmc23adapt_unit_e_static_hmcIN25model_RP_expert_namespace15model_RP_expertEN5boost6random23additive_combine_engineINS5_26linear_congruential_engineIjLj40014ELj0ELj2147483563EEENS7_IjLj40692ELj0ELj2147483399EEEEEEE"
 "_ZTIN4stan4mcmc24adapt_dense_e_static_hmcIN25model_RP_expert_namespace15model_RP_expertEN5boost6random23additive_combine_engineINS5_26linear_congruential_engineIjLj40014ELj0ELj2147483563EEENS7_IjLj40692ELj0ELj2147483399EEEEEEE"
 "_ZTIN4stan4mcmc6sampleE"
 "_ZTIN4stan4mcmc8base_hmcIN25model_RP_expert_namespace15model_RP_expertENS0_13diag_e_metricENS0_13expl_leapfrogEN5boost6random23additive_combine_engineINS7_26linear_congruential_engineIjLj40014ELj0ELj2147483563EEENS9_IjLj40692ELj0ELj2147483399EEEEEEE"
 "_ZTIN4stan4mcmc8base_hmcIN25model_RP_expert_namespace15model_RP_expertENS0_13unit_e_metricENS0_13expl_leapfrogEN5boost6random23additive_combine_engineINS7_26linear_congruential_engineIjLj40014ELj0ELj2147483563EEENS9_IjLj40692ELj0ELj2147483399EEEEEEE"
 "_ZTIN4stan4mcmc8base_hmcIN25model_RP_expert_namespace15model_RP_expertENS0_14dense_e_metricENS0_13expl_leapfrogEN5boost6random23additive_combine_engineINS7_26linear_congruential_engineIjLj40014ELj0ELj2147483563EEENS9_IjLj40692ELj0ELj2147483399EEEEEEE"
 "_ZTIN4stan4mcmc8ps_pointE"
 "_ZTIN4stan4mcmc9base_mcmcE"
 "_ZTIN4stan4mcmc9base_nutsIN25model_RP_expert_namespace15model_RP_expertENS0_13diag_e_metricENS0_13expl_leapfrogEN5boost6random23additive_combine_engineINS7_26linear_congruential_engineIjLj40014ELj0ELj2147483563EEENS9_IjLj40692ELj0ELj2147483399EEEEEEE"
 "_ZTIN4stan4mcmc9base_nutsIN25model_RP_expert_namespace15model_RP_expertENS0_13unit_e_metricENS0_13expl_leapfrogEN5boost6random23additive_combine_engineINS7_26linear_congruential_engineIjLj40014ELj0ELj2147483563EEENS9_IjLj40692ELj0ELj2147483399EEEEEEE"
 "_ZTIN4stan4mcmc9base_nutsIN25model_RP_expert_namespace15model_RP_expertENS0_14dense_e_metricENS0_13expl_leapfrogEN5boost6random23additive_combine_engineINS7_26linear_congruential_engineIjLj40014ELj0ELj2147483563EEENS9_IjLj40692ELj0ELj2147483399EEEEEEE"
 "_ZTIN4stan5model10model_baseE"
 "_ZTIN4stan5model15model_base_crtpIN25model_RP_expert_namespace15model_RP_expertEEE"
 "_ZTIN4stan5model9prob_gradE"
 "_ZTIN4stan9callbacks13stream_loggerE"
 "_ZTIN4stan9callbacks13stream_writerE"
 "_ZTIN4stan9callbacks27stream_logger_with_chain_idE"
 "_ZTIN4stan9callbacks6loggerE"
 "_ZTIN4stan9callbacks6writerE"
 "_ZTIN4stan9callbacks9interruptE"
 "_ZTIN5boost10error_infoINS_27tag_original_exception_typeEPKSt9type_infoEE"
 "_ZTIN5boost10wrapexceptINS_16bad_lexical_castEEE"
 "_ZTIN5boost10wrapexceptINS_4math14rounding_errorEEE"
 "_ZTIN5boost10wrapexceptINS_4math16evaluation_errorEEE"
 "_ZTIN5boost10wrapexceptISt11logic_errorEE"
 "_ZTIN5boost10wrapexceptISt12domain_errorEE"
 "_ZTIN5boost10wrapexceptISt12length_errorEE"
 "_ZTIN5boost10wrapexceptISt14overflow_errorEE"
 "_ZTIN5boost10wrapexceptISt16invalid_argumentEE"
 "_ZTIN5boost16bad_lexical_castE"
 "_ZTIN5boost16exception_detail10bad_alloc_E"
 "_ZTIN5boost16exception_detail10clone_baseE"
 "_ZTIN5boost16exception_detail10clone_implINS0_10bad_alloc_EEE"
 "_ZTIN5boost16exception_detail10clone_implINS0_14bad_exception_EEE"
 "_ZTIN5boost16exception_detail14bad_exception_E"
 "_ZTIN5boost16exception_detail15error_info_baseE"
 "_ZTIN5boost16exception_detail20error_info_containerE"
 "_ZTIN5boost16exception_detail25error_info_container_implE"
 "_ZTIN5boost4math14rounding_errorE"
 "_ZTIN5boost4math16evaluation_errorE"
 "_ZTIN5boost6detail15sp_counted_baseE"
 "_ZTIN5boost6detail16basic_pointerbufIcSt15basic_streambufIcSt11char_traitsIcEEEE"
 "_ZTIN5boost6detail17basic_unlockedbufISt15basic_streambufIcSt11char_traitsIcEEcEE"
 "_ZTIN5boost6detail17sp_counted_impl_pINS_16exception_detail10clone_implINS2_10bad_alloc_EEEEE"
 "_ZTIN5boost6detail17sp_counted_impl_pINS_16exception_detail10clone_implINS2_14bad_exception_EEEEE"
 "_ZTIN5boost6detail17sp_counted_impl_pINS_16exception_detail15error_info_baseEEE"
 "_ZTIN5boost9exceptionE"
 "_ZTIN5rstan10sum_valuesE"
 "_ZTIN5rstan14comment_writerE"
 "_ZTIN5rstan15filtered_valuesIN4Rcpp6VectorILi14ENS1_15PreserveStorageEEEEE"
 "_ZTIN5rstan19rstan_sample_writerE"
 "_ZTIN5rstan2io16r_cerr_streambufE"
 "_ZTIN5rstan2io16r_cout_streambufE"
 "_ZTIN5rstan2io21rlist_ref_var_contextE"
 "_ZTIN5rstan2io9r_ostreamINS0_16r_cerr_streambufEEE"
 "_ZTIN5rstan2io9r_ostreamINS0_16r_cout_streambufEEE"
 "_ZTIN5rstan5valueE"
 "_ZTIN5rstan6valuesIN4Rcpp6VectorILi14ENS1_15PreserveStorageEEEEE"
 "_ZTINSt7__cxx1112basic_stringIcSt11char_traitsIcESaIcEEE"
 "_ZTINSt8ios_base7failureB5cxx11E"
 "_ZTISt10bad_typeid"
 "_ZTISt11logic_error"
 "_ZTISt11range_error"
 "_ZTISt12domain_error"
 "_ZTISt12length_error"
 "_ZTISt12out_of_range"
 "_ZTISt12system_error"
 "_ZTISt13bad_exception"
 "_ZTISt13runtime_error"
 "_ZTISt14overflow_error"
 "_ZTISt15underflow_error"
 "_ZTISt16invalid_argument"
 "_ZTISt8bad_cast"
 "_ZTISt9bad_alloc"
 "_ZTISt9exception"
 "_ZTSN25model_RP_expert_namespace15model_RP_expertE"
 "_ZTSN3tbb10interface623task_scheduler_observerE"
 "_ZTSN3tbb8internal26task_scheduler_observer_v3E"
 "_ZTSN4Rcpp10CppMethod0IN5rstan8stan_fitIN25model_RP_expert_namespace15model_RP_expertEN5boost6random23additive_combine_engineINS6_26linear_congruential_engineIjLj40014ELj0ELj2147483563EEENS8_IjLj40692ELj0ELj2147483399EEEEEEEP7SEXPRECEE"
 "_ZTSN4Rcpp10CppMethod1IN5rstan8stan_fitIN25model_RP_expert_namespace15model_RP_expertEN5boost6random23additive_combine_engineINS6_26linear_congruential_engineIjLj40014ELj0ELj2147483563EEENS8_IjLj40692ELj0ELj2147483399EEEEEEEP7SEXPRECSE_EE"
 "_ZTSN4Rcpp10CppMethod2IN5rstan8stan_fitIN25model_RP_expert_namespace15model_RP_expertEN5boost6random23additive_combine_engineINS6_26linear_congruential_engineIjLj40014ELj0ELj2147483563EEENS8_IjLj40692ELj0ELj2147483399EEEEEEEP7SEXPRECSE_SE_EE"
 "_ZTSN4Rcpp10CppMethod3IN5rstan8stan_fitIN25model_RP_expert_namespace15model_RP_expertEN5boost6random23additive_combine_engineINS6_26linear_congruential_engineIjLj40014ELj0ELj2147483563EEENS8_IjLj40692ELj0ELj2147483399EEEEEEEP7SEXPRECSE_SE_SE_EE"
 "_ZTSN4Rcpp10RstreambufILb0EEE"
 "_ZTSN4Rcpp10RstreambufILb1EEE"
 "_ZTSN4Rcpp10class_BaseE"
 "_ZTSN4Rcpp10eval_errorE"
 "_ZTSN4Rcpp11CppPropertyIN5rstan8stan_fitIN25model_RP_expert_namespace15model_RP_expertEN5boost6random23additive_combine_engineINS6_26linear_congruential_engineIjLj40014ELj0ELj2147483563EEENS8_IjLj40692ELj0ELj2147483399EEEEEEEEE"
 "_ZTSN4Rcpp12CppFinalizerIN5rstan8stan_fitIN25model_RP_expert_namespace15model_RP_expertEN5boost6random23additive_combine_engineINS6_26linear_congruential_engineIjLj40014ELj0ELj2147483563EEENS8_IjLj40692ELj0ELj2147483399EEEEEEEEE"
 "_ZTSN4Rcpp13Constructor_3IN5rstan8stan_fitIN25model_RP_expert_namespace15model_RP_expertEN5boost6random23additive_combine_engineINS6_26linear_congruential_engineIjLj40014ELj0ELj2147483563EEENS8_IjLj40692ELj0ELj2147483399EEEEEEEP7SEXPRECSE_SE_EE"
 "_ZTSN4Rcpp13not_referenceE"
 "_ZTSN4Rcpp14not_compatibleE"
 "_ZTSN4Rcpp16Constructor_BaseIN5rstan8stan_fitIN25model_RP_expert_namespace15model_RP_expertEN5boost6random23additive_combine_engineINS6_26linear_congruential_engineIjLj40014ELj0ELj2147483563EEENS8_IjLj40692ELj0ELj2147483399EEEEEEEEE"
 "_ZTSN4Rcpp16const_CppMethod0IN5rstan8stan_fitIN25model_RP_expert_namespace15model_RP_expertEN5boost6random23additive_combine_engineINS6_26linear_congruential_engineIjLj40014ELj0ELj2147483563EEENS8_IjLj40692ELj0ELj2147483399EEEEEEEP7SEXPRECEE"
 "_ZTSN4Rcpp17LongjumpExceptionE"
 "_ZTSN4Rcpp19index_out_of_boundsE"
 "_ZTSN4Rcpp6class_IN5rstan8stan_fitIN25model_RP_expert_namespace15model_RP_expertEN5boost6random23additive_combine_engineINS6_26linear_congruential_engineIjLj40014ELj0ELj2147483563EEENS8_IjLj40692ELj0ELj2147483399EEEEEEEEE"
 "_ZTSN4Rcpp8RostreamILb0EEE"
 "_ZTSN4Rcpp8RostreamILb1EEE"
 "_ZTSN4Rcpp8internal20InterruptedExceptionE"
 "_ZTSN4Rcpp9CppMethodIN5rstan8stan_fitIN25model_RP_expert_namespace15model_RP_expertEN5boost6random23additive_combine_engineINS6_26linear_congruential_engineIjLj40014ELj0ELj2147483563EEENS8_IjLj40692ELj0ELj2147483399EEEEEEEEE"
 "_ZTSN4Rcpp9exceptionE"
 "_ZTSN4stan11variational11base_familyE"
 "_ZTSN4stan11variational15normal_fullrankE"
 "_ZTSN4stan11variational16normal_meanfieldE"
 "_ZTSN4stan2io11var_contextE"
 "_ZTSN4stan2io17array_var_contextE"
 "_ZTSN4stan2io17empty_var_contextE"
 "_ZTSN4stan2io18random_var_contextE"
 "_ZTSN4stan2io19chained_var_contextE"
 "_ZTSN4stan2io4dumpE"
 "_ZTSN4stan4lang17located_exceptionISt10bad_typeidEE"
 "_ZTSN4stan4lang17located_exceptionISt13bad_exceptionEE"
 "_ZTSN4stan4lang17located_exceptionISt8bad_castEE"
 "_ZTSN4stan4lang17located_exceptionISt9bad_allocEE"
 "_ZTSN4stan4lang17located_exceptionISt9exceptionEE"
 "_ZTSN4stan4math10op_vd_variE"
 "_ZTSN4stan4math10op_vv_variE"
 "_ZTSN4stan4math10sum_v_variE"
 "_ZTSN4stan4math16ad_tape_observerE"
 "_ZTSN4stan4math17multiply_mat_variIdLi1ELin1ENS0_3varELi1EEE"
 "_ZTSN4stan4math17multiply_mat_variIdLin1ELin1ENS0_3varELi1EEE"
 "_ZTSN4stan4math26precomputed_gradients_variE"
 "_ZTSN4stan4math4variE"
 "_ZTSN4stan4math8internal11add_vd_variE"
 "_ZTSN4stan4math8internal11add_vv_variE"
 "_ZTSN4stan4math8internal11pow_vd_variE"
 "_ZTSN4stan4math8internal11square_variE"
 "_ZTSN4stan4math8internal13inv_sqrt_variE"
 "_ZTSN4stan4math8internal15inv_square_variE"
 "_ZTSN4stan4math8internal16dot_product_variINS0_3varEdEE"
 "_ZTSN4stan4math8internal16multiply_vd_variE"
 "_ZTSN4stan4math8internal16multiply_vv_variE"
 "_ZTSN4stan4math8internal16subtract_vv_variE"
 "_ZTSN4stan4math8internal8exp_variE"
 "_ZTSN4stan4math8internal8inv_variE"
 "_ZTSN4stan4math8internal8log_variE"
 "_ZTSN4stan4math8internal8neg_variE"
 "_ZTSN4stan4math8internal9sqrt_variE"
 "_ZTSN4stan4math9op_v_variE"
 "_ZTSN4stan4mcmc11diag_e_nutsIN25model_RP_expert_namespace15model_RP_expertEN5boost6random23additive_combine_engineINS5_26linear_congruential_engineIjLj40014ELj0ELj2147483563EEENS7_IjLj40692ELj0ELj2147483399EEEEEEE"
 "_ZTSN4stan4mcmc11unit_e_nutsIN25model_RP_expert_namespace15model_RP_expertEN5boost6random23additive_combine_engineINS5_26linear_congruential_engineIjLj40014ELj0ELj2147483563EEENS7_IjLj40692ELj0ELj2147483399EEEEEEE"
 "_ZTSN4stan4mcmc12base_adapterE"
 "_ZTSN4stan4mcmc12dense_e_nutsIN25model_RP_expert_namespace15model_RP_expertEN5boost6random23additive_combine_engineINS5_26linear_congruential_engineIjLj40014ELj0ELj2147483563EEENS7_IjLj40692ELj0ELj2147483399EEEEEEE"
 "_ZTSN4stan4mcmc12diag_e_pointE"
 "_ZTSN4stan4mcmc12unit_e_pointE"
 "_ZTSN4stan4mcmc13base_leapfrogINS0_13diag_e_metricIN25model_RP_expert_namespace15model_RP_expertEN5boost6random23additive_combine_engineINS6_26linear_congruential_engineIjLj40014ELj0ELj2147483563EEENS8_IjLj40692ELj0ELj2147483399EEEEEEEEE"
 "_ZTSN4stan4mcmc13base_leapfrogINS0_13unit_e_metricIN25model_RP_expert_namespace15model_RP_expertEN5boost6random23additive_combine_engineINS6_26linear_congruential_engineIjLj40014ELj0ELj2147483563EEENS8_IjLj40692ELj0ELj2147483399EEEEEEEEE"
 "_ZTSN4stan4mcmc13base_leapfrogINS0_14dense_e_metricIN25model_RP_expert_namespace15model_RP_expertEN5boost6random23additive_combine_engineINS6_26linear_congruential_engineIjLj40014ELj0ELj2147483563EEENS8_IjLj40692ELj0ELj2147483399EEEEEEEEE"
 "_ZTSN4stan4mcmc13dense_e_pointE"
 "_ZTSN4stan4mcmc13diag_e_metricIN25model_RP_expert_namespace15model_RP_expertEN5boost6random23additive_combine_engineINS5_26linear_congruential_engineIjLj40014ELj0ELj2147483563EEENS7_IjLj40692ELj0ELj2147483399EEEEEEE"
 "_ZTSN4stan4mcmc13expl_leapfrogINS0_13diag_e_metricIN25model_RP_expert_namespace15model_RP_expertEN5boost6random23additive_combine_engineINS6_26linear_congruential_engineIjLj40014ELj0ELj2147483563EEENS8_IjLj40692ELj0ELj2147483399EEEEEEEEE"
 "_ZTSN4stan4mcmc13expl_leapfrogINS0_13unit_e_metricIN25model_RP_expert_namespace15model_RP_expertEN5boost6random23additive_combine_engineINS6_26linear_congruential_engineIjLj40014ELj0ELj2147483563EEENS8_IjLj40692ELj0ELj2147483399EEEEEEEEE"
 "_ZTSN4stan4mcmc13expl_leapfrogINS0_14dense_e_metricIN25model_RP_expert_namespace15model_RP_expertEN5boost6random23additive_combine_engineINS6_26linear_congruential_engineIjLj40014ELj0ELj2147483563EEENS8_IjLj40692ELj0ELj2147483399EEEEEEEEE"
 "_ZTSN4stan4mcmc13unit_e_metricIN25model_RP_expert_namespace15model_RP_expertEN5boost6random23additive_combine_engineINS5_26linear_congruential_engineIjLj40014ELj0ELj2147483563EEENS7_IjLj40692ELj0ELj2147483399EEEEEEE"
 "_ZTSN4stan4mcmc14dense_e_metricIN25model_RP_expert_namespace15model_RP_expertEN5boost6random23additive_combine_engineINS5_26linear_congruential_engineIjLj40014ELj0ELj2147483563EEENS7_IjLj40692ELj0ELj2147483399EEEEEEE"
 "_ZTSN4stan4mcmc14var_adaptationE"
 "_ZTSN4stan4mcmc15base_adaptationE"
 "_ZTSN4stan4mcmc15base_integratorINS0_13diag_e_metricIN25model_RP_expert_namespace15model_RP_expertEN5boost6random23additive_combine_engineINS6_26linear_congruential_engineIjLj40014ELj0ELj2147483563EEENS8_IjLj40692ELj0ELj2147483399EEEEEEEEE"
 "_ZTSN4stan4mcmc15base_integratorINS0_13unit_e_metricIN25model_RP_expert_namespace15model_RP_expertEN5boost6random23additive_combine_engineINS6_26linear_congruential_engineIjLj40014ELj0ELj2147483563EEENS8_IjLj40692ELj0ELj2147483399EEEEEEEEE"
 "_ZTSN4stan4mcmc15base_integratorINS0_14dense_e_metricIN25model_RP_expert_namespace15model_RP_expertEN5boost6random23additive_combine_engineINS6_26linear_congruential_engineIjLj40014ELj0ELj2147483563EEENS8_IjLj40692ELj0ELj2147483399EEEEEEEEE"
 "_ZTSN4stan4mcmc15base_static_hmcIN25model_RP_expert_namespace15model_RP_expertENS0_13diag_e_metricENS0_13expl_leapfrogEN5boost6random23additive_combine_engineINS7_26linear_congruential_engineIjLj40014ELj0ELj2147483563EEENS9_IjLj40692ELj0ELj2147483399EEEEEEE"
 "_ZTSN4stan4mcmc15base_static_hmcIN25model_RP_expert_namespace15model_RP_expertENS0_13unit_e_metricENS0_13expl_leapfrogEN5boost6random23additive_combine_engineINS7_26linear_congruential_engineIjLj40014ELj0ELj2147483563EEENS9_IjLj40692ELj0ELj2147483399EEEEEEE"
 "_ZTSN4stan4mcmc15base_static_hmcIN25model_RP_expert_namespace15model_RP_expertENS0_14dense_e_metricENS0_13expl_leapfrogEN5boost6random23additive_combine_engineINS7_26linear_congruential_engineIjLj40014ELj0ELj2147483563EEENS9_IjLj40692ELj0ELj2147483399EEEEEEE"
 "_ZTSN4stan4mcmc16base_hamiltonianIN25model_RP_expert_namespace15model_RP_expertENS0_12diag_e_pointEN5boost6random23additive_combine_engineINS6_26linear_congruential_engineIjLj40014ELj0ELj2147483563EEENS8_IjLj40692ELj0ELj2147483399EEEEEEE"
 "_ZTSN4stan4mcmc16base_hamiltonianIN25model_RP_expert_namespace15model_RP_expertENS0_12unit_e_pointEN5boost6random23additive_combine_engineINS6_26linear_congruential_engineIjLj40014ELj0ELj2147483563EEENS8_IjLj40692ELj0ELj2147483399EEEEEEE"
 "_ZTSN4stan4mcmc16base_hamiltonianIN25model_RP_expert_namespace15model_RP_expertENS0_13dense_e_pointEN5boost6random23additive_combine_engineINS6_26linear_congruential_engineIjLj40014ELj0ELj2147483563EEENS8_IjLj40692ELj0ELj2147483399EEEEEEE"
 "_ZTSN4stan4mcmc16covar_adaptationE"
 "_ZTSN4stan4mcmc16stepsize_adapterE"
 "_ZTSN4stan4mcmc17adapt_diag_e_nutsIN25model_RP_expert_namespace15model_RP_expertEN5boost6random23additive_combine_engineINS5_26linear_congruential_engineIjLj40014ELj0ELj2147483563EEENS7_IjLj40692ELj0ELj2147483399EEEEEEE"
 "_ZTSN4stan4mcmc17adapt_unit_e_nutsIN25model_RP_expert_namespace15model_RP_expertEN5boost6random23additive_combine_engineINS5_26linear_congruential_engineIjLj40014ELj0ELj2147483563EEENS7_IjLj40692ELj0ELj2147483399EEEEEEE"
 "_ZTSN4stan4mcmc17diag_e_static_hmcIN25model_RP_expert_namespace15model_RP_expertEN5boost6random23additive_combine_engineINS5_26linear_congruential_engineIjLj40014ELj0ELj2147483563EEENS7_IjLj40692ELj0ELj2147483399EEEEEEE"
 "_ZTSN4stan4mcmc17unit_e_static_hmcIN25model_RP_expert_namespace15model_RP_expertEN5boost6random23additive_combine_engineINS5_26linear_congruential_engineIjLj40014ELj0ELj2147483563EEENS7_IjLj40692ELj0ELj2147483399EEEEEEE"
 "_ZTSN4stan4mcmc18adapt_dense_e_nutsIN25model_RP_expert_namespace15model_RP_expertEN5boost6random23additive_combine_engineINS5_26linear_congruential_engineIjLj40014ELj0ELj2147483563EEENS7_IjLj40692ELj0ELj2147483399EEEEEEE"
 "_ZTSN4stan4mcmc18dense_e_static_hmcIN25model_RP_expert_namespace15model_RP_expertEN5boost6random23additive_combine_engineINS5_26linear_congruential_engineIjLj40014ELj0ELj2147483563EEENS7_IjLj40692ELj0ELj2147483399EEEEEEE"
 "_ZTSN4stan4mcmc19fixed_param_samplerE"
 "_ZTSN4stan4mcmc19stepsize_adaptationE"
 "_ZTSN4stan4mcmc19windowed_adaptationE"
 "_ZTSN4stan4mcmc20stepsize_var_adapterE"
 "_ZTSN4stan4mcmc22stepsize_covar_adapterE"
 "_ZTSN4stan4mcmc23adapt_diag_e_static_hmcIN25model_RP_expert_namespace15model_RP_expertEN5boost6random23additive_combine_engineINS5_26linear_congruential_engineIjLj40014ELj0ELj2147483563EEENS7_IjLj40692ELj0ELj2147483399EEEEEEE"
 "_ZTSN4stan4mcmc23adapt_unit_e_static_hmcIN25model_RP_expert_namespace15model_RP_expertEN5boost6random23additive_combine_engineINS5_26linear_congruential_engineIjLj40014ELj0ELj2147483563EEENS7_IjLj40692ELj0ELj2147483399EEEEEEE"
 "_ZTSN4stan4mcmc24adapt_dense_e_static_hmcIN25model_RP_expert_namespace15model_RP_expertEN5boost6random23additive_combine_engineINS5_26linear_congruential_engineIjLj40014ELj0ELj2147483563EEENS7_IjLj40692ELj0ELj2147483399EEEEEEE"
 "_ZTSN4stan4mcmc6sampleE"
 "_ZTSN4stan4mcmc8base_hmcIN25model_RP_expert_namespace15model_RP_expertENS0_13diag_e_metricENS0_13expl_leapfrogEN5boost6random23additive_combine_engineINS7_26linear_congruential_engineIjLj40014ELj0ELj2147483563EEENS9_IjLj40692ELj0ELj2147483399EEEEEEE"
 "_ZTSN4stan4mcmc8base_hmcIN25model_RP_expert_namespace15model_RP_expertENS0_13unit_e_metricENS0_13expl_leapfrogEN5boost6random23additive_combine_engineINS7_26linear_congruential_engineIjLj40014ELj0ELj2147483563EEENS9_IjLj40692ELj0ELj2147483399EEEEEEE"
 "_ZTSN4stan4mcmc8base_hmcIN25model_RP_expert_namespace15model_RP_expertENS0_14dense_e_metricENS0_13expl_leapfrogEN5boost6random23additive_combine_engineINS7_26linear_congruential_engineIjLj40014ELj0ELj2147483563EEENS9_IjLj40692ELj0ELj2147483399EEEEEEE"
 "_ZTSN4stan4mcmc8ps_pointE"
 "_ZTSN4stan4mcmc9base_mcmcE"
 "_ZTSN4stan4mcmc9base_nutsIN25model_RP_expert_namespace15model_RP_expertENS0_13diag_e_metricENS0_13expl_leapfrogEN5boost6random23additive_combine_engineINS7_26linear_congruential_engineIjLj40014ELj0ELj2147483563EEENS9_IjLj40692ELj0ELj2147483399EEEEEEE"
 "_ZTSN4stan4mcmc9base_nutsIN25model_RP_expert_namespace15model_RP_expertENS0_13unit_e_metricENS0_13expl_leapfrogEN5boost6random23additive_combine_engineINS7_26linear_congruential_engineIjLj40014ELj0ELj2147483563EEENS9_IjLj40692ELj0ELj2147483399EEEEEEE"
 "_ZTSN4stan4mcmc9base_nutsIN25model_RP_expert_namespace15model_RP_expertENS0_14dense_e_metricENS0_13expl_leapfrogEN5boost6random23additive_combine_engineINS7_26linear_congruential_engineIjLj40014ELj0ELj2147483563EEENS9_IjLj40692ELj0ELj2147483399EEEEEEE"
 "_ZTSN4stan5model10model_baseE"
 "_ZTSN4stan5model15model_base_crtpIN25model_RP_expert_namespace15model_RP_expertEEE"
 "_ZTSN4stan5model9prob_gradE"
 "_ZTSN4stan9callbacks13stream_loggerE"
 "_ZTSN4stan9callbacks13stream_writerE"
 "_ZTSN4stan9callbacks27stream_logger_with_chain_idE"
 "_ZTSN4stan9callbacks6loggerE"
 "_ZTSN4stan9callbacks6writerE"
 "_ZTSN4stan9callbacks9interruptE"
 "_ZTSN5boost10error_infoINS_27tag_original_exception_typeEPKSt9type_infoEE"
 "_ZTSN5boost10wrapexceptINS_16bad_lexical_castEEE"
 "_ZTSN5boost10wrapexceptINS_4math14rounding_errorEEE"
 "_ZTSN5boost10wrapexceptINS_4math16evaluation_errorEEE"
 "_ZTSN5boost10wrapexceptISt11logic_errorEE"
 "_ZTSN5boost10wrapexceptISt12domain_errorEE"
 "_ZTSN5boost10wrapexceptISt12length_errorEE"
 "_ZTSN5boost10wrapexceptISt14overflow_errorEE"
 "_ZTSN5boost10wrapexceptISt16invalid_argumentEE"
 "_ZTSN5boost16bad_lexical_castE"
 "_ZTSN5boost16exception_detail10bad_alloc_E"
 "_ZTSN5boost16exception_detail10clone_baseE"
 "_ZTSN5boost16exception_detail10clone_implINS0_10bad_alloc_EEE"
 "_ZTSN5boost16exception_detail10clone_implINS0_14bad_exception_EEE"
 "_ZTSN5boost16exception_detail14bad_exception_E"
 "_ZTSN5boost16exception_detail15error_info_baseE"
 "_ZTSN5boost16exception_detail20error_info_containerE"
 "_ZTSN5boost16exception_detail25error_info_container_implE"
 "_ZTSN5boost4math14rounding_errorE"
 "_ZTSN5boost4math16evaluation_errorE"
 "_ZTSN5boost6detail15sp_counted_baseE"
 "_ZTSN5boost6detail16basic_pointerbufIcSt15basic_streambufIcSt11char_traitsIcEEEE"
 "_ZTSN5boost6detail17basic_unlockedbufISt15basic_streambufIcSt11char_traitsIcEEcEE"
 "_ZTSN5boost6detail17sp_counted_impl_pINS_16exception_detail10clone_implINS2_10bad_alloc_EEEEE"
 "_ZTSN5boost6detail17sp_counted_impl_pINS_16exception_detail10clone_implINS2_14bad_exception_EEEEE"
 "_ZTSN5boost6detail17sp_counted_impl_pINS_16exception_detail15error_info_baseEEE"
 "_ZTSN5boost9exceptionE"
 "_ZTSN5rstan10sum_valuesE"
 "_ZTSN5rstan14comment_writerE"
 "_ZTSN5rstan15filtered_valuesIN4Rcpp6VectorILi14ENS1_15PreserveStorageEEEEE"
 "_ZTSN5rstan19rstan_sample_writerE"
 "_ZTSN5rstan2io16r_cerr_streambufE"
 "_ZTSN5rstan2io16r_cout_streambufE"
 "_ZTSN5rstan2io21rlist_ref_var_contextE"
 "_ZTSN5rstan2io9r_ostreamINS0_16r_cerr_streambufEEE"
 "_ZTSN5rstan2io9r_ostreamINS0_16r_cout_streambufEEE"
 "_ZTSN5rstan5valueE"
 "_ZTSN5rstan6valuesIN4Rcpp6VectorILi14ENS1_15PreserveStorageEEEEE"
 "_ZTSN5rstan8stan_fitIN25model_RP_expert_namespace15model_RP_expertEN5boost6random23additive_combine_engineINS4_26linear_congruential_engineIjLj40014ELj0ELj2147483563EEENS6_IjLj40692ELj0ELj2147483399EEEEEEE"
 "_ZTSNSt7__cxx1112basic_stringIcSt11char_traitsIcESaIcEEE"
 "_ZTSNSt8ios_base7failureB5cxx11E"
 "_ZTSSt10bad_typeid"
 "_ZTSSt11logic_error"
 "_ZTSSt11range_error"
 "_ZTSSt12domain_error"
 "_ZTSSt12length_error"
 "_ZTSSt12out_of_range"
 "_ZTSSt12system_error"
 "_ZTSSt13bad_exception"
 "_ZTSSt13runtime_error"
 "_ZTSSt14overflow_error"
 "_ZTSSt15underflow_error"
 "_ZTSSt16invalid_argument"
 "_ZTSSt8bad_cast"
 "_ZTSSt9bad_alloc"
 "_ZTSSt9exception"
 "_ZTTN4Rcpp8RostreamILb0EEE"
 "_ZTTN4Rcpp8RostreamILb1EEE"
 "_ZTTN5boost16exception_detail10clone_implINS0_10bad_alloc_EEE"
 "_ZTTN5boost16exception_detail10clone_implINS0_14bad_exception_EEE"
 "_ZTTN5rstan2io9r_ostreamINS0_16r_cerr_streambufEEE"
 "_ZTTN5rstan2io9r_ostreamINS0_16r_cout_streambufEEE"
 "_ZTVN25model_RP_expert_namespace15model_RP_expertE"
 "_ZTVN3tbb10interface623task_scheduler_observerE"
 "_ZTVN3tbb8internal26task_scheduler_observer_v3E"
 "_ZTVN4Rcpp10CppMethod0IN5rstan8stan_fitIN25model_RP_expert_namespace15model_RP_expertEN5boost6random23additive_combine_engineINS6_26linear_congruential_engineIjLj40014ELj0ELj2147483563EEENS8_IjLj40692ELj0ELj2147483399EEEEEEEP7SEXPRECEE"
 "_ZTVN4Rcpp10CppMethod1IN5rstan8stan_fitIN25model_RP_expert_namespace15model_RP_expertEN5boost6random23additive_combine_engineINS6_26linear_congruential_engineIjLj40014ELj0ELj2147483563EEENS8_IjLj40692ELj0ELj2147483399EEEEEEEP7SEXPRECSE_EE"
 "_ZTVN4Rcpp10CppMethod2IN5rstan8stan_fitIN25model_RP_expert_namespace15model_RP_expertEN5boost6random23additive_combine_engineINS6_26linear_congruential_engineIjLj40014ELj0ELj2147483563EEENS8_IjLj40692ELj0ELj2147483399EEEEEEEP7SEXPRECSE_SE_EE"
 "_ZTVN4Rcpp10CppMethod3IN5rstan8stan_fitIN25model_RP_expert_namespace15model_RP_expertEN5boost6random23additive_combine_engineINS6_26linear_congruential_engineIjLj40014ELj0ELj2147483563EEENS8_IjLj40692ELj0ELj2147483399EEEEEEEP7SEXPRECSE_SE_SE_EE"
 "_ZTVN4Rcpp10RstreambufILb0EEE"
 "_ZTVN4Rcpp10RstreambufILb1EEE"
 "_ZTVN4Rcpp10class_BaseE"
 "_ZTVN4Rcpp10eval_errorE"
 "_ZTVN4Rcpp11CppPropertyIN5rstan8stan_fitIN25model_RP_expert_namespace15model_RP_expertEN5boost6random23additive_combine_engineINS6_26linear_congruential_engineIjLj40014ELj0ELj2147483563EEENS8_IjLj40692ELj0ELj2147483399EEEEEEEEE"
 "_ZTVN4Rcpp12CppFinalizerIN5rstan8stan_fitIN25model_RP_expert_namespace15model_RP_expertEN5boost6random23additive_combine_engineINS6_26linear_congruential_engineIjLj40014ELj0ELj2147483563EEENS8_IjLj40692ELj0ELj2147483399EEEEEEEEE"
 "_ZTVN4Rcpp13Constructor_3IN5rstan8stan_fitIN25model_RP_expert_namespace15model_RP_expertEN5boost6random23additive_combine_engineINS6_26linear_congruential_engineIjLj40014ELj0ELj2147483563EEENS8_IjLj40692ELj0ELj2147483399EEEEEEEP7SEXPRECSE_SE_EE"
 "_ZTVN4Rcpp13not_referenceE"
 "_ZTVN4Rcpp14not_compatibleE"
 "_ZTVN4Rcpp16const_CppMethod0IN5rstan8stan_fitIN25model_RP_expert_namespace15model_RP_expertEN5boost6random23additive_combine_engineINS6_26linear_congruential_engineIjLj40014ELj0ELj2147483563EEENS8_IjLj40692ELj0ELj2147483399EEEEEEEP7SEXPRECEE"
 "_ZTVN4Rcpp19index_out_of_boundsE"
 "_ZTVN4Rcpp6class_IN5rstan8stan_fitIN25model_RP_expert_namespace15model_RP_expertEN5boost6random23additive_combine_engineINS6_26linear_congruential_engineIjLj40014ELj0ELj2147483563EEENS8_IjLj40692ELj0ELj2147483399EEEEEEEEE"
 "_ZTVN4Rcpp8RostreamILb0EEE"
 "_ZTVN4Rcpp8RostreamILb1EEE"
 "_ZTVN4Rcpp9exceptionE"
 "_ZTVN4stan11variational15normal_fullrankE"
 "_ZTVN4stan11variational16normal_meanfieldE"
 "_ZTVN4stan2io17array_var_contextE"
 "_ZTVN4stan2io17empty_var_contextE"
 "_ZTVN4stan2io18random_var_contextE"
 "_ZTVN4stan2io19chained_var_contextE"
 "_ZTVN4stan2io4dumpE"
 "_ZTVN4stan4lang17located_exceptionISt10bad_typeidEE"
 "_ZTVN4stan4lang17located_exceptionISt13bad_exceptionEE"
 "_ZTVN4stan4lang17located_exceptionISt8bad_castEE"
 "_ZTVN4stan4lang17located_exceptionISt9bad_allocEE"
 "_ZTVN4stan4lang17located_exceptionISt9exceptionEE"
 "_ZTVN4stan4math10sum_v_variE"
 "_ZTVN4stan4math16ad_tape_observerE"
 "_ZTVN4stan4math17multiply_mat_variIdLi1ELin1ENS0_3varELi1EEE"
 "_ZTVN4stan4math17multiply_mat_variIdLin1ELin1ENS0_3varELi1EEE"
 "_ZTVN4stan4math26precomputed_gradients_variE"
 "_ZTVN4stan4math4variE"
 "_ZTVN4stan4math8internal11add_vd_variE"
 "_ZTVN4stan4math8internal11add_vv_variE"
 "_ZTVN4stan4math8internal11pow_vd_variE"
 "_ZTVN4stan4math8internal11square_variE"
 "_ZTVN4stan4math8internal13inv_sqrt_variE"
 "_ZTVN4stan4math8internal15inv_square_variE"
 "_ZTVN4stan4math8internal16dot_product_variINS0_3varEdEE"
 "_ZTVN4stan4math8internal16multiply_vd_variE"
 "_ZTVN4stan4math8internal16multiply_vv_variE"
 "_ZTVN4stan4math8internal16subtract_vv_variE"
 "_ZTVN4stan4math8internal8exp_variE"
 "_ZTVN4stan4math8internal8inv_variE"
 "_ZTVN4stan4math8internal8log_variE"
 "_ZTVN4stan4math8internal8neg_variE"
 "_ZTVN4stan4math8internal9sqrt_variE"
 "_ZTVN4stan4mcmc11diag_e_nutsIN25model_RP_expert_namespace15model_RP_expertEN5boost6random23additive_combine_engineINS5_26linear_congruential_engineIjLj40014ELj0ELj2147483563EEENS7_IjLj40692ELj0ELj2147483399EEEEEEE"
 "_ZTVN4stan4mcmc11unit_e_nutsIN25model_RP_expert_namespace15model_RP_expertEN5boost6random23additive_combine_engineINS5_26linear_congruential_engineIjLj40014ELj0ELj2147483563EEENS7_IjLj40692ELj0ELj2147483399EEEEEEE"
 "_ZTVN4stan4mcmc12dense_e_nutsIN25model_RP_expert_namespace15model_RP_expertEN5boost6random23additive_combine_engineINS5_26linear_congruential_engineIjLj40014ELj0ELj2147483563EEENS7_IjLj40692ELj0ELj2147483399EEEEEEE"
 "_ZTVN4stan4mcmc12diag_e_pointE"
 "_ZTVN4stan4mcmc12unit_e_pointE"
 "_ZTVN4stan4mcmc13dense_e_pointE"
 "_ZTVN4stan4mcmc13diag_e_metricIN25model_RP_expert_namespace15model_RP_expertEN5boost6random23additive_combine_engineINS5_26linear_congruential_engineIjLj40014ELj0ELj2147483563EEENS7_IjLj40692ELj0ELj2147483399EEEEEEE"
 "_ZTVN4stan4mcmc13expl_leapfrogINS0_13diag_e_metricIN25model_RP_expert_namespace15model_RP_expertEN5boost6random23additive_combine_engineINS6_26linear_congruential_engineIjLj40014ELj0ELj2147483563EEENS8_IjLj40692ELj0ELj2147483399EEEEEEEEE"
 "_ZTVN4stan4mcmc13expl_leapfrogINS0_13unit_e_metricIN25model_RP_expert_namespace15model_RP_expertEN5boost6random23additive_combine_engineINS6_26linear_congruential_engineIjLj40014ELj0ELj2147483563EEENS8_IjLj40692ELj0ELj2147483399EEEEEEEEE"
 "_ZTVN4stan4mcmc13expl_leapfrogINS0_14dense_e_metricIN25model_RP_expert_namespace15model_RP_expertEN5boost6random23additive_combine_engineINS6_26linear_congruential_engineIjLj40014ELj0ELj2147483563EEENS8_IjLj40692ELj0ELj2147483399EEEEEEEEE"
 "_ZTVN4stan4mcmc13unit_e_metricIN25model_RP_expert_namespace15model_RP_expertEN5boost6random23additive_combine_engineINS5_26linear_congruential_engineIjLj40014ELj0ELj2147483563EEENS7_IjLj40692ELj0ELj2147483399EEEEEEE"
 "_ZTVN4stan4mcmc14dense_e_metricIN25model_RP_expert_namespace15model_RP_expertEN5boost6random23additive_combine_engineINS5_26linear_congruential_engineIjLj40014ELj0ELj2147483563EEENS7_IjLj40692ELj0ELj2147483399EEEEEEE"
 "_ZTVN4stan4mcmc14var_adaptationE"
 "_ZTVN4stan4mcmc16covar_adaptationE"
 "_ZTVN4stan4mcmc17adapt_diag_e_nutsIN25model_RP_expert_namespace15model_RP_expertEN5boost6random23additive_combine_engineINS5_26linear_congruential_engineIjLj40014ELj0ELj2147483563EEENS7_IjLj40692ELj0ELj2147483399EEEEEEE"
 "_ZTVN4stan4mcmc17adapt_unit_e_nutsIN25model_RP_expert_namespace15model_RP_expertEN5boost6random23additive_combine_engineINS5_26linear_congruential_engineIjLj40014ELj0ELj2147483563EEENS7_IjLj40692ELj0ELj2147483399EEEEEEE"
 "_ZTVN4stan4mcmc17diag_e_static_hmcIN25model_RP_expert_namespace15model_RP_expertEN5boost6random23additive_combine_engineINS5_26linear_congruential_engineIjLj40014ELj0ELj2147483563EEENS7_IjLj40692ELj0ELj2147483399EEEEEEE"
 "_ZTVN4stan4mcmc17unit_e_static_hmcIN25model_RP_expert_namespace15model_RP_expertEN5boost6random23additive_combine_engineINS5_26linear_congruential_engineIjLj40014ELj0ELj2147483563EEENS7_IjLj40692ELj0ELj2147483399EEEEEEE"
 "_ZTVN4stan4mcmc18adapt_dense_e_nutsIN25model_RP_expert_namespace15model_RP_expertEN5boost6random23additive_combine_engineINS5_26linear_congruential_engineIjLj40014ELj0ELj2147483563EEENS7_IjLj40692ELj0ELj2147483399EEEEEEE"
 "_ZTVN4stan4mcmc18dense_e_static_hmcIN25model_RP_expert_namespace15model_RP_expertEN5boost6random23additive_combine_engineINS5_26linear_congruential_engineIjLj40014ELj0ELj2147483563EEENS7_IjLj40692ELj0ELj2147483399EEEEEEE"
 "_ZTVN4stan4mcmc19fixed_param_samplerE"
 "_ZTVN4stan4mcmc19stepsize_adaptationE"
 "_ZTVN4stan4mcmc19windowed_adaptationE"
 "_ZTVN4stan4mcmc20stepsize_var_adapterE"
 "_ZTVN4stan4mcmc22stepsize_covar_adapterE"
 "_ZTVN4stan4mcmc23adapt_diag_e_static_hmcIN25model_RP_expert_namespace15model_RP_expertEN5boost6random23additive_combine_engineINS5_26linear_congruential_engineIjLj40014ELj0ELj2147483563EEENS7_IjLj40692ELj0ELj2147483399EEEEEEE"
 "_ZTVN4stan4mcmc23adapt_unit_e_static_hmcIN25model_RP_expert_namespace15model_RP_expertEN5boost6random23additive_combine_engineINS5_26linear_congruential_engineIjLj40014ELj0ELj2147483563EEENS7_IjLj40692ELj0ELj2147483399EEEEEEE"
 "_ZTVN4stan4mcmc24adapt_dense_e_static_hmcIN25model_RP_expert_namespace15model_RP_expertEN5boost6random23additive_combine_engineINS5_26linear_congruential_engineIjLj40014ELj0ELj2147483563EEENS7_IjLj40692ELj0ELj2147483399EEEEEEE"
 "_ZTVN4stan4mcmc6sampleE"
 "_ZTVN4stan4mcmc8base_hmcIN25model_RP_expert_namespace15model_RP_expertENS0_13diag_e_metricENS0_13expl_leapfrogEN5boost6random23additive_combine_engineINS7_26linear_congruential_engineIjLj40014ELj0ELj2147483563EEENS9_IjLj40692ELj0ELj2147483399EEEEEEE"
 "_ZTVN4stan4mcmc8base_hmcIN25model_RP_expert_namespace15model_RP_expertENS0_13unit_e_metricENS0_13expl_leapfrogEN5boost6random23additive_combine_engineINS7_26linear_congruential_engineIjLj40014ELj0ELj2147483563EEENS9_IjLj40692ELj0ELj2147483399EEEEEEE"
 "_ZTVN4stan4mcmc8base_hmcIN25model_RP_expert_namespace15model_RP_expertENS0_14dense_e_metricENS0_13expl_leapfrogEN5boost6random23additive_combine_engineINS7_26linear_congruential_engineIjLj40014ELj0ELj2147483563EEENS9_IjLj40692ELj0ELj2147483399EEEEEEE"
 "_ZTVN4stan4mcmc8ps_pointE"
 "_ZTVN4stan5model9prob_gradE"
 "_ZTVN4stan9callbacks13stream_loggerE"
 "_ZTVN4stan9callbacks13stream_writerE"
 "_ZTVN4stan9callbacks27stream_logger_with_chain_idE"
 "_ZTVN4stan9callbacks6writerE"
 "_ZTVN5boost10error_infoINS_27tag_original_exception_typeEPKSt9type_infoEE"
 "_ZTVN5boost10wrapexceptINS_16bad_lexical_castEEE"
 "_ZTVN5boost10wrapexceptINS_4math14rounding_errorEEE"
 "_ZTVN5boost10wrapexceptINS_4math16evaluation_errorEEE"
 "_ZTVN5boost10wrapexceptISt11logic_errorEE"
 "_ZTVN5boost10wrapexceptISt12domain_errorEE"
 "_ZTVN5boost10wrapexceptISt12length_errorEE"
 "_ZTVN5boost10wrapexceptISt14overflow_errorEE"
 "_ZTVN5boost10wrapexceptISt16invalid_argumentEE"
 "_ZTVN5boost16bad_lexical_castE"
 "_ZTVN5boost16exception_detail10bad_alloc_E"
 "_ZTVN5boost16exception_detail10clone_baseE"
 "_ZTVN5boost16exception_detail10clone_implINS0_10bad_alloc_EEE"
 "_ZTVN5boost16exception_detail10clone_implINS0_14bad_exception_EEE"
 "_ZTVN5boost16exception_detail14bad_exception_E"
 "_ZTVN5boost16exception_detail25error_info_container_implE"
 "_ZTVN5boost4math14rounding_errorE"
 "_ZTVN5boost4math16evaluation_errorE"
 "_ZTVN5boost6detail17basic_unlockedbufISt15basic_streambufIcSt11char_traitsIcEEcEE"
 "_ZTVN5boost6detail17sp_counted_impl_pINS_16exception_detail10clone_implINS2_10bad_alloc_EEEEE"
 "_ZTVN5boost6detail17sp_counted_impl_pINS_16exception_detail10clone_implINS2_14bad_exception_EEEEE"
 "_ZTVN5boost6detail17sp_counted_impl_pINS_16exception_detail15error_info_baseEEE"
 "_ZTVN5boost9exceptionE"
 "_ZTVN5rstan10sum_valuesE"
 "_ZTVN5rstan14comment_writerE"
 "_ZTVN5rstan15filtered_valuesIN4Rcpp6VectorILi14ENS1_15PreserveStorageEEEEE"
 "_ZTVN5rstan19rstan_sample_writerE"
 "_ZTVN5rstan2io16r_cerr_streambufE"
 "_ZTVN5rstan2io16r_cout_streambufE"
 "_ZTVN5rstan2io21rlist_ref_var_contextE"
 "_ZTVN5rstan2io9r_ostreamINS0_16r_cerr_streambufEEE"
 "_ZTVN5rstan2io9r_ostreamINS0_16r_cout_streambufEEE"
 "_ZTVN5rstan5valueE"
 "_ZTVN5rstan6valuesIN4Rcpp6VectorILi14ENS1_15PreserveStorageEEEEE"
 "_ZThn168_N4stan4mcmc23adapt_unit_e_static_hmcIN25model_RP_expert_namespace15model_RP_expertEN5boost6random23additive_combine_engineINS5_26linear_congruential_engineIjLj40014ELj0ELj2147483563EEENS7_IjLj40692ELj0ELj2147483399EEEEEE20disengage_adaptationEv"
 "_ZThn176_N4stan4mcmc17adapt_unit_e_nutsIN25model_RP_expert_namespace15model_RP_expertEN5boost6random23additive_combine_engineINS5_26linear_congruential_engineIjLj40014ELj0ELj2147483563EEENS7_IjLj40692ELj0ELj2147483399EEEEEE20disengage_adaptationEv"
 "_ZThn184_N4stan4mcmc23adapt_diag_e_static_hmcIN25model_RP_expert_namespace15model_RP_expertEN5boost6random23additive_combine_engineINS5_26linear_congruential_engineIjLj40014ELj0ELj2147483563EEENS7_IjLj40692ELj0ELj2147483399EEEEEE20disengage_adaptationEv"
 "_ZThn192_N4stan4mcmc17adapt_diag_e_nutsIN25model_RP_expert_namespace15model_RP_expertEN5boost6random23additive_combine_engineINS5_26linear_congruential_engineIjLj40014ELj0ELj2147483563EEENS7_IjLj40692ELj0ELj2147483399EEEEEE20disengage_adaptationEv"
 "_ZThn192_N4stan4mcmc24adapt_dense_e_static_hmcIN25model_RP_expert_namespace15model_RP_expertEN5boost6random23additive_combine_engineINS5_26linear_congruential_engineIjLj40014ELj0ELj2147483563EEENS7_IjLj40692ELj0ELj2147483399EEEEEE20disengage_adaptationEv"
 "_ZThn200_N4stan4mcmc18adapt_dense_e_nutsIN25model_RP_expert_namespace15model_RP_expertEN5boost6random23additive_combine_engineINS5_26linear_congruential_engineIjLj40014ELj0ELj2147483563EEENS7_IjLj40692ELj0ELj2147483399EEEEEE20disengage_adaptationEv"
 "_ZThn24_N5boost10wrapexceptINS_4math14rounding_errorEED0Ev"
 "_ZThn24_N5boost10wrapexceptINS_4math14rounding_errorEED1Ev"
 "_ZThn24_N5boost10wrapexceptINS_4math16evaluation_errorEED0Ev"
 "_ZThn24_N5boost10wrapexceptINS_4math16evaluation_errorEED1Ev"
 "_ZThn24_N5boost10wrapexceptISt11logic_errorED0Ev"
 "_ZThn24_N5boost10wrapexceptISt11logic_errorED1Ev"
 "_ZThn24_N5boost10wrapexceptISt12domain_errorED0Ev"
 "_ZThn24_N5boost10wrapexceptISt12domain_errorED1Ev"
 "_ZThn24_N5boost10wrapexceptISt12length_errorED0Ev"
 "_ZThn24_N5boost10wrapexceptISt12length_errorED1Ev"
 "_ZThn24_N5boost10wrapexceptISt14overflow_errorED0Ev"
 "_ZThn24_N5boost10wrapexceptISt14overflow_errorED1Ev"
 "_ZThn24_N5boost10wrapexceptISt16invalid_argumentED0Ev"
 "_ZThn24_N5boost10wrapexceptISt16invalid_argumentED1Ev"
 "_ZThn32_N5boost10wrapexceptINS_16bad_lexical_castEED0Ev"
 "_ZThn32_N5boost10wrapexceptINS_16bad_lexical_castEED1Ev"
 "_ZThn40_N5boost16exception_detail10bad_alloc_D0Ev"
 "_ZThn40_N5boost16exception_detail10bad_alloc_D1Ev"
 "_ZThn40_N5boost16exception_detail10clone_implINS0_10bad_alloc_EED0Ev"
 "_ZThn40_N5boost16exception_detail10clone_implINS0_10bad_alloc_EED1Ev"
 "_ZThn40_N5boost16exception_detail10clone_implINS0_14bad_exception_EED0Ev"
 "_ZThn40_N5boost16exception_detail10clone_implINS0_14bad_exception_EED1Ev"
 "_ZThn40_N5boost16exception_detail14bad_exception_D0Ev"
 "_ZThn40_N5boost16exception_detail14bad_exception_D1Ev"
 "_ZThn8_N5boost10wrapexceptINS_16bad_lexical_castEED0Ev"
 "_ZThn8_N5boost10wrapexceptINS_16bad_lexical_castEED1Ev"
 "_ZThn8_N5boost10wrapexceptINS_4math14rounding_errorEED0Ev"
 "_ZThn8_N5boost10wrapexceptINS_4math14rounding_errorEED1Ev"
 "_ZThn8_N5boost10wrapexceptINS_4math16evaluation_errorEED0Ev"
 "_ZThn8_N5boost10wrapexceptINS_4math16evaluation_errorEED1Ev"
 "_ZThn8_N5boost10wrapexceptISt11logic_errorED0Ev"
 "_ZThn8_N5boost10wrapexceptISt11logic_errorED1Ev"
 "_ZThn8_N5boost10wrapexceptISt12domain_errorED0Ev"
 "_ZThn8_N5boost10wrapexceptISt12domain_errorED1Ev"
 "_ZThn8_N5boost10wrapexceptISt12length_errorED0Ev"
 "_ZThn8_N5boost10wrapexceptISt12length_errorED1Ev"
 "_ZThn8_N5boost10wrapexceptISt14overflow_errorED0Ev"
 "_ZThn8_N5boost10wrapexceptISt14overflow_errorED1Ev"
 "_ZThn8_N5boost10wrapexceptISt16invalid_argumentED0Ev"
 "_ZThn8_N5boost10wrapexceptISt16invalid_argumentED1Ev"
 "_ZTv0_n24_N4Rcpp8RostreamILb0EED0Ev"
 "_ZTv0_n24_N4Rcpp8RostreamILb0EED1Ev"
 "_ZTv0_n24_N4Rcpp8RostreamILb1EED0Ev"
 "_ZTv0_n24_N4Rcpp8RostreamILb1EED1Ev"
 "_ZTv0_n24_N5rstan2io9r_ostreamINS0_16r_cerr_streambufEED0Ev"
 "_ZTv0_n24_N5rstan2io9r_ostreamINS0_16r_cerr_streambufEED1Ev"
 "_ZTv0_n24_N5rstan2io9r_ostreamINS0_16r_cout_streambufEED0Ev"
 "_ZTv0_n24_N5rstan2io9r_ostreamINS0_16r_cout_streambufEED1Ev"
 "_ZTv0_n24_NK5boost16exception_detail10clone_implINS0_10bad_alloc_EE5cloneEv"
 "_ZTv0_n24_NK5boost16exception_detail10clone_implINS0_14bad_exception_EE5cloneEv"
 "_ZTv0_n32_NK5boost16exception_detail10clone_implINS0_10bad_alloc_EE7rethrowEv"
 "_ZTv0_n32_NK5boost16exception_detail10clone_implINS0_14bad_exception_EE7rethrowEv"
 "_ZTv0_n40_N5boost16exception_detail10clone_implINS0_10bad_alloc_EED0Ev"
 "_ZTv0_n40_N5boost16exception_detail10clone_implINS0_10bad_alloc_EED1Ev"
 "_ZTv0_n40_N5boost16exception_detail10clone_implINS0_14bad_exception_EED0Ev"
 "_ZTv0_n40_N5boost16exception_detail10clone_implINS0_14bad_exception_EED1Ev"
 "_ZZ15getCurrentScopevE3fun"
 "_ZZ15setCurrentScopePN4Rcpp6ModuleEE3fun"
 "_ZZ19char_get_string_eltP7SEXPRECxE3fun"
 "_ZZ20rcpp_get_stack_tracevE3fun"
 "_ZZ20rcpp_set_stack_traceP7SEXPRECE3fun"
 "_ZZ7dataptrP7SEXPRECE3fun"
 "_ZZ8demangleRKNSt7__cxx1112basic_stringIcSt11char_traitsIcESaIcEEEE3funB5cxx11"
 "_ZZN25model_RP_expert_namespace15model_RP_expert9ctor_bodyERN4stan2io11var_contextEjPSoE10function__"
 "_ZZN4Rcpp20Rcpp_precious_removeEP7SEXPRECE3fun"
 "_ZZN4Rcpp22Rcpp_precious_preserveEP7SEXPRECE3fun"
 "_ZZN4Rcpp6class_IN5rstan8stan_fitIN25model_RP_expert_namespace15model_RP_expertEN5boost6random23additive_combine_engineINS6_26linear_congruential_engineIjLj40014ELj0ELj2147483563EEENS8_IjLj40692ELj0ELj2147483399EEEEEEEE11getPropertyEP7SEXPRECSF_E8stop_sym"
 "_ZZN4Rcpp6class_IN5rstan8stan_fitIN25model_RP_expert_namespace15model_RP_expertEN5boost6random23additive_combine_engineINS6_26linear_congruential_engineIjLj40014ELj0ELj2147483563EEENS8_IjLj40692ELj0ELj2147483399EEEEEEEE11invoke_voidEP7SEXPRECSF_PSF_iE8stop_sym"
 "_ZZN4Rcpp6class_IN5rstan8stan_fitIN25model_RP_expert_namespace15model_RP_expertEN5boost6random23additive_combine_engineINS6_26linear_congruential_engineIjLj40014ELj0ELj2147483563EEENS8_IjLj40692ELj0ELj2147483399EEEEEEEE11newInstanceEPP7SEXPRECiE8stop_sym"
 "_ZZN4Rcpp6class_IN5rstan8stan_fitIN25model_RP_expert_namespace15model_RP_expertEN5boost6random23additive_combine_engineINS6_26linear_congruential_engineIjLj40014ELj0ELj2147483563EEENS8_IjLj40692ELj0ELj2147483399EEEEEEEE11setPropertyEP7SEXPRECSF_SF_E8stop_sym"
 "_ZZN4Rcpp6class_IN5rstan8stan_fitIN25model_RP_expert_namespace15model_RP_expertEN5boost6random23additive_combine_engineINS6_26linear_congruential_engineIjLj40014ELj0ELj2147483563EEENS8_IjLj40692ELj0ELj2147483399EEEEEEEE14invoke_notvoidEP7SEXPRECSF_PSF_iE8stop_sym"
 "_ZZN4Rcpp6class_IN5rstan8stan_fitIN25model_RP_expert_namespace15model_RP_expertEN5boost6random23additive_combine_engineINS6_26linear_congruential_engineIjLj40014ELj0ELj2147483563EEENS8_IjLj40692ELj0ELj2147483399EEEEEEEE6invokeEP7SEXPRECSF_PSF_iE8stop_sym"
 "_ZZN4Rcpp8internal18get_Rcpp_namespaceEvE3fun"
 "_ZZN4stan11variational14print_progressEiiiibRKNSt7__cxx1112basic_stringIcSt11char_traitsIcESaIcEEES8_RNS_9callbacks6loggerEE8function"
 "_ZZN4stan11variational15normal_fullrank10set_L_cholERKN5Eigen6MatrixIdLin1ELin1ELi0ELin1ELin1EEEE8function"
 "_ZZN4stan11variational15normal_fullrank6set_muERKN5Eigen6MatrixIdLin1ELi1ELi0ELin1ELi1EEEE8function"
 "_ZZN4stan11variational15normal_fullrankC4ERKN5Eigen6MatrixIdLin1ELi1ELi0ELin1ELi1EEERKNS3_IdLin1ELin1ELi0ELin1ELin1EEEE8function"
 "_ZZN4stan11variational15normal_fullrankaSERKS1_E8function"
 "_ZZN4stan11variational15normal_fullrankdVERKS1_E8function"
 "_ZZN4stan11variational15normal_fullrankpLERKS1_E8function"
 "_ZZN4stan11variational16normal_meanfield6set_muERKN5Eigen6MatrixIdLin1ELi1ELi0ELin1ELi1EEEE8function"
 "_ZZN4stan11variational16normal_meanfield9set_omegaERKN5Eigen6MatrixIdLin1ELi1ELi0ELin1ELi1EEEE8function"
 "_ZZN4stan11variational16normal_meanfieldC4ERKN5Eigen6MatrixIdLin1ELi1ELi0ELin1ELi1EEES6_E8function"
 "_ZZN4stan11variational16normal_meanfieldaSERKS1_E8function"
 "_ZZN4stan11variational16normal_meanfielddVERKS1_E8function"
 "_ZZN4stan11variational16normal_meanfieldpLERKS1_E8function"
 "_ZZN4stan11variational4adviIN25model_RP_expert_namespace15model_RP_expertENS0_15normal_fullrankEN5boost6random23additive_combine_engineINS6_26linear_congruential_engineIjLj40014ELj0ELj2147483563EEENS8_IjLj40692ELj0ELj2147483399EEEEEEC4ERS3_RN5Eigen6MatrixIdLin1ELi1ELi0ELin1ELi1EEERSB_iiiiE8function"
 "_ZZN4stan11variational4adviIN25model_RP_expert_namespace15model_RP_expertENS0_16normal_meanfieldEN5boost6random23additive_combine_engineINS6_26linear_congruential_engineIjLj40014ELj0ELj2147483563EEENS8_IjLj40692ELj0ELj2147483399EEEEEEC4ERS3_RN5Eigen6MatrixIdLin1ELi1ELi0ELin1ELi1EEERSB_iiiiE8function"
 "_ZZN4stan4math10gamma_lpdfILb0ENS0_3varEddEENS_11return_typeIT0_JT1_T2_EE4typeERKS4_RKS5_RKS6_E8function"
 "_ZZN4stan4math10gamma_lpdfILb0EdddEENS_11return_typeIT0_JT1_T2_EE4typeERKS3_RKS4_RKS5_E8function"
 "_ZZN4stan4math11normal_lpdfILb0EN5Eigen6MatrixINS0_3varELin1ELi1ELi0ELin1ELi1EEENS3_IdLin1ELi1ELi0ELin1ELi1EEES6_EENS_11return_typeIT0_JT1_T2_EE4typeERKS8_RKS9_RKSA_E13NEGATIVE_HALF"
 "_ZZN4stan4math11normal_lpdfILb0EN5Eigen6MatrixINS0_3varELin1ELi1ELi0ELin1ELi1EEENS3_IdLin1ELi1ELi0ELin1ELi1EEES6_EENS_11return_typeIT0_JT1_T2_EE4typeERKS8_RKS9_RKSA_E8function"
 "_ZZN4stan4math11normal_lpdfILb0EN5Eigen6MatrixIdLin1ELi1ELi0ELin1ELi1EEES4_S4_EENS_11return_typeIT0_JT1_T2_EE4typeERKS6_RKS7_RKS8_E13NEGATIVE_HALF"
 "_ZZN4stan4math11normal_lpdfILb0EN5Eigen6MatrixIdLin1ELi1ELi0ELin1ELi1EEES4_S4_EENS_11return_typeIT0_JT1_T2_EE4typeERKS6_RKS7_RKS8_E8function"
 "_ZZN4stan4math11normal_lpdfILb0ENS0_3varEddEENS_11return_typeIT0_JT1_T2_EE4typeERKS4_RKS5_RKS6_E13NEGATIVE_HALF"
 "_ZZN4stan4math11normal_lpdfILb0ENS0_3varEddEENS_11return_typeIT0_JT1_T2_EE4typeERKS4_RKS5_RKS6_E8function"
 "_ZZN4stan4math11normal_lpdfILb0EdddEENS_11return_typeIT0_JT1_T2_EE4typeERKS3_RKS4_RKS5_E13NEGATIVE_HALF"
 "_ZZN4stan4math11normal_lpdfILb0EdddEENS_11return_typeIT0_JT1_T2_EE4typeERKS3_RKS4_RKS5_E8function"
 "_ZZN4stan4math11normal_lpdfILb1EN5Eigen6MatrixINS0_3varELin1ELi1ELi0ELin1ELi1EEENS3_IdLin1ELi1ELi0ELin1ELi1EEES6_EENS_11return_typeIT0_JT1_T2_EE4typeERKS8_RKS9_RKSA_E13NEGATIVE_HALF"
 "_ZZN4stan4math11normal_lpdfILb1EN5Eigen6MatrixINS0_3varELin1ELi1ELi0ELin1ELi1EEENS3_IdLin1ELi1ELi0ELin1ELi1EEES6_EENS_11return_typeIT0_JT1_T2_EE4typeERKS8_RKS9_RKSA_E8function"
 "_ZZN4stan4math11normal_lpdfILb1EN5Eigen6MatrixIdLin1ELi1ELi0ELin1ELi1EEES4_S4_EENS_11return_typeIT0_JT1_T2_EE4typeERKS6_RKS7_RKS8_E8function"
 "_ZZN4stan4math14lognormal_lpdfILb0ENS0_3varEddEENS_11return_typeIT0_JT1_T2_EE4typeERKS4_RKS5_RKS6_E8function"
 "_ZZN4stan4math14lognormal_lpdfILb0EdddEENS_11return_typeIT0_JT1_T2_EE4typeERKS3_RKS4_RKS5_E8function"
 "_ZZN4stan4math14student_t_lpdfILb0ENS0_3varEdddEENS_11return_typeIT0_JT1_T2_T3_EE4typeERKS4_RKS5_RKS6_RKS7_E8function"
 "_ZZN4stan4math14student_t_lpdfILb0EddddEENS_11return_typeIT0_JT1_T2_T3_EE4typeERKS3_RKS4_RKS5_RKS6_E8function"
 "_ZZN4stan4math9beta_lpdfILb0ENS0_3varEddEENS_11return_typeIT0_JT1_T2_EE4typeERKS4_RKS5_RKS6_E8function"
 "_ZZN4stan4math9beta_lpdfILb0EdddEENS_11return_typeIT0_JT1_T2_EE4typeERKS3_RKS4_RKS5_E8function"
 "_ZZN4stan4math9to_matrixIdEEN5Eigen6MatrixIT_Lin1ELin1ELi0ELin1ELin1EEERKSt6vectorIS4_SaIS4_EEiiE8function"
 "_ZZN4stan5model18grad_hess_log_probILb1ELb0EN25model_RP_expert_namespace15model_RP_expertEEEdRKT1_RSt6vectorIdSaIdEERS7_IiSaIiEESA_SA_PSoE13perturbations"
 "_ZZN4stan5model18grad_hess_log_probILb1ELb0EN25model_RP_expert_namespace15model_RP_expertEEEdRKT1_RSt6vectorIdSaIdEERS7_IiSaIiEESA_SA_PSoE18half_epsilon_coeff"
 "_ZZN4stan8services4util10create_rngEjjE14DISCARD_STRIDE"
 "_ZZN5Eigen8internal20manage_caching_sizesENS_6ActionEPxS2_S2_E12m_cacheSizes"
 "_ZZN5Eigen8internal4pexpIDv2_dEET_RKS3_E10p4i_1023_0"
 "_ZZN5boost16exception_detail27get_static_exception_objectINS0_10bad_alloc_EEENS_13exception_ptrEvE2ep"
 "_ZZN5boost16exception_detail27get_static_exception_objectINS0_14bad_exception_EEENS_13exception_ptrEvE2ep"
 "_ZZN5boost4math6detail10lgamma_impIeNS0_8policies6policyINS3_13promote_floatILb0EEENS3_14promote_doubleILb0EEENS3_14default_policyES9_S9_S9_S9_S9_S9_S9_S9_S9_S9_EENS0_7lanczos12lanczos17m64EEET_SD_RKT0_RKT1_PiE8function"
 "_ZZN5boost4math6detail13bessel_i0_impIeEET_RKS3_RKNS_17integral_constantIiLi64EEEE1P_0"
 "_ZZN5boost4math6detail13bessel_i1_impIeEET_RKS3_RKNS_17integral_constantIiLi64EEEE1P_0"
 "_ZZN5boost4math6detail13bessel_i1_impIeEET_RKS3_RKNS_17integral_constantIiLi64EEEE1P_1"
 "_ZZN5boost4math6detail13bessel_k0_impIeEET_RKS3_RKNS_17integral_constantIiLi64EEEE1P_0"
 "_ZZN5boost4math6detail13bessel_k0_impIeEET_RKS3_RKNS_17integral_constantIiLi64EEEE1Q_0"
 "_ZZN5boost4math6detail13bessel_k0_impIeEET_RKS3_RKNS_17integral_constantIiLi64EEEE2P2"
 "_ZZN5boost4math6detail13bessel_k0_impIeEET_RKS3_RKNS_17integral_constantIiLi64EEEE2Q2"
 "_ZZN5boost4math6detail13bessel_k1_impIeEET_RKS3_RKNS_17integral_constantIiLi64EEEE1P"
 "_ZZN5boost4math6detail13bessel_k1_impIeEET_RKS3_RKNS_17integral_constantIiLi64EEEE1Q"
 "_ZZN5boost4math6detail13bessel_k1_impIeEET_RKS3_RKNS_17integral_constantIiLi64EEEE1Q_0"
 "_ZZN5boost4math6detail13bessel_k1_impIeEET_RKS3_RKNS_17integral_constantIiLi64EEEE2P2"
 "_ZZN5boost4math6detail13bessel_k1_impIeEET_RKS3_RKNS_17integral_constantIiLi64EEEE2Q2"
 "_ZZN5boost4math6detail14owens_t_T3_impIeNS0_8policies6policyINS3_14default_policyES5_S5_S5_S5_S5_S5_S5_S5_S5_S5_S5_S5_EEEET_S7_S7_S7_RKNS_17integral_constantIiLi64EEERKT0_E2c2"
 "_ZZN5boost4math6detail14owens_t_T5_impIeEET_S3_S3_RKNS_17integral_constantIiLi64EEEE3pts"
 "_ZZN5boost4math6detail14owens_t_T5_impIeEET_S3_S3_RKNS_17integral_constantIiLi64EEEE3wts"
 "_ZZN5boost4math6detail16lgamma_small_impIeNS0_8policies6policyINS3_13promote_floatILb0EEENS3_14promote_doubleILb0EEENS3_14default_policyES9_S9_S9_S9_S9_S9_S9_S9_S9_S9_EENS0_7lanczos12lanczos17m64EEET_SD_SD_SD_RKNS_17integral_constantIiLi64EEERKT0_RKT1_E1Q"
 "_ZZN5boost4math6detail16owens_t_dispatchIeNS0_8policies6policyINS3_14default_policyES5_S5_S5_S5_S5_S5_S5_S5_S5_S5_S5_S5_EEEET_S7_S7_S7_RKT0_RKNS_17integral_constantIiLi64EEEE4meth"
 "_ZZN5boost4math6detail17digamma_imp_largeIeEET_S3_PKNS_17integral_constantIiLi64EEEE1P"
 "_ZZN5boost4math6detail18igamma_temme_largeIeNS0_8policies6policyINS3_13promote_floatILb0EEENS3_14promote_doubleILb0EEENS3_14default_policyES9_S9_S9_S9_S9_S9_S9_S9_S9_S9_EEEET_SB_SB_RKT0_PKNS_17integral_constantIiLi64EEEE2C3"
 "_ZZN5boost4math6detail18igamma_temme_largeIeNS0_8policies6policyINS3_13promote_floatILb0EEENS3_14promote_doubleILb0EEENS3_14default_policyES9_S9_S9_S9_S9_S9_S9_S9_S9_S9_EEEET_SB_SB_RKT0_PKNS_17integral_constantIiLi64EEEE2C4"
 "_ZZN5boost4math6detail18igamma_temme_largeIeNS0_8policies6policyINS3_13promote_floatILb0EEENS3_14promote_doubleILb0EEENS3_14default_policyES9_S9_S9_S9_S9_S9_S9_S9_S9_S9_EEEET_SB_SB_RKT0_PKNS_17integral_constantIiLi64EEEE2C6"
 "_ZZN5boost4math6detail20gamma_incomplete_impIeNS0_8policies6policyINS3_13promote_floatILb0EEENS3_14promote_doubleILb0EEENS3_14default_policyES9_S9_S9_S9_S9_S9_S9_S9_S9_S9_EEEET_SB_SB_bbRKT0_PSB_E8function"
 "_ZZN5boost4math6detail20owens_t_compute_codeIeEEtT_S3_E6arange"
 "_ZZN5boost4math6detail20owens_t_compute_codeIeEEtT_S3_E6hrange"
 "_ZZN5boost4math6detail20owens_t_compute_codeIeEEtT_S3_E6select"
 "_ZZN5boost4math6detail21owens_t_get_order_impIeEEttT_RKNS_17integral_constantIiLi64EEEE3ord"
 "_ZZN5boost4math6detail7erf_impIeNS0_8policies6policyINS3_13promote_floatILb0EEENS3_14promote_doubleILb0EEENS3_14default_policyES9_S9_S9_S9_S9_S9_S9_S9_S9_S9_EEEET_SB_bRKT0_RKNS_17integral_constantIiLi64EEEE1P_0"
 "_ZZN5boost4math6detail7erf_impIeNS0_8policies6policyINS3_13promote_floatILb0EEENS3_14promote_doubleILb0EEENS3_14default_policyES9_S9_S9_S9_S9_S9_S9_S9_S9_S9_EEEET_SB_bRKT0_RKNS_17integral_constantIiLi64EEEE1P_3"
 "_ZZN5boost4math6detail7erf_impIeNS0_8policies6policyINS3_13promote_floatILb0EEENS3_14promote_doubleILb0EEENS3_14default_policyES9_S9_S9_S9_S9_S9_S9_S9_S9_S9_EEEET_SB_bRKT0_RKNS_17integral_constantIiLi64EEEE1Q_3"
 "_ZZN5boost4math6detail9bessel_j0IeEET_S3_E2P1"
 "_ZZN5boost4math6detail9bessel_j0IeEET_S3_E2P2"
 "_ZZN5boost4math6detail9bessel_j0IeEET_S3_E2PC"
 "_ZZN5boost4math6detail9bessel_j0IeEET_S3_E2PS"
 "_ZZN5boost4math6detail9bessel_j0IeEET_S3_E2Q1"
 "_ZZN5boost4math6detail9bessel_j0IeEET_S3_E2Q2"
 "_ZZN5boost4math6detail9bessel_j0IeEET_S3_E2QC"
 "_ZZN5boost4math6detail9bessel_j0IeEET_S3_E2QS"
 "_ZZN5boost4math6detail9bessel_j1IeEET_S3_E2P1"
 "_ZZN5boost4math6detail9bessel_j1IeEET_S3_E2P2"
 "_ZZN5boost4math6detail9bessel_j1IeEET_S3_E2PC"
 "_ZZN5boost4math6detail9bessel_j1IeEET_S3_E2PS"
 "_ZZN5boost4math6detail9bessel_j1IeEET_S3_E2Q1"
 "_ZZN5boost4math6detail9bessel_j1IeEET_S3_E2Q2"
 "_ZZN5boost4math6detail9bessel_j1IeEET_S3_E2QC"
 "_ZZN5boost4math6detail9bessel_j1IeEET_S3_E2QS"
 "_ZZN5boost4math6detail9bessel_y1IeNS0_8policies6policyINS3_13promote_floatILb0EEENS3_14promote_doubleILb0EEENS3_14default_policyES9_S9_S9_S9_S9_S9_S9_S9_S9_S9_EEEET_SB_RKT0_E2P1"
 "_ZZN5boost4math6detail9bessel_y1IeNS0_8policies6policyINS3_13promote_floatILb0EEENS3_14promote_doubleILb0EEENS3_14default_policyES9_S9_S9_S9_S9_S9_S9_S9_S9_S9_EEEET_SB_RKT0_E2PC"
 "_ZZN5boost4math6detail9bessel_y1IeNS0_8policies6policyINS3_13promote_floatILb0EEENS3_14promote_doubleILb0EEENS3_14default_policyES9_S9_S9_S9_S9_S9_S9_S9_S9_S9_EEEET_SB_RKT0_E2PS"
 "_ZZN5boost4math6detail9bessel_y1IeNS0_8policies6policyINS3_13promote_floatILb0EEENS3_14promote_doubleILb0EEENS3_14default_policyES9_S9_S9_S9_S9_S9_S9_S9_S9_S9_EEEET_SB_RKT0_E2Q1"
 "_ZZN5boost4math6detail9bessel_y1IeNS0_8policies6policyINS3_13promote_floatILb0EEENS3_14promote_doubleILb0EEENS3_14default_policyES9_S9_S9_S9_S9_S9_S9_S9_S9_S9_EEEET_SB_RKT0_E2QC"
 "_ZZN5boost4math6detail9bessel_y1IeNS0_8policies6policyINS3_13promote_floatILb0EEENS3_14promote_doubleILb0EEENS3_14default_policyES9_S9_S9_S9_S9_S9_S9_S9_S9_S9_EEEET_SB_RKT0_E2QS"
 "_ZZN5boost4math6detail9gamma_impIeNS0_8policies6policyINS3_13promote_floatILb0EEENS3_14promote_doubleILb0EEENS3_14default_policyES9_S9_S9_S9_S9_S9_S9_S9_S9_S9_EENS0_7lanczos12lanczos17m64EEET_SD_RKT0_RKT1_E8function"
 "_ZZN5boost4math6detail9log1p_impIeNS0_8policies6policyINS3_13promote_floatILb0EEENS3_14promote_doubleILb0EEENS3_14default_policyES9_S9_S9_S9_S9_S9_S9_S9_S9_S9_EEEET_RKSB_RKT0_RKNS_17integral_constantIiLi64EEEE8function"
 "_ZZN5boost4math6detail9powm1_impIeNS0_8policies6policyINS3_13promote_floatILb0EEENS3_14promote_doubleILb0EEENS3_14default_policyES9_S9_S9_S9_S9_S9_S9_S9_S9_S9_EEEET_SB_SB_RKT0_E8function"
 "_ZZN5boost4math7lanczos12lanczos13m5311lanczos_sumIdEET_RKS4_E5coeff"
 "_ZZN5boost4math7lanczos12lanczos13m5323lanczos_sum_expG_scaledIdEET_RKS4_E5coeff"
 "_ZZN5boost4math7lanczos12lanczos17m6411lanczos_sumIeEET_RKS4_E3num"
 "_ZZN5boost4math7lanczos12lanczos17m6411lanczos_sumIeEET_RKS4_E5denom"
 "_ZZN5boost4math7lanczos12lanczos17m6423lanczos_sum_expG_scaledIeEET_RKS4_E3num"
 "_ZZN5boost4math7lanczos12lanczos17m6423lanczos_sum_expG_scaledIeEET_RKS4_E5denom"
 "_ZZN5boost4math7log1pmxIeNS0_8policies6policyINS2_13promote_floatILb0EEENS2_14promote_doubleILb0EEENS2_14default_policyES8_S8_S8_S8_S8_S8_S8_S8_S8_S8_EEEENS0_5tools12promote_argsIT_fffffE4typeESC_RKT0_E8function"
 "_ZZN5rstan8stan_fitIN25model_RP_expert_namespace15model_RP_expertEN5boost6random23additive_combine_engineINS4_26linear_congruential_engineIjLj40014ELj0ELj2147483563EEENS6_IjLj40692ELj0ELj2147483399EEEEEE12call_samplerEP7SEXPRECE8stop_sym"
 "_ZZN5rstan8stan_fitIN25model_RP_expert_namespace15model_RP_expertEN5boost6random23additive_combine_engineINS4_26linear_congruential_engineIjLj40014ELj0ELj2147483563EEENS6_IjLj40692ELj0ELj2147483399EEEEEE13grad_log_probEP7SEXPRECSC_E8stop_sym"
 "_ZZN5rstan8stan_fitIN25model_RP_expert_namespace15model_RP_expertEN5boost6random23additive_combine_engineINS4_26linear_congruential_engineIjLj40014ELj0ELj2147483563EEENS6_IjLj40692ELj0ELj2147483399EEEEEE13param_oi_tidxEP7SEXPRECE8stop_sym"
 "_ZZN5rstan8stan_fitIN25model_RP_expert_namespace15model_RP_expertEN5boost6random23additive_combine_engineINS4_26linear_congruential_engineIjLj40014ELj0ELj2147483563EEENS6_IjLj40692ELj0ELj2147483399EEEEEE14constrain_parsEP7SEXPRECE8stop_sym"
 "_ZZN5rstan8stan_fitIN25model_RP_expert_namespace15model_RP_expertEN5boost6random23additive_combine_engineINS4_26linear_congruential_engineIjLj40014ELj0ELj2147483563EEENS6_IjLj40692ELj0ELj2147483399EEEEEE14standalone_gqsEP7SEXPRECSC_E8stop_sym"
 "_ZZN5rstan8stan_fitIN25model_RP_expert_namespace15model_RP_expertEN5boost6random23additive_combine_engineINS4_26linear_congruential_engineIjLj40014ELj0ELj2147483563EEENS6_IjLj40692ELj0ELj2147483399EEEEEE16unconstrain_parsEP7SEXPRECE8stop_sym"
 "_ZZN5rstan8stan_fitIN25model_RP_expert_namespace15model_RP_expertEN5boost6random23additive_combine_engineINS4_26linear_congruential_engineIjLj40014ELj0ELj2147483563EEENS6_IjLj40692ELj0ELj2147483399EEEEEE22num_pars_unconstrainedEvE8stop_sym"
 "_ZZN5rstan8stan_fitIN25model_RP_expert_namespace15model_RP_expertEN5boost6random23additive_combine_engineINS4_26linear_congruential_engineIjLj40014ELj0ELj2147483563EEENS6_IjLj40692ELj0ELj2147483399EEEEEE23constrained_param_namesEP7SEXPRECSC_E8stop_sym"
 "_ZZN5rstan8stan_fitIN25model_RP_expert_namespace15model_RP_expertEN5boost6random23additive_combine_engineINS4_26linear_congruential_engineIjLj40014ELj0ELj2147483563EEENS6_IjLj40692ELj0ELj2147483399EEEEEE25unconstrained_param_namesEP7SEXPRECSC_E8stop_sym"
 "_ZZN5rstan8stan_fitIN25model_RP_expert_namespace15model_RP_expertEN5boost6random23additive_combine_engineINS4_26linear_congruential_engineIjLj40014ELj0ELj2147483563EEENS6_IjLj40692ELj0ELj2147483399EEEEEE8log_probEP7SEXPRECSC_SC_E8stop_sym"
 "_ZZNK4stan11variational15normal_fullrank7entropyEvE4mult"
 "_ZZNK4stan11variational15normal_fullrank9calc_gradIN25model_RP_expert_namespace15model_RP_expertEN5boost6random23additive_combine_engineINS6_26linear_congruential_engineIjLj40014ELj0ELj2147483563EEENS8_IjLj40692ELj0ELj2147483399EEEEEEEvRS1_RT_RN5Eigen6MatrixIdLin1ELi1ELi0ELin1ELi1EEEiRT0_RNS_9callbacks6loggerEE8function"
 "_ZZNK4stan11variational15normal_fullrank9transformERKN5Eigen6MatrixIdLin1ELi1ELi0ELin1ELi1EEEE8function"
 "_ZZNK4stan11variational16normal_meanfield9calc_gradIN25model_RP_expert_namespace15model_RP_expertEN5boost6random23additive_combine_engineINS6_26linear_congruential_engineIjLj40014ELj0ELj2147483563EEENS8_IjLj40692ELj0ELj2147483399EEEEEEEvRS1_RT_RN5Eigen6MatrixIdLin1ELi1ELi0ELin1ELi1EEEiRT0_RNS_9callbacks6loggerEE8function"
 "_ZZNK4stan11variational16normal_meanfield9transformERKN5Eigen6MatrixIdLin1ELi1ELi0ELin1ELi1EEEE8function"
 "_ZZNK4stan11variational4adviIN25model_RP_expert_namespace15model_RP_expertENS0_15normal_fullrankEN5boost6random23additive_combine_engineINS6_26linear_congruential_engineIjLj40014ELj0ELj2147483563EEENS8_IjLj40692ELj0ELj2147483399EEEEEE14calc_ELBO_gradERKS4_RS4_RNS_9callbacks6loggerEE8function"
 "_ZZNK4stan11variational4adviIN25model_RP_expert_namespace15model_RP_expertENS0_15normal_fullrankEN5boost6random23additive_combine_engineINS6_26linear_congruential_engineIjLj40014ELj0ELj2147483563EEENS8_IjLj40692ELj0ELj2147483399EEEEEE26stochastic_gradient_ascentERS4_ddiRNS_9callbacks6loggerERNSE_6writerEE8function"
 "_ZZNK4stan11variational4adviIN25model_RP_expert_namespace15model_RP_expertENS0_15normal_fullrankEN5boost6random23additive_combine_engineINS6_26linear_congruential_engineIjLj40014ELj0ELj2147483563EEENS8_IjLj40692ELj0ELj2147483399EEEEEE9adapt_etaERS4_iRNS_9callbacks6loggerEE8function"
 "_ZZNK4stan11variational4adviIN25model_RP_expert_namespace15model_RP_expertENS0_15normal_fullrankEN5boost6random23additive_combine_engineINS6_26linear_congruential_engineIjLj40014ELj0ELj2147483563EEENS8_IjLj40692ELj0ELj2147483399EEEEEE9calc_ELBOERKS4_RNS_9callbacks6loggerEE8function"
 "_ZZNK4stan11variational4adviIN25model_RP_expert_namespace15model_RP_expertENS0_16normal_meanfieldEN5boost6random23additive_combine_engineINS6_26linear_congruential_engineIjLj40014ELj0ELj2147483563EEENS8_IjLj40692ELj0ELj2147483399EEEEEE14calc_ELBO_gradERKS4_RS4_RNS_9callbacks6loggerEE8function"
 "_ZZNK4stan11variational4adviIN25model_RP_expert_namespace15model_RP_expertENS0_16normal_meanfieldEN5boost6random23additive_combine_engineINS6_26linear_congruential_engineIjLj40014ELj0ELj2147483563EEENS8_IjLj40692ELj0ELj2147483399EEEEEE26stochastic_gradient_ascentERS4_ddiRNS_9callbacks6loggerERNSE_6writerEE8function"
 "_ZZNK4stan11variational4adviIN25model_RP_expert_namespace15model_RP_expertENS0_16normal_meanfieldEN5boost6random23additive_combine_engineINS6_26linear_congruential_engineIjLj40014ELj0ELj2147483563EEENS8_IjLj40692ELj0ELj2147483399EEEEEE9adapt_etaERS4_iRNS_9callbacks6loggerEE8function"
 "_ZZNK4stan11variational4adviIN25model_RP_expert_namespace15model_RP_expertENS0_16normal_meanfieldEN5boost6random23additive_combine_engineINS6_26linear_congruential_engineIjLj40014ELj0ELj2147483563EEENS8_IjLj40692ELj0ELj2147483399EEEEEE9calc_ELBOERKS4_RNS_9callbacks6loggerEE8function"
 "_ZZNK5rstan8stan_fitIN25model_RP_expert_namespace15model_RP_expertEN5boost6random23additive_combine_engineINS4_26linear_congruential_engineIjLj40014ELj0ELj2147483563EEENS6_IjLj40692ELj0ELj2147483399EEEEEE10param_dimsEvE8stop_sym"
 "_ZZNK5rstan8stan_fitIN25model_RP_expert_namespace15model_RP_expertEN5boost6random23additive_combine_engineINS4_26linear_congruential_engineIjLj40014ELj0ELj2147483563EEENS6_IjLj40692ELj0ELj2147483399EEEEEE11param_namesEvE8stop_sym"
 "_ZZNK5rstan8stan_fitIN25model_RP_expert_namespace15model_RP_expertEN5boost6random23additive_combine_engineINS4_26linear_congruential_engineIjLj40014ELj0ELj2147483563EEENS6_IjLj40692ELj0ELj2147483399EEEEEE13param_dims_oiEvE8stop_sym"
 "_ZZNK5rstan8stan_fitIN25model_RP_expert_namespace15model_RP_expertEN5boost6random23additive_combine_engineINS4_26linear_congruential_engineIjLj40014ELj0ELj2147483563EEENS6_IjLj40692ELj0ELj2147483399EEEEEE14param_names_oiEvE8stop_sym"
 "_ZZNK5rstan8stan_fitIN25model_RP_expert_namespace15model_RP_expertEN5boost6random23additive_combine_engineINS4_26linear_congruential_engineIjLj40014ELj0ELj2147483563EEENS6_IjLj40692ELj0ELj2147483399EEEEEE15param_fnames_oiEvE8stop_sym"
 "__emutls_t._ZZN4stan4math22AutodiffStackSingletonINS0_4variENS0_15chainable_allocEE4initEvE14is_initialized"
 "__emutls_v._ZN4stan4math22AutodiffStackSingletonINS0_4variENS0_15chainable_allocEE9instance_E"
 "__emutls_v._ZZN4stan4math22AutodiffStackSingletonINS0_4variENS0_15chainable_allocEE4initEvE14is_initialized"
 "_rcpp_module_boot_stan_fit4RP_expert_mod"
 "_Z13get_last_callv"
 "_Z14make_conditionRKNSt7__cxx1112basic_stringIcSt11char_traitsIcESaIcEEEP7SEXPRECS8_S8_"
 "_Z19string_to_try_errorRKNSt7__cxx1112basic_stringIcSt11char_traitsIcESaIcEEE"
 "_Z20rcpp_set_stack_traceP7SEXPREC"
 "_Z21get_exception_classesRKNSt7__cxx1112basic_stringIcSt11char_traitsIcESaIcEEE"
 "_Z31exception_to_condition_templateIN4Rcpp9exceptionEEP7SEXPRECRKT_b"
 "_Z31exception_to_condition_templateISt9exceptionEP7SEXPRECRKT_b"
 "_Z47_rcpp_module_stan_fit4WeibullAF_expert_mod_initv"
 "_Z7dataptrP7SEXPREC"
 "_ZGVN5boost16exception_detail37exception_ptr_static_exception_objectINS0_10bad_alloc_EE1eE"
 "_ZGVN5boost16exception_detail37exception_ptr_static_exception_objectINS0_14bad_exception_EE1eE"
 "_ZGVN5boost4math6detail15erf_initializerIdNS0_8policies6policyINS3_10pole_errorILNS3_17error_policy_typeE1EEENS3_14overflow_errorILS6_1EEENS3_13promote_floatILb0EEENS3_14promote_doubleILb0EEENS3_14default_policyESE_SE_SE_SE_SE_SE_SE_SE_EENS_17integral_constantIiLi53EEEE11initializerE"
 "_ZGVN5boost4math6detail15erf_initializerIeNS0_8policies6policyINS3_13promote_floatILb0EEENS3_14promote_doubleILb0EEENS3_14default_policyES9_S9_S9_S9_S9_S9_S9_S9_S9_S9_EENS_17integral_constantIiLi64EEEE11initializerE"
 "_ZGVN5boost4math6detail17expm1_initializerIdNS0_8policies6policyINS3_10pole_errorILNS3_17error_policy_typeE1EEENS3_14overflow_errorILS6_1EEENS3_13promote_floatILb0EEENS3_14promote_doubleILb0EEENS3_14default_policyESE_SE_SE_SE_SE_SE_SE_SE_EENS_17integral_constantIiLi53EEEE11initializerE"
